Archive member included because of file (symbol)

../../../../../c-bowler/firmware/library/NR-Clib/development/c-bowler.X/dist/default/production/c-bowler.X.a(BowlerPacketParser.o)
                              build/default/production/_ext/990863823/CoProcCom.o (_getBowlerPacket)
../../../../../c-bowler/firmware/library/NR-Clib/development/c-bowler.X/dist/default/production/c-bowler.X.a(Namespace_bcs_core.o)
                              build/default/production/_ext/805493626/Namespace_bcs_io.o (addRpcToNamespace)
../../../../../c-bowler/firmware/library/NR-Clib/development/c-bowler.X/dist/default/production/c-bowler.X.a(Bowler_Server.o)
                              build/default/production/_ext/321196743/Namespace_neuronrobotics_dyio.o (getLastPacketTime)
../../../../../c-bowler/firmware/library/NR-Clib/development/c-bowler.X/dist/default/production/c-bowler.X.a(Debug.o)
                              build/default/production/_ext/1825615050/PID.o (getPrintLevel)
../../../../../c-bowler/firmware/library/NR-Clib/development/c-bowler.X/dist/default/production/c-bowler.X.a(FIFO.o)
                              build/default/production/_ext/990863823/DyIODataTableManager.o (InitByteFifo)
../../../../../c-bowler/firmware/library/NR-Clib/development/c-bowler.X/dist/default/production/c-bowler.X.a(Bowler_Helper.o)
                              ../../../../../c-bowler/firmware/library/NR-Clib/development/c-bowler.X/dist/default/production/c-bowler.X.a(Debug.o) (CalcCRC)
../../../../../c-bowler/firmware/library/NR-Clib/development/c-bowler.X/dist/default/production/c-bowler.X.a(Scheduler.o)
                              build/default/production/_ext/805493626/Bcs_IO_AdvancedAsync.o (RunEvery)
../../../../../c-bowler/firmware/library/NR-Clib/development/c-bowler.X/dist/default/production/c-bowler.X.a(Namespace_bcs_pid.o)
                              build/default/production/_ext/1978776677/InitializationCallbacks.o (getBcsPidNamespace)
../../../../../c-bowler/firmware/library/NR-Clib/development/c-bowler.X/dist/default/production/c-bowler.X.a(AbstractPID.o)
                              ../../../../../c-bowler/firmware/library/NR-Clib/development/c-bowler.X/dist/default/production/c-bowler.X.a(Debug.o) (getPidGroupDataTable)
../../../../../c-bowler/firmware/library/NR-Clib/development/c-bowler.X/dist/default/production/c-bowler.X.a(usb_fifo.o)
                              build/default/production/_ext/1978776677/InitializationCallbacks.o (usb_CDC_Serial_Init)
../../../../../c-bowler/firmware/library/NR-Clib/development/c-bowler.X/dist/default/production/c-bowler.X.a(usb_device.o)
                              ../../../../../c-bowler/firmware/library/NR-Clib/development/c-bowler.X/dist/default/production/c-bowler.X.a(usb_fifo.o) (USBDeviceInit)
../../../../../c-bowler/firmware/library/NR-Clib/development/c-bowler.X/dist/default/production/c-bowler.X.a(LED.o)
                              build/default/production/_ext/1978776677/InitializationCallbacks.o (InitLEDS)
../../../../../c-bowler/firmware/library/NR-Clib/development/c-bowler.X/dist/default/production/c-bowler.X.a(ADC.o)
                              build/default/production/_ext/990863823/ADC.o (InitADCHardware)
../../../../../c-bowler/firmware/library/NR-Clib/development/c-bowler.X/dist/default/production/c-bowler.X.a(HAL_P32.o)
                              build/default/production/_ext/1978776677/InitializationCallbacks.o (Pic32_Bowler_HAL_Init)
../../../../../c-bowler/firmware/library/NR-Clib/development/c-bowler.X/dist/default/production/c-bowler.X.a(Delay.o)
                              ../../../../../c-bowler/firmware/library/NR-Clib/development/c-bowler.X/dist/default/production/c-bowler.X.a(ADC.o) (Delay10us)
../../../../../c-bowler/firmware/library/NR-Clib/development/c-bowler.X/dist/default/production/c-bowler.X.a(Bowler_USB_HAL.o)
                              ../../../../../c-bowler/firmware/library/NR-Clib/development/c-bowler.X/dist/default/production/c-bowler.X.a(HAL_P32.o) (SendPacketUSB)
../../../../../c-bowler/firmware/library/NR-Clib/development/c-bowler.X/dist/default/production/c-bowler.X.a(FlashStorage.o)
                              build/default/production/_ext/321196743/Namespace_neuronrobotics_dyio.o (FlashSetMac)
../../../../../c-bowler/firmware/library/NR-Clib/development/c-bowler.X/dist/default/production/c-bowler.X.a(Bowler_UART_HAL.o)
                              ../../../../../c-bowler/firmware/library/NR-Clib/development/c-bowler.X/dist/default/production/c-bowler.X.a(HAL_P32.o) (SetPICUARTFifo)
../../../../../c-bowler/firmware/library/NR-Clib/development/c-bowler.X/dist/default/production/c-bowler.X.a(Tick.o)
                              ../../../../../c-bowler/firmware/library/NR-Clib/development/c-bowler.X/dist/default/production/c-bowler.X.a(HAL_P32.o) (TickInit)
../../../../../c-bowler/firmware/library/NR-Clib/development/c-bowler.X/dist/default/production/c-bowler.X.a(UART.o)
                              build/default/production/_ext/990863823/CoProcCom.o (Write32UART2)
../../../../../c-bowler/firmware/library/NR-Clib/development/c-bowler.X/dist/default/production/c-bowler.X.a(Namespace_bcs_rpc.o)
                              ../../../../../c-bowler/firmware/library/NR-Clib/development/c-bowler.X/dist/default/production/c-bowler.X.a(Bowler_Server.o) (getBcsRpcNamespace)
../../../../../c-bowler/firmware/library/NR-Clib/development/c-bowler.X/dist/default/production/c-bowler.X.a(PidRpc.o)
                              ../../../../../c-bowler/firmware/library/NR-Clib/development/c-bowler.X/dist/default/production/c-bowler.X.a(Namespace_bcs_pid.o) (processPIDGet)
../../../../../c-bowler/firmware/library/NR-Clib/development/c-bowler.X/dist/default/production/c-bowler.X.a(PidHysteresis.o)
                              ../../../../../c-bowler/firmware/library/NR-Clib/development/c-bowler.X/dist/default/production/c-bowler.X.a(AbstractPID.o) (getUpperPidHistoresis)
../../../../../c-bowler/firmware/library/NR-Clib/development/c-bowler.X/dist/default/production/c-bowler.X.a(PidAsync.o)
                              ../../../../../c-bowler/firmware/library/NR-Clib/development/c-bowler.X/dist/default/production/c-bowler.X.a(AbstractPID.o) (updatePidAsync)
../../../../../c-bowler/firmware/library/NR-Clib/development/c-bowler.X/dist/default/production/c-bowler.X.a(usb_callback.o)
                              ../../../../../c-bowler/firmware/library/NR-Clib/development/c-bowler.X/dist/default/production/c-bowler.X.a(usb_device.o) (USER_USB_CALLBACK_EVENT_HANDLER)
../../../../../c-bowler/firmware/library/NR-Clib/development/c-bowler.X/dist/default/production/c-bowler.X.a(usb_function_cdc.o)
                              ../../../../../c-bowler/firmware/library/NR-Clib/development/c-bowler.X/dist/default/production/c-bowler.X.a(usb_callback.o) (USBCheckCDCRequest)
../../../../../c-bowler/firmware/library/NR-Clib/development/c-bowler.X/dist/default/production/c-bowler.X.a(usb_descriptors.o)
                              ../../../../../c-bowler/firmware/library/NR-Clib/development/c-bowler.X/dist/default/production/c-bowler.X.a(usb_fifo.o) (WriteUSBSerialNumber)
../../../../../c-bowler/firmware/library/NR-Clib/development/c-bowler.X/dist/default/production/c-bowler.X.a(PidVelocity.o)
                              ../../../../../c-bowler/firmware/library/NR-Clib/development/c-bowler.X/dist/default/production/c-bowler.X.a(PidRpc.o) (StartPDVel)
/home/opt/microchip/xc32/v1.00/bin/../lib/gcc/pic32mx/4.5.1/libgcc.a(floatunsisf.o)
                              build/default/production/_ext/805493626/Abstract_bcs_io.o (__floatunsisf)
/home/opt/microchip/xc32/v1.00/bin/../lib/gcc/pic32mx/4.5.1/../../../../pic32mx/lib/libc.a(memcpy.o)
                              build/default/production/_ext/1020318379/Pin_State.o (memcpy)
/home/opt/microchip/xc32/v1.00/bin/../lib/gcc/pic32mx/4.5.1/../../../../pic32mx/lib/libc.a(general-exception.o)
                              /home/opt/microchip/xc32/v1.00/bin/../lib/gcc/pic32mx/4.5.1/../../../../pic32mx/lib/crt0.o (_general_exception_context)
/home/opt/microchip/xc32/v1.00/bin/../lib/gcc/pic32mx/4.5.1/../../../../pic32mx/lib/libc.a(default-bootstrap-exception-handler.o)
                              /home/opt/microchip/xc32/v1.00/bin/../lib/gcc/pic32mx/4.5.1/../../../../pic32mx/lib/crt0.o (_bootstrap_exception_handler)
/home/opt/microchip/xc32/v1.00/bin/../lib/gcc/pic32mx/4.5.1/../../../../pic32mx/lib/libc.a(default-on-reset.o)
                              /home/opt/microchip/xc32/v1.00/bin/../lib/gcc/pic32mx/4.5.1/../../../../pic32mx/lib/crt0.o (_on_reset)
/home/opt/microchip/xc32/v1.00/bin/../lib/gcc/pic32mx/4.5.1/../../../../pic32mx/lib/libc.a(default-on-bootstrap.o)
                              /home/opt/microchip/xc32/v1.00/bin/../lib/gcc/pic32mx/4.5.1/../../../../pic32mx/lib/crt0.o (_on_bootstrap)
/home/opt/microchip/xc32/v1.00/bin/../lib/gcc/pic32mx/4.5.1/../../../../pic32mx/lib/libc.a(default-nmi-handler.o)
                              /home/opt/microchip/xc32/v1.00/bin/../lib/gcc/pic32mx/4.5.1/../../../../pic32mx/lib/crt0.o (_nmi_handler)
/home/opt/microchip/xc32/v1.00/bin/../lib/gcc/pic32mx/4.5.1/../../../../pic32mx/lib/libm.a(fp32.o)
                              build/default/production/_ext/990863823/Switches.o (fpsub)
/home/opt/microchip/xc32/v1.00/bin/../lib/gcc/pic32mx/4.5.1/../../../../pic32mx/lib/libmchp_peripheral_32MX440F128H.a(soft_reset_lib.o)
                              build/default/production/_ext/1360937237/DyIOMain.o (SoftReset)
/home/opt/microchip/xc32/v1.00/bin/../lib/gcc/pic32mx/4.5.1/../../../../pic32mx/lib/libmchp_peripheral_32MX440F128H.a(int_enable_interrupts_lib.o)
                              build/default/production/_ext/805493626/Bcs_IO_AdvancedAsync.o (INTEnableInterrupts)
/home/opt/microchip/xc32/v1.00/bin/../lib/gcc/pic32mx/4.5.1/../../../../pic32mx/lib/libmchp_peripheral_32MX440F128H.a(int_disable_interrupts_lib.o)
                              build/default/production/_ext/1978776677/InitializationCallbacks.o (INTDisableInterrupts)
/home/opt/microchip/xc32/v1.00/bin/../lib/gcc/pic32mx/4.5.1/../../../../pic32mx/lib/libmchp_peripheral_32MX440F128H.a(int_enable_mv_int_lib.o)
                              build/default/production/_ext/805493626/Bcs_IO_AdvancedAsync.o (INTEnableSystemMultiVectoredInt)
/home/opt/microchip/xc32/v1.00/bin/../lib/gcc/pic32mx/4.5.1/../../../../pic32mx/lib/libmchp_peripheral_32MX440F128H.a(int_tbl_lib.o)
                              build/default/production/_ext/990863823/CoProcCom.o (INTClearFlag)
/home/opt/microchip/xc32/v1.00/bin/../lib/gcc/pic32mx/4.5.1/../../../../pic32mx/lib/libmchp_peripheral_32MX440F128H.a(spi_getc_spi2_lib_legacy.o)
                              build/default/production/_ext/990863823/SPI.o (getcSPI2)
/home/opt/microchip/xc32/v1.00/bin/../lib/gcc/pic32mx/4.5.1/../../../../pic32mx/lib/libmchp_peripheral_32MX440F128H.a(spi_open_spi2_lib_legacy.o)
                              build/default/production/_ext/990863823/SPI.o (OpenSPI2)
/home/opt/microchip/xc32/v1.00/bin/../lib/gcc/pic32mx/4.5.1/../../../../pic32mx/lib/libmchp_peripheral_32MX440F128H.a(spi_brg_tbl_lib_legacy.o)
                              /home/opt/microchip/xc32/v1.00/bin/../lib/gcc/pic32mx/4.5.1/../../../../pic32mx/lib/libmchp_peripheral_32MX440F128H.a(spi_open_spi2_lib_legacy.o) (_SpiBrgConvTbl)
/home/opt/microchip/xc32/v1.00/bin/../lib/gcc/pic32mx/4.5.1/../../../../pic32mx/lib/libmchp_peripheral_32MX440F128H.a(nvm_erase_page_lib.o)
                              ../../../../../c-bowler/firmware/library/NR-Clib/development/c-bowler.X/dist/default/production/c-bowler.X.a(FlashStorage.o) (NVMErasePage)
/home/opt/microchip/xc32/v1.00/bin/../lib/gcc/pic32mx/4.5.1/../../../../pic32mx/lib/libmchp_peripheral_32MX440F128H.a(nvm_operation_lib.o)
                              /home/opt/microchip/xc32/v1.00/bin/../lib/gcc/pic32mx/4.5.1/../../../../pic32mx/lib/libmchp_peripheral_32MX440F128H.a(nvm_erase_page_lib.o) (_NVMOperation)
/home/opt/microchip/xc32/v1.00/bin/../lib/gcc/pic32mx/4.5.1/../../../../pic32mx/lib/libmchp_peripheral_32MX440F128H.a(nvm_write_word_lib.o)
                              ../../../../../c-bowler/firmware/library/NR-Clib/development/c-bowler.X/dist/default/production/c-bowler.X.a(FlashStorage.o) (NVMWriteWord)
/home/opt/microchip/xc32/v1.00/bin/../lib/gcc/pic32mx/4.5.1/../../../../pic32mx/lib/libmchp_peripheral_32MX440F128H.a(port_set_pins_digital_out_lib.o)
                              ../../../../../c-bowler/firmware/library/NR-Clib/development/c-bowler.X/dist/default/production/c-bowler.X.a(LED.o) (PORTSetPinsDigitalOut)
/home/opt/microchip/xc32/v1.00/bin/../lib/gcc/pic32mx/4.5.1/../../../../pic32mx/lib/libmchp_peripheral_32MX440F128H.a(port_clear_bits_lib.o)
                              ../../../../../c-bowler/firmware/library/NR-Clib/development/c-bowler.X/dist/default/production/c-bowler.X.a(LED.o) (PORTClearBits)
/home/opt/microchip/xc32/v1.00/bin/../lib/gcc/pic32mx/4.5.1/../../../../pic32mx/lib/libmchp_peripheral_32MX440F128H.a(port_set_bits_lib.o)
                              ../../../../../c-bowler/firmware/library/NR-Clib/development/c-bowler.X/dist/default/production/c-bowler.X.a(LED.o) (PORTSetBits)
/home/opt/microchip/xc32/v1.00/bin/../lib/gcc/pic32mx/4.5.1/../../../../pic32mx/lib/libmchp_peripheral_32MX440F128H.a(_ports_tbl_libp.o)
                              /home/opt/microchip/xc32/v1.00/bin/../lib/gcc/pic32mx/4.5.1/../../../../pic32mx/lib/libmchp_peripheral_32MX440F128H.a(port_set_pins_digital_out_lib.o) (PortRegTbl)
/home/opt/microchip/xc32/v1.00/bin/../lib/gcc/pic32mx/4.5.1/../../../../pic32mx/lib/libmchp_peripheral_32MX440F128H.a(uart_lib.o)
                              build/default/production/_ext/990863823/CoProcCom.o (UARTEnable)
/home/opt/microchip/xc32/v1.00/bin/../lib/gcc/pic32mx/4.5.1/../../../../pic32mx/lib/libmchp_peripheral_32MX440F128H.a(int_restore_interrupts_lib.o)
                              /home/opt/microchip/xc32/v1.00/bin/../lib/gcc/pic32mx/4.5.1/../../../../pic32mx/lib/libmchp_peripheral_32MX440F128H.a(nvm_operation_lib.o) (INTRestoreInterrupts)

Allocating common symbols
Common symbol       size              file

getAllChanelValueHWPtr
                    0x4               build/default/production/_ext/805493626/Abstract_bcs_io.o
self                0x16              build/default/production/_ext/1020318379/Pin_State.o
pDst                0x4               ../../../../../c-bowler/firmware/library/NR-Clib/development/c-bowler.X/dist/default/production/c-bowler.X.a(usb_device.o)
control_signal_bitmap
                    0x4               ../../../../../c-bowler/firmware/library/NR-Clib/development/c-bowler.X/dist/default/production/c-bowler.X.a(usb_function_cdc.o)
getChanelValueHWPtr
                    0x4               build/default/production/_ext/805493626/Abstract_bcs_io.o
BDT                 0x80              ../../../../../c-bowler/firmware/library/NR-Clib/development/c-bowler.X/dist/default/production/c-bowler.X.a(usb_device.o)
CtrlTrfData         0x40              ../../../../../c-bowler/firmware/library/NR-Clib/development/c-bowler.X/dist/default/production/c-bowler.X.a(usb_device.o)
resetPosition       0x4               ../../../../../c-bowler/firmware/library/NR-Clib/development/c-bowler.X/dist/default/production/c-bowler.X.a(AbstractPID.o)
MathCalculationVelocity
                    0x4               ../../../../../c-bowler/firmware/library/NR-Clib/development/c-bowler.X/dist/default/production/c-bowler.X.a(AbstractPID.o)
setAllChanelValueHWPtr
                    0x4               build/default/production/_ext/805493626/Abstract_bcs_io.o
setOutputLocal      0x4               ../../../../../c-bowler/firmware/library/NR-Clib/development/c-bowler.X/dist/default/production/c-bowler.X.a(AbstractPID.o)
setChanelValueHWPtr
                    0x4               build/default/production/_ext/805493626/Abstract_bcs_io.o
USBDeviceState      0x4               ../../../../../c-bowler/firmware/library/NR-Clib/development/c-bowler.X/dist/default/production/c-bowler.X.a(usb_device.o)
controlTransferState
                    0x1               ../../../../../c-bowler/firmware/library/NR-Clib/development/c-bowler.X/dist/default/production/c-bowler.X.a(usb_device.o)
cdc_tx_len          0x2               ../../../../../c-bowler/firmware/library/NR-Clib/development/c-bowler.X/dist/default/production/c-bowler.X.a(usb_function_cdc.o)
USBInMaxPacketSize  0x6               ../../../../../c-bowler/firmware/library/NR-Clib/development/c-bowler.X/dist/default/production/c-bowler.X.a(usb_device.o)
pCDCSrc             0x4               ../../../../../c-bowler/firmware/library/NR-Clib/development/c-bowler.X/dist/default/production/c-bowler.X.a(usb_function_cdc.o)
configChannelHWPtr  0x4               build/default/production/_ext/805493626/Abstract_bcs_io.o
MathCalculationPosition
                    0x4               ../../../../../c-bowler/firmware/library/NR-Clib/development/c-bowler.X/dist/default/production/c-bowler.X.a(AbstractPID.o)
cdc_data_tx         0x40              ../../../../../c-bowler/firmware/library/NR-Clib/development/c-bowler.X/dist/default/production/c-bowler.X.a(usb_function_cdc.o)
inPipes             0x7               ../../../../../c-bowler/firmware/library/NR-Clib/development/c-bowler.X/dist/default/production/c-bowler.X.a(usb_device.o)
pBDTEntryIn         0x10              ../../../../../c-bowler/firmware/library/NR-Clib/development/c-bowler.X/dist/default/production/c-bowler.X.a(usb_device.o)
CDCDataOutHandle    0x4               ../../../../../c-bowler/firmware/library/NR-Clib/development/c-bowler.X/dist/default/production/c-bowler.X.a(usb_function_cdc.o)
cdc_rx_len          0x2               ../../../../../c-bowler/firmware/library/NR-Clib/development/c-bowler.X/dist/default/production/c-bowler.X.a(usb_function_cdc.o)
line_coding         0x8               ../../../../../c-bowler/firmware/library/NR-Clib/development/c-bowler.X/dist/default/production/c-bowler.X.a(usb_function_cdc.o)
BaudRateGen         0x4               ../../../../../c-bowler/firmware/library/NR-Clib/development/c-bowler.X/dist/default/production/c-bowler.X.a(usb_function_cdc.o)
pBDTEntryOut        0x10              ../../../../../c-bowler/firmware/library/NR-Clib/development/c-bowler.X/dist/default/production/c-bowler.X.a(usb_device.o)
adc                 0x158             build/default/production/_ext/990863823/ADC.o
CDCDataInHandle     0x4               ../../../../../c-bowler/firmware/library/NR-Clib/development/c-bowler.X/dist/default/production/c-bowler.X.a(usb_function_cdc.o)
stream              0x4               ../../../../../c-bowler/firmware/library/NR-Clib/development/c-bowler.X/dist/default/production/c-bowler.X.a(FlashStorage.o)
BothEP0OutUOWNsSet  0x4               ../../../../../c-bowler/firmware/library/NR-Clib/development/c-bowler.X/dist/default/production/c-bowler.X.a(usb_device.o)
Counter             0x8c              build/default/production/_ext/990863823/Counter.o
cdc_data_rx         0x40              ../../../../../c-bowler/firmware/library/NR-Clib/development/c-bowler.X/dist/default/production/c-bowler.X.a(usb_function_cdc.o)
cdc_notice          0x8               ../../../../../c-bowler/firmware/library/NR-Clib/development/c-bowler.X/dist/default/production/c-bowler.X.a(usb_function_cdc.o)
pBDTEntryEP0OutNext
                    0x4               ../../../../../c-bowler/firmware/library/NR-Clib/development/c-bowler.X/dist/default/production/c-bowler.X.a(usb_device.o)
flash               0x80              ../../../../../c-bowler/firmware/library/NR-Clib/development/c-bowler.X/dist/default/production/c-bowler.X.a(FlashStorage.o)
cdc_trf_state       0x1               ../../../../../c-bowler/firmware/library/NR-Clib/development/c-bowler.X/dist/default/production/c-bowler.X.a(usb_function_cdc.o)
onPidConfigureLocal
                    0x4               ../../../../../c-bowler/firmware/library/NR-Clib/development/c-bowler.X/dist/default/production/c-bowler.X.a(AbstractPID.o)
SetupPkt            0x8               ../../../../../c-bowler/firmware/library/NR-Clib/development/c-bowler.X/dist/default/production/c-bowler.X.a(usb_device.o)
pCDCDst             0x4               ../../../../../c-bowler/firmware/library/NR-Clib/development/c-bowler.X/dist/default/production/c-bowler.X.a(usb_function_cdc.o)
cdc_mem_type        0x1               ../../../../../c-bowler/firmware/library/NR-Clib/development/c-bowler.X/dist/default/production/c-bowler.X.a(usb_function_cdc.o)
lockOutTimeout      0x8               build/default/production/_ext/990863823/ADC.o
shortPacketStatus   0x1               ../../../../../c-bowler/firmware/library/NR-Clib/development/c-bowler.X/dist/default/production/c-bowler.X.a(usb_device.o)
pBDTEntryEP0OutCurrent
                    0x4               ../../../../../c-bowler/firmware/library/NR-Clib/development/c-bowler.X/dist/default/production/c-bowler.X.a(usb_device.o)
USBActiveConfiguration
                    0x1               ../../../../../c-bowler/firmware/library/NR-Clib/development/c-bowler.X/dist/default/production/c-bowler.X.a(usb_device.o)
RemoteWakeup        0x4               ../../../../../c-bowler/firmware/library/NR-Clib/development/c-bowler.X/dist/default/production/c-bowler.X.a(usb_device.o)
USTATcopy           0x1               ../../../../../c-bowler/firmware/library/NR-Clib/development/c-bowler.X/dist/default/production/c-bowler.X.a(usb_device.o)
USBInData           0xc               ../../../../../c-bowler/firmware/library/NR-Clib/development/c-bowler.X/dist/default/production/c-bowler.X.a(usb_device.o)
USBAlternateInterface
                    0x1               ../../../../../c-bowler/firmware/library/NR-Clib/development/c-bowler.X/dist/default/production/c-bowler.X.a(usb_device.o)
outPipes            0xb               ../../../../../c-bowler/firmware/library/NR-Clib/development/c-bowler.X/dist/default/production/c-bowler.X.a(usb_device.o)
dummy_encapsulated_cmd_response
                    0x8               ../../../../../c-bowler/firmware/library/NR-Clib/development/c-bowler.X/dist/default/production/c-bowler.X.a(usb_function_cdc.o)
getPosition         0x4               ../../../../../c-bowler/firmware/library/NR-Clib/development/c-bowler.X/dist/default/production/c-bowler.X.a(AbstractPID.o)
checkPIDLimitEvents
                    0x4               ../../../../../c-bowler/firmware/library/NR-Clib/development/c-bowler.X/dist/default/production/c-bowler.X.a(AbstractPID.o)

Microchip PIC32 Memory-Usage Report

kseg0 Program-Memory Usage
section                    address  length [bytes]      (dec)  Description
-------                 ----------  -------------------------  -----------
.rodata                 0x9d000000           0x74         116  Read-only const 
.dinit                  0x9d00007c         0x147c        5244   
.text                   0x9d0014f8          0x8ec        2284  App's exec code 
.text.RunPPMCheck       0x9d001de4          0x74c        1868   
.text.InitPID           0x9d002530          0x628        1576   
.text.pushAsyncReady    0x9d002b58          0x538        1336   
.rodata                 0x9d003090          0x528        1320  Read-only const 
.text.RunPDVel          0x9d0035b8          0x418        1048   
.text.pidHysterisis     0x9d0039d0          0x3e4         996   
.text.runCounterGroup   0x9d003db4          0x2e8         744   
.text.ProcessAsyncData  0x9d00409c          0x2e0         736   
.text.pushPIDLimitEvent 0x9d00437c          0x2d8         728   
.text._general_exceptio 0x9d004654          0x2c8         712   
.text.USBCtrlEPServiceC 0x9d00491c          0x2b8         696   
.rodata                 0x9d004bd4          0x2ac         684  Read-only const 
.text.InitPins          0x9d004e80          0x2ac         684   
.text.FlashSync         0x9d00512c          0x28c         652   
.text.printBowlerPacket 0x9d0053b8          0x280         640   
.text.ConfigPID         0x9d005638          0x280         640   
.text.hardwareInit      0x9d0058b8          0x264         612   
.text.SetPIDTimed       0x9d005b1c          0x25c         604   
.text.InitPinFunction   0x9d005d78          0x250         592   
.rodata                 0x9d005fc8          0x250         592  Read-only const 
.text.printPIDvals      0x9d006218          0x238         568   
.text.printBufferState  0x9d006450          0x238         568   
.text.USBDeviceTasksLoc 0x9d006688          0x22c         556   
.text.neuronRoboticsDyI 0x9d0068b4          0x228         552   
.text.GetPIDGroup       0x9d006adc          0x220         544   
.text.RunAbstractPIDCal 0x9d006cfc          0x21c         540   
.text.USBCheckCDCReques 0x9d006f18          0x218         536   
.text.INT4_ISR          0x9d007130          0x20c         524   
.text.StartCounterInput 0x9d00733c          0x1f8         504   
.text.runCounterOutputS 0x9d007534          0x1e8         488   
.text.GetConfigPID      0x9d00771c          0x1e8         488   
.text.pidResetNoStop    0x9d007904          0x1e4         484   
.text.Process_Self_Pack 0x9d007ae8          0x1d8         472   
.text.GetRawVoltageCode 0x9d007cc0          0x1d0         464   
.text.sendPacket        0x9d007e90          0x1c0         448   
.text.setMode           0x9d008050          0x1b8         440   
.text.InitADCHardware   0x9d008208          0x1b4         436   
.text.StartCounterOutpu 0x9d0083bc          0x1b0         432   
.text.SendPacketToCoPro 0x9d00856c          0x1a8         424   
.text._Timer3Handler    0x9d008714          0x1a8         424   
.text.CheckSwitches     0x9d0088bc          0x1a4         420   
.rodata                 0x9d008a60          0x4cc        1228  Read-only const 
.text.valadateRPC       0x9d008f2c          0x184         388   
.text.My_U2_ISR         0x9d0090b0          0x178         376   
.text.USBCtrlTrfRxServi 0x9d009228          0x16c         364   
.text.ConfigureChannelF 0x9d009394          0x168         360   
.rodata                 0x9d0094fc          0x168         360  Read-only const 
.text                   0x9d009664          0x168         360  App's exec code 
.rodata                 0x9d0097cc          0x164         356  Read-only const 
.text.newByte           0x9d009930          0x164         356   
.text._getBowlerPacket  0x9d009a94          0x160         352   
.text.startAdvancedAsyn 0x9d009bf4          0x158         344   
.rodata                 0x9d009d4c          0x154         340  Read-only const 
.text.setOutputMine     0x9d009ea0          0x150         336   
.text.processPIDPost    0x9d009ff0          0x150         336   
.text.USBStdFeatureReqH 0x9d00a140          0x14c         332   
.text.ClearCounter      0x9d00a28c          0x148         328   
.text.InitADC           0x9d00a3d4          0x144         324   
.text.neuronRoboticsDyI 0x9d00a518          0x140         320   
.text.GetAllModes       0x9d00a658          0x13c         316   
.text.pushPID           0x9d00a794          0x13c         316   
.text.printAsync        0x9d00a8d0          0x134         308   
.text.USBDeviceInit     0x9d00aa04          0x134         308   
.text.USBCancelIO       0x9d00ab38          0x134         308   
.text.INT2_ISR          0x9d00ac6c          0x130         304   
.text.INT3_ISR          0x9d00ad9c          0x130         304   
.text.pinHasFunction    0x9d00aecc          0x12c         300   
.text.CDCTxService      0x9d00aff8          0x128         296   
.text.SetAllCoProcValue 0x9d00b120          0x124         292   
.text.interpolate       0x9d00b244          0x124         292   
.text.GetEEPRomData     0x9d00b368          0x120         288   
.text.startUartCoProc   0x9d00b488          0x120         288   
.text.RunPIDControl     0x9d00b5a8          0x11c         284   
.text.ConfigPPM         0x9d00b6c4          0x118         280   
.text._NVMOperation     0x9d00b7dc          0x114         276   
.text.INT1_ISR          0x9d00b8f0          0x110         272   
.rodata                 0x9d00ba00          0x110         272  Read-only const 
.text.SetChanelValueHW  0x9d00bb10          0x108         264   
.text.ConfigPPMFromArra 0x9d00bc18          0x104         260   
.text.SendPacketToSPIFr 0x9d00bd1c          0x100         256   
.text.GetChanelValueHW  0x9d00be1c          0x100         256   
.text.USBCheckStdReques 0x9d00bf1c          0x100         256   
.text.processPIDCrit    0x9d00c01c          0x100         256   
.text.checkLinkHomingSt 0x9d00c11c          0x100         256   
.text.initPIDChans      0x9d00c21c           0xfc         252   
.text.LoadPIDvals       0x9d00c318           0xfc         252   
.text._USB1Interrupt    0x9d00c414           0xfc         252   
.text.runPidHysterisisC 0x9d00c510           0xfc         252   
.text.neuronRoboticsDyI 0x9d00c60c           0xf8         248   
.rodata                 0x9d00c704           0xf8         248  Read-only const 
.text.USBPutArray       0x9d00c7fc           0xf0         240   
.text.processPIDGet     0x9d00c8ec           0xf0         240   
.text.U1_ISR            0x9d00c9dc           0xec         236   
.text.configAdvancedAsy 0x9d00cac8           0xe4         228   
.text.process           0x9d00cbac           0xe4         228   
.text.USBStdGetStatusHa 0x9d00cc90           0xe4         228   
.text.USBCtrlTrfInHandl 0x9d00cd74           0xe4         228   
.text.InitilizeBcsIo    0x9d00ce58           0xe0         224   
.text.CheckRev          0x9d00cf38           0xe0         224   
.text.WritePIDvalues    0x9d00d018           0xe0         224   
.text.USBCtrlTrfTxServi 0x9d00d0f8           0xdc         220   
.text.StartPDVel        0x9d00d1d4           0xdc         220   
.text.USBStdGetDscHandl 0x9d00d2b0           0xd8         216   
.text.pidReset          0x9d00d388           0xd4         212   
.text.USBTransferOnePac 0x9d00d45c           0xd4         212   
.text.SetChannelValueCo 0x9d00d530           0xd0         208   
.text.SetEEPRomData     0x9d00d600           0xd0         208   
.rodata                 0x9d00d6d0           0xd0         208  Read-only const 
.text.RunEvery          0x9d00d7a0           0xd0         208   
.text.getBcsPidNamespac 0x9d00d870           0xd0         208   
.text.general_exception 0x9d00d940           0xd0         208   
.text.startPPM          0x9d00da10           0xcc         204   
.text.runPPMEvent       0x9d00dadc           0xc8         200   
.text.setPinsByGroup    0x9d00dba4           0xc4         196   
.text.startHomingLink   0x9d00dc68           0xc4         196   
.text.UserInit          0x9d00dd2c           0xc0         192   
.text.SetChanelValueFro 0x9d00ddec           0xbc         188   
.text.setOutput         0x9d00dea8           0xbc         188   
.text.SetAllCoProcMode  0x9d00df64           0xb8         184   
.text.SendPacketUARTCoP 0x9d00e01c           0xb4         180   
.text._rpcArgs          0x9d00e0d0           0xb4         180   
.text.LoadSerialTxData  0x9d00e184           0xb0         176   
.text.InitAbsPIDWithPos 0x9d00e234           0xb0         176   
.text.get_bcsIoNamespac 0x9d00e2e4           0xac         172   
.text.SetAllChannelValu 0x9d00e390           0xac         172   
.text.SetChannelMode    0x9d00e43c           0xac         172   
.rodata                 0x9d00e4e8           0xac         172  Read-only const 
.text.USBCtrlEPService  0x9d00e594           0xac         172   
.text.USBStallEndpoint  0x9d00e640           0xac         172   
.text.USBStdSetCfgHandl 0x9d00e6ec           0xa8         168   
.text.getPositionMine   0x9d00e794           0xa4         164   
.rodata                 0x9d00e838           0xa4         164  Read-only const 
.text.SetCoProcMode     0x9d00e8dc           0xa0         160   
.text.SetCounterOutput  0x9d00e97c           0xa0         160   
.rodata                 0x9d00ea1c          0x140         320  Read-only const 
.text.USBDeviceAttach   0x9d00eb5c           0xa0         160   
.text.Pic32_Bowler_HAL_ 0x9d00ebfc           0xa0         160   
.rodata                 0x9d00ec9c           0xa0         160  Read-only const 
.text.updatePidAsync    0x9d00ed3c           0xa0         160   
.rodata                 0x9d00eddc           0x9c         156  Read-only const 
.text.GetADC            0x9d00ee78           0x98         152   
.text.allign            0x9d00ef10           0x98         152   
.text.Bowler_Server     0x9d00efa8           0x98         152   
.rodata                 0x9d00f040           0x94         148  Read-only const 
.text.LoadEEstore       0x9d00f0d4           0x94         148   
.text.StopSPI           0x9d00f168           0x94         148   
.rodata                 0x9d00f1fc           0x90         144  Read-only const 
.text.populateGACV      0x9d00f28c           0x90         144   
.text.GetPPMDataToPacke 0x9d00f31c           0x90         144   
.text._nms              0x9d00f3ac           0x90         144   
.text.Timer1Handler     0x9d00f43c           0x90         144   
.text.pushAllPIDPositio 0x9d00f4cc           0x90         144   
.rodata                 0x9d00f55c           0x90         144  Read-only const 
.text.GetConfigPDVeloci 0x9d00f5ec           0x8c         140   
.text.channelToCounterG 0x9d00f678           0x88         136   
.text.SetChanVal        0x9d00f700           0x88         136   
.text.printByteArray    0x9d00f788           0x88         136   
.text.waitForTxToBeFree 0x9d00f810           0x88         136   
.text.getAdcRaw         0x9d00f898           0x88         136   
.text.configAdvancedAsy 0x9d00f920           0x84         132   
.text.pushDummy         0x9d00f9a4           0x84         132   
.text.PushADCval        0x9d00fa28           0x84         132   
.text.GetSerialStream   0x9d00faac           0x84         132   
.text.GetLockCode       0x9d00fb30           0x84         132   
.text.GetName           0x9d00fbb4           0x84         132   
.text.IsRegulated       0x9d00fc38           0x84         132   
.rodata                 0x9d00fcbc           0x84         132  Read-only const 
.text.InitilizePidContr 0x9d00fd40           0x84         132   
.text.USBCtrlTrfOutHand 0x9d00fdc4           0x84         132   
.text.Pic32UARTSetBaud  0x9d00fe48           0x84         132   
.text.ConfigPDVelovity  0x9d00fecc           0x84         132   
.rodata                 0x9d00ff50           0x80         128  Read-only const 
.text.PushCounterChange 0x9d00ffd0           0x80         128   
.text._rpc              0x9d010050           0x80         128   
.rodata                 0x9d0100d0           0x80         128  Read-only const 
.text.UARTEnable        0x9d010150           0x80         128   
.text.GetAllChanelValue 0x9d0101d0           0x7c         124   
.text.DownstreamPowerCh 0x9d01024c           0x7c         124   
.rodata                 0x9d0102c8           0x7c         124  Read-only const 
.text.FifoAddPacket     0x9d010344           0x7c         124   
.text.calcCenter        0x9d0103c0           0x7c         124   
.text.getsUSBUSART      0x9d01043c           0x7c         124   
.text.bcsIoAsyncEventCa 0x9d0104b8           0x78         120   
.text.printValues       0x9d010530           0x78         120   
.text.configAdvancedAsy 0x9d0105a8           0x78         120   
.text.PushDIval         0x9d010620           0x78         120   
.text.GetChannelValueCo 0x9d010698           0x78         120   
.text.SetName           0x9d010710           0x78         120   
.text.SetLockCode       0x9d010788           0x78         120   
.text.initCoProcCom     0x9d010800           0x78         120   
.text.configPin23Int    0x9d010878           0x78         120   
.text.SetAllChanelValue 0x9d0108f0           0x78         120   
.text.FifoAddByte       0x9d010968           0x78         120   
.text.SoftReset         0x9d0109e0           0x78         120   
.text.POWER             0x9d010a58           0x74         116   
.text.InitSPI           0x9d010acc           0x74         116   
.text.GetAllChanelValue 0x9d010b40           0x74         116   
.text.printFiFoState    0x9d010bb4           0x74         116   
.text.usb_Buffer_Update 0x9d010c28           0x74         116   
.text.GetChanelValueFro 0x9d010c9c           0x70         112   
.text.initCoProcUART    0x9d010d0c           0x70         112   
.text.InitCounterPins   0x9d010d7c           0x70         112   
.text.printfDEBUG_FL    0x9d010dec           0x70         112   
.text.USBPrepareForNext 0x9d010e5c           0x70         112   
.text.printAsyncType    0x9d010ecc           0x6c         108   
.text.PushAllAsync      0x9d010f38           0x6c         108   
.text.setPIDConstants   0x9d010fa4           0x6c         108   
.text.printModes        0x9d011010           0x68         104   
.text.Get_HAL_Byte_Coun 0x9d011078           0x68         104   
.text.USBStallHandler   0x9d0110e0           0x64         100   
.text.checkCalibration  0x9d011144           0x64         100   
.text.isPIDArrivedAtSet 0x9d0111a8           0x60          96   
.text.TickInit          0x9d011208           0x60          96   
.text.putrsUSBUSART     0x9d011268           0x60          96   
.text.OpenSPI2          0x9d0112c8           0x60          96   
.text.resetPositionMine 0x9d011328           0x5c          92   
.text.ConfigureChannelH 0x9d011384           0x5c          92   
.text.get_neuronRobotic 0x9d0113e0           0x5c          92   
.text.bcsPidDypidProces 0x9d01143c           0x5c          92   
.text.buttonCheck       0x9d011498           0x5c          92   
.text.putsUSBUSART      0x9d0114f4           0x5c          92   
.text.UARTSetDataRate   0x9d011550           0x5c          92   
.text.configAdvancedAsy 0x9d0115ac           0x58          88   
.text.configAdvancedAsy 0x9d011604           0x58          88   
.text.GetDigitalValFrom 0x9d01165c           0x58          88   
.text.LoadDefaultValues 0x9d0116b4           0x58          88   
.text.PushCoProcAsync   0x9d01170c           0x58          88   
.rodata                 0x9d011764           0x58          88  Read-only const 
.text.printfDEBUG_INT   0x9d0117bc           0x58          88   
.text.FifoGetByteStream 0x9d011814           0x58          88   
.rodata                 0x9d01186c           0x58          88  Read-only const 
.text.USBCtrlTrfSetupHa 0x9d0118c4           0x58          88   
.text.CDCInitEP         0x9d01191c           0x58          88   
.text.INTEnable         0x9d011974           0x58          88   
.text.ConfigDyPID       0x9d0119cc           0x54          84   
.text.InitPinStates     0x9d011a20           0x54          84   
.rodata                 0x9d011a74           0x54          84  Read-only const 
.text.GetPICUSBFifo     0x9d011ac8           0x54          84   
.text.USBConfigureEndpo 0x9d011b1c           0x54          84   
.text.Get_HAL_Packet    0x9d011b70           0x54          84   
.text.getFunctionList   0x9d011bc4           0x50          80   
.text.UpstreamPushPower 0x9d011c14           0x50          80   
.text.setCoProcBrownOut 0x9d011c64           0x50          80   
.rodata                 0x9d011cb4           0x50          80  Read-only const 
.text.bcsSafeProcessor_ 0x9d011d04           0x50          80   
.text.bcsSafeProcessor_ 0x9d011d54           0x50          80   
.text.FifoReadByteStrea 0x9d011da4           0x50          80   
.text.SetPICUSBFifo     0x9d011df4           0x50          80   
.text.usb_CDC_Serial_In 0x9d011e44           0x50          80   
.text.FlashLoad         0x9d011e94           0x50          80   
.text.putUSBUSART       0x9d011ee4           0x50          80   
.text.GetChannelMode    0x9d011f34           0x4c          76   
.text.clearPPM          0x9d011f80           0x4c          76   
.text.MyServer          0x9d011fcc           0x4c          76   
.text.ultoaMINE         0x9d012018           0x4c          76   
.text.USBGetArray       0x9d012064           0x4c          76   
.text.AbstractSetChanne 0x9d0120b0           0x48          72   
.rodata                 0x9d0120f8           0x90         144  Read-only const 
.text.runDyIOMain       0x9d012188           0x48          72   
.text.READY             0x9d0121d0           0x48          72   
.text.ERR               0x9d012218           0x48          72   
.rodata                 0x9d012260           0x48          72  Read-only const 
.text.incrementHistores 0x9d0122a8           0x48          72   
.text.decrementHistores 0x9d0122f0           0x48          72   
.text                   0x9d012338           0x48          72  App's exec code 
.rodata                 0x9d012380           0x48          72  Read-only const 
.text.printMode         0x9d0123c8           0x44          68   
.text.GetAllChannelMode 0x9d01240c           0x44          68   
.text.initAdvancedAsync 0x9d012450           0x44          68   
.text.LoadGACM          0x9d012494           0x44          68   
.text.SyncModes         0x9d0124d8           0x44          68   
.text.getDyIOVoltage    0x9d01251c           0x44          68   
.text.SendPacketToSPI   0x9d012560           0x44          68   
.text.GetPPMDataToArray 0x9d0125a4           0x44          68   
.text.addRpcToNamespace 0x9d0125e8           0x44          68   
.text.LoadCorePacket    0x9d01262c           0x44          68   
.text.flush             0x9d012670           0x44          68   
.text.InitLEDS          0x9d0126b4           0x44          68   
.text.GetBowlerPacket_a 0x9d0126f8           0x44          68   
.text.FlashGetMac       0x9d01273c           0x44          68   
.rodata                 0x9d012780           0x44          68  Read-only const 
.text.printConfiguratio 0x9d0127c4           0x40          64   
.text.pushPPMPacket     0x9d012804           0x40          64   
.text.dealWithAsyncPack 0x9d012844           0x40          64   
.text.addNamespaceToLis 0x9d012884           0x40          64   
.text.FifoGetPacket     0x9d0128c4           0x40          64   
.text.PORTSetPinsDigita 0x9d012904           0x40          64   
.text.UARTGetDataRate   0x9d012944           0x40          64   
.text.IsAsync           0x9d012984           0x3c          60   
.text.setAsync          0x9d0129c0           0x3c          60   
.text.isAnalog          0x9d0129fc           0x3c          60   
.rodata                 0x9d012a38           0x3c          60  Read-only const 
.text.setColor          0x9d012a74           0x3c          60   
.text.getByte           0x9d012ab0           0x3c          60   
.text.bound             0x9d012aec           0x3c          60   
.text.isPIDInterpolatin 0x9d012b28           0x3c          60   
.text.TickGetMS         0x9d012b64           0x3c          60   
.text.Write32UART2      0x9d012ba0           0x3c          60   
.text.Write32UART1      0x9d012bdc           0x3c          60   
.text.INTSetVectorPrior 0x9d012c18           0x3c          60   
.text.INTSetVectorSubPr 0x9d012c54           0x3c          60   
.text.UARTConfigure     0x9d012c90           0x3c          60   
.text.UARTSetAddress    0x9d012ccc           0x3c          60   
.text.ReleaseAVRReset   0x9d012d08           0x38          56   
.text.writeAVRTempFlash 0x9d012d40           0x38          56   
.text.writeAVRTempFlash 0x9d012d78           0x38          56   
.text.GetCounterOutput  0x9d012db0           0x38          56   
.rodata                 0x9d012de8           0x38          56  Read-only const 
.text.getBcsCoreNamespa 0x9d012e20           0x38          56   
.text.InitByteFifo      0x9d012e58           0x38          56   
.text.GetPIDPosition    0x9d012e90           0x38          56   
.text.RunPIDComs        0x9d012ec8           0x38          56   
.text.USBEnableEndpoint 0x9d012f00           0x38          56   
.text.FlashSetMac       0x9d012f38           0x38          56   
.text.getBcsRpcNamespac 0x9d012f70           0x38          56   
.text.UARTWatchForAddre 0x9d012fa8           0x38          56   
.text.getBcsIoDataTable 0x9d012fe0           0x34          52   
.text.SetAllChannelMode 0x9d013014           0x34          52   
.text.get_bcsIoSetmodeN 0x9d013048           0x34          52   
.text.SyncDataTable     0x9d01307c           0x34          52   
.text.SetCounterInput   0x9d0130b0           0x34          52   
.text.GetByteSPI        0x9d0130e4           0x34          52   
.text.get_bcsSafeNamesp 0x9d013118           0x34          52   
.text.bcsPidDypidProces 0x9d01314c           0x34          52   
.text.bcsPidDypidAsyncE 0x9d013180           0x34          52   
.text.get_bcsPidDypidNa 0x9d0131b4           0x34          52   
.text.InitPacketFifo    0x9d0131e8           0x34          52   
.text.FlashSetFwRev     0x9d01321c           0x34          52   
.text.FlashSetBlRev     0x9d013250           0x34          52   
.text.getUpperPidHistor 0x9d013284           0x34          52   
.text.getLowerPidHistor 0x9d0132b8           0x34          52   
.text.getPidStop        0x9d0132ec           0x34          52   
.text.INTEnableSystemMu 0x9d013320           0x34          52   
.text.NVMWriteWord      0x9d013354           0x34          52   
.text.GetIOChannelCount 0x9d013388           0x30          48   
.text.onPidConfigureMin 0x9d0133b8           0x30          48   
.text.HoldAVRReset      0x9d0133e8           0x30          48   
.text.InitializeDyIODat 0x9d013418           0x30          48   
.text._png              0x9d013448           0x30          48   
.text.USBCBSendResume   0x9d013478           0x30          48   
.text.INTGetVectorPrior 0x9d0134a8           0x30          48   
.text.INTGetVectorSubPr 0x9d0134d8           0x30          48   
.text.AbstractSetAllCha 0x9d013508           0x2c          44   
.rodata                 0x9d013534           0x2c          44  Read-only const 
.text.GetSerialRxData   0x9d013560           0x2c          44   
.text.GetCounterByGroup 0x9d01358c           0x2c          44   
.text.getRpcByID        0x9d0135b8           0x2c          44   
.text.getNamespaceAtInd 0x9d0135e4           0x2c          44   
.text.sendToStreamMine  0x9d013610           0x2c          44   
.text.getPidGroupDataTa 0x9d01363c           0x2c          44   
.text.GetPIDCalibrateio 0x9d013668           0x2c          44   
.text.USBWakeFromSuspen 0x9d013694           0x2c          44   
.text.Send_HAL_Packet   0x9d0136c0           0x2c          44   
.text.DelayMs           0x9d0136ec           0x2c          44   
.text.SetFlashData      0x9d013718           0x2c          44   
.text.newByteUartHal    0x9d013744           0x2c          44   
.text.ProcessPIDPacket  0x9d013770           0x2c          44   
.text.WriteUSBSerialNum 0x9d01379c           0x2c          44   
.text.WriteUSBDeviceStr 0x9d0137c8           0x2c          44   
.text.RunVel            0x9d0137f4           0x2c          44   
.text.INTClearFlag      0x9d013820           0x2c          44   
.text.INTSetFlag        0x9d01384c           0x2c          44   
.text.INTGetFlag        0x9d013878           0x2c          44   
.text.INTGetEnable      0x9d0138a4           0x2c          44   
.text.NVMErasePage      0x9d0138d0           0x2c          44   
.text.GetChannelModeFro 0x9d0138fc           0x28          40   
.text.GetAsyncFromPacke 0x9d013924           0x28          40   
.text.SetAsyncFromPacke 0x9d01394c           0x28          40   
.text.GetValFromAsync   0x9d013974           0x28          40   
.text.GetConfigDyPID    0x9d01399c           0x28          40   
.text.trigerPIDLimit    0x9d0139c4           0x28          40   
.text.getCmd            0x9d0139ec           0x28          40   
.text.PowerCycleAVR     0x9d013a14           0x28          40   
.text.getLastPacketTime 0x9d013a3c           0x28          40   
.text.okToprint         0x9d013a64           0x28          40   
.text.printfDEBUG       0x9d013a8c           0x28          40   
.text.CheckAddress      0x9d013ab4           0x28          40   
.text.getPidVelocityDat 0x9d013adc           0x28          40   
.text.USBSuspend        0x9d013b04           0x28          40   
.text.FlashSetName      0x9d013b2c           0x28          40   
.text.USER_USB_CALLBACK 0x9d013b54           0x28          40   
.text.PORTClearBits     0x9d013b7c           0x28          40   
.text.PORTSetBits       0x9d013ba4           0x28          40   
.text.UARTSetFifoMode   0x9d013bcc           0x28          40   
.text.UARTSetLineContro 0x9d013bf4           0x28          40   
.text.SendToSerialPassT 0x9d013c1c           0x24          36   
.text.FixPacket         0x9d013c40           0x24          36   
.text.PutBowlerPacket   0x9d013c64           0x24          36   
.text.RunNamespaceAsync 0x9d013c88           0x24          36   
.text.calcByteCount     0x9d013cac           0x24          36   
.text.FifoGetPacketCoun 0x9d013cd0           0x24          36   
.text.SetPIDCalibrateio 0x9d013cf4           0x24          36   
.text.ClearPID          0x9d013d18           0x24          36   
.text.SetColor          0x9d013d3c           0x24          36   
.text.FlashGetName      0x9d013d60           0x24          36   
.text.Pic32UARTGetArray 0x9d013d84           0x24          36   
.text.Pic32UARTPutArray 0x9d013da8           0x24          36   
.rodata                 0x9d013dcc           0x24          36  Read-only const 
.text.SetValFromAsync   0x9d013df0           0x20          32   
.text.writeLowFuse      0x9d013e10           0x20          32   
.text.writeHighFuse     0x9d013e30           0x20          32   
.text.writeExtendedFuse 0x9d013e50           0x20          32   
.text.GetRail1Voltage   0x9d013e70           0x20          32   
.text.GetRail0Voltage   0x9d013e90           0x20          32   
.text.GetRawVoltagePost 0x9d013eb0           0x20          32   
.text.GetRawVoltage     0x9d013ed0           0x20          32   
.text.setEEBrownOutDete 0x9d013ef0           0x20          32   
.text.getEEBrownOutDete 0x9d013f10           0x20          32   
.rodata                 0x9d013f30           0x20          32  Read-only const 
.text.getNumberOfRpcs   0x9d013f50           0x20          32   
.text.Bowler_Init       0x9d013f70           0x20          32   
.text.sendToStreamLocal 0x9d013f90           0x20          32   
.text.printfDEBUG_BYTE  0x9d013fb0           0x20          32   
.text.printfDEBUG_NNL   0x9d013fd0           0x20          32   
.text.get32bit          0x9d013ff0           0x20          32   
.text.getAdcVoltage     0x9d014010           0x20          32   
.text.DelayPreServo     0x9d014030           0x20          32   
.text.FlashGetBlRev     0x9d014050           0x20          32   
.text.FlashGetFwRev     0x9d014070           0x20          32   
.text.MyTickConvertToMi 0x9d014090           0x20          32   
.text.getcSPI2          0x9d0140b0           0x20          32   
.text.InitilizeBcsIoSet 0x9d0140d0           0x1c          28   
.text.fail              0x9d0140ec           0x1c          28   
.text.addCoProcByte     0x9d014108           0x1c          28   
.text.uartErrorCheck    0x9d014124           0x1c          28   
.text.RunCounter        0x9d014140           0x1c          28   
.text.GetCounterByChann 0x9d01415c           0x1c          28   
.rodata                 0x9d014178           0x1c          28  Read-only const 
.text.getNumberOfNamesp 0x9d014194           0x1c          28   
.text.Bowler_Server_Sta 0x9d0141b0           0x1c          28   
.text.sendStr           0x9d0141cc           0x1c          28   
.text.clearByteFifo     0x9d0141e8           0x1c          28   
.text.GetRPCValue       0x9d014204           0x1c          28   
.text.copyPacket        0x9d014220           0x1c          28   
.text.GetNumUSBBytes    0x9d01423c           0x1c          28   
.text.USBDeviceDetach   0x9d014258           0x1c          28   
.text.SetGreen          0x9d014274           0x1c          28   
.text.SetRed            0x9d014290           0x1c          28   
.text.SetBlue           0x9d0142ac           0x1c          28   
.text.Delay1us          0x9d0142c8           0x1c          28   
.text.processRunAutoCal 0x9d0142e4           0x1c          28   
.text.INTRestoreInterru 0x9d014300           0x1c          28   
.text.getPacket         0x9d01431c           0x18          24   
.text.getStream         0x9d014334           0x18          24   
.text.getRpcByIndex     0x9d01434c           0x18          24   
.text.CalcCRC           0x9d014364           0x18          24   
.text.Bytes2Int32       0x9d01437c           0x18          24   
.text.set32bit          0x9d014394           0x18          24   
.text.SetControllerMath 0x9d0143ac           0x18          24   
.text.InitAbsPID        0x9d0143c4           0x18          24   
.text.RunPID            0x9d0143dc           0x18          24   
.text.Delay10us         0x9d0143f4           0x18          24   
.text.FlashSwitchMemory 0x9d01440c           0x18          24   
.text.CalcBaud          0x9d014424           0x18          24   
.text.TickGet           0x9d01443c           0x18          24   
.rodata                 0x9d014454           0x18          24  Read-only const 
.text.USBUSARTRxIsReady 0x9d01446c           0x18          24   
.text                   0x9d014484           0x18          24  App's exec code 
.text.getPinsScheduler  0x9d01449c           0x14          20   
.text.setAsyncLocal     0x9d0144b0           0x14          20   
.text.checkPIDLimitEven 0x9d0144c4           0x14          20   
.text.clearToSend       0x9d0144d8           0x14          20   
.text.calc              0x9d0144ec           0x14          20   
.text.getCounterIntChan 0x9d014500           0x14          20   
.text.getCounterDirChan 0x9d014514           0x14          20   
.text.getCounterHomeCha 0x9d014528           0x14          20   
.text.writePPMLink      0x9d01453c           0x14          20   
.text.readPPMLink       0x9d014550           0x14          20   
.text.setBrownOutDetect 0x9d014564           0x14          20   
.text.setPrintLevel     0x9d014578           0x14          20   
.text.CheckCRC          0x9d01458c           0x14          20   
.text.SetPIDEnabled     0x9d0145a0           0x14          20   
.text.SetPID            0x9d0145b4           0x14          20   
.text.EnableDebugTermin 0x9d0145c8           0x14          20   
.text.Pic32Get_UART_Byt 0x9d0145dc           0x14          20   
.text.mySetLineCodingHa 0x9d0145f0           0x14          20   
.text                   0x9d014604           0x10          16  App's exec code 
.rodata                 0x9d014614           0x10          16  Read-only const 
.text.asyncCallback     0x9d014624           0x10          16   
.text.isAscii           0x9d014634           0x10          16   
.text.setHeartBeatState 0x9d014644           0x10          16   
.text.getHeartBeatTime  0x9d014654           0x10          16   
.text.main              0x9d014664           0x10          16   
.text.getNumBytes       0x9d014674           0x10          16   
.text.setPrintStream    0x9d014684           0x10          16   
.text.GetLowNib         0x9d014694           0x10          16   
.text.GetHighNib        0x9d0146a4           0x10          16   
.text.FifoGetPacketSpac 0x9d0146b4           0x10          16   
.text.SetCRC            0x9d0146c4           0x10          16   
.text.get16bit          0x9d0146d4           0x10          16   
.text.pidAsyncEventCall 0x9d0146e4           0x10          16   
.text.OnPidConfigure    0x9d0146f4           0x10          16   
.text.isPidEnabled      0x9d014704           0x10          16   
.text.ZeroPID           0x9d014714           0x10          16   
.text.GotUSBData        0x9d014724           0x10          16   
.text.disableSerialComs 0x9d014734           0x10          16   
.text.putStream         0x9d014744           0x10          16   
.text.GetPacketUSB      0x9d014754           0x10          16   
.text.GotUARTData       0x9d014764           0x10          16   
.rodata                 0x9d014774           0x10          16  Read-only const 
.text.mystrlen          0x9d014784            0xc          12   
.rodata                 0x9d014790            0xc          12  Read-only const 
.text.unlockServos      0x9d01479c            0xc          12   
.text.lockServos        0x9d0147a8            0xc          12   
.text.isSPI             0x9d0147b4            0xc          12   
.text.UpdateAVRLED      0x9d0147c0            0xc          12   
.text.GetBowlerPacketDe 0x9d0147cc            0xc          12   
.text.GetBowlerPacket   0x9d0147d8            0xc          12   
.text.ReadFirstByte     0x9d0147e4            0xc          12   
.text.FifoGetByteCount  0x9d0147f0            0xc          12   
.text.set16bit          0x9d0147fc            0xc          12   
.text.forceOpenUSB      0x9d014808            0xc          12   
.text.getMs             0x9d014814            0xc          12   
.text.putCharDebug      0x9d014820            0xc          12   
.text.startScheduler    0x9d01482c            0xc          12   
.text.SendPacketUSB     0x9d014838            0xc          12   
.text.Get_USB_Byte_Coun 0x9d014844            0xc          12   
.text.Pic32UART_HAL_INI 0x9d014850            0xc          12   
.text.USBCBCheckOtherRe 0x9d01485c            0xc          12   
.text.USBCBInitEP       0x9d014868            0xc          12   
.text.SetUSB_VID_PID    0x9d014874            0xc          12   
.text._bootstrap_except 0x9d014880            0xc          12   
.text.GetNumberOfIOChan 0x9d01488c            0x8           8   
.text.isProcessing      0x9d014894            0x8           8   
.text.isLocked          0x9d01489c            0x8           8   
.text.isActive          0x9d0148a4            0x8           8   
.text.getBrownOutDetect 0x9d0148ac            0x8           8   
.rodata                 0x9d0148b4            0x8           8  Read-only const 
.text.getHeartBeatLock  0x9d0148bc            0x8           8   
.rodata                 0x9d0148c4            0x8           8  Read-only const 
.text.getPrintLevel     0x9d0148cc            0x8           8   
.text.SetPacketLegnth   0x9d0148d4            0x8           8   
.text.GetPacketLegnth   0x9d0148dc            0x8           8   
.text.set8bit           0x9d0148e4            0x8           8   
.text.getNumberOfPidCha 0x9d0148ec            0x8           8   
.text.isUSBActave       0x9d0148f4            0x8           8   
.text.GetPICUARTFifo    0x9d0148fc            0x8           8   
.text.SetPICUARTFifo    0x9d014904            0x8           8   
.text.TickGetUpper      0x9d01490c            0x8           8   
.text.TickGetLower      0x9d014914            0x8           8   
.text._on_reset         0x9d01491c            0x8           8   
.text._on_bootstrap     0x9d014924            0x8           8   
.text.INTEnableInterrup 0x9d01492c            0x8           8   
.text.INTDisableInterru 0x9d014934            0x8           8   
.rodata                 0x9d01493c            0x8           8  Read-only const 
.text.bcsIoSetmodeAsync 0x9d014944            0x4           4   
.text.CartesianControll 0x9d014948            0x4           4   
.text.CartesianControll 0x9d01494c            0x4           4   
.text.CartesianControll 0x9d014950            0x4           4   
.text.CartesianControll 0x9d014954            0x4           4   
.text.CartesianControll 0x9d014958            0x4           4   
.text.SetNewConfigurati 0x9d01495c            0x4           4   
.text.ConfigChannel     0x9d014960            0x4           4   
.text.bcsSafeAsyncEvent 0x9d014964            0x4           4   
.text.neuronRoboticsDyI 0x9d014968            0x4           4   
.text.lockFifo          0x9d01496c            0x4           4   
.text.unLockFifo        0x9d014970            0x4           4   
.text.DataLegnthFromPac 0x9d014974            0x4           4   
.text.DelayIncServo     0x9d014978            0x4           4   
.text.USBCBSuspend      0x9d01497c            0x4           4   
.text.USBCBWakeFromSusp 0x9d014980            0x4           4   
.text.USBCB_SOF_Handler 0x9d014984            0x4           4   
.text.USBCBErrorHandler 0x9d014988            0x4           4   
.text.USBCBStdSetDscHan 0x9d01498c            0x4           4   
      Total kseg0_program_mem used  :     0x14988       84360  64.4% of 0x20000

kseg0 Boot-Memory Usage
section                    address  length [bytes]      (dec)  Description
-------                 ----------  -------------------------  -----------
         Total kseg0_boot_mem used  :           0           0  <1% of 0x970

Exception-Memory Usage 
section                    address  length [bytes]      (dec)  Description
-------                 ----------  -------------------------  -----------
.app_excpt              0x9fc01180           0x10          16  General-Exception 
.vector_4               0x9fc01280            0x8           8  Interrupt Vector 4 
.vector_7               0x9fc012e0            0x8           8  Interrupt Vector 7 
.vector_11              0x9fc01360            0x8           8  Interrupt Vector 11 
.vector_12              0x9fc01380            0x8           8  Interrupt Vector 12 
.vector_15              0x9fc013e0            0x8           8  Interrupt Vector 15 
.vector_19              0x9fc01460            0x8           8  Interrupt Vector 19 
.vector_24              0x9fc01500            0x8           8  Interrupt Vector 24 
.vector_32              0x9fc01600            0x8           8  Interrupt Vector 32 
.vector_45              0x9fc017a0            0x8           8  Interrupt Vector 45 
          Total exception_mem used  :        0x58          88  2.1% of 0x1000

kseg1 Boot-Memory Usage
section                    address  length [bytes]      (dec)  Description
-------                 ----------  -------------------------  -----------
.reset                  0xbfc00000          0x1f4         500  Reset handler 
.bev_excpt              0xbfc00380           0x10          16  BEV-Exception 
         Total kseg1_boot_mem used  :       0x204         516  44.2% of 0x490
        --------------------------------------------------------------------------
         Total Program Memory used  :     0x14be4       84964  61.2% of 0x21e00
        --------------------------------------------------------------------------


kseg1 Data-Memory Usage
section                    address  length [bytes]      (dec)  Description
-------                 ----------  -------------------------  -----------
.sdata                  0xa0000000          0x19c         412  Small init data 
.sbss                   0xa000019c          0x1dc         476  Small uninit data 
.bss.TxBuffer           0xa0000378           0x44          68   
.data.configDescriptor1 0xa00003bc           0x44          68   
.bss                    0xa0000400          0x3f8        1016  Uninitialized data 
.bss.pidGroups          0xa00007f8          0x4a8        1192   
.bss.DATA               0xa0000ca0          0x330         816   
.bss.privateRXUSB       0xa0000fd0          0x214         532   
.bss.privateRXUART      0xa00011e4          0x214         532   
.bss.packetTemp         0xa00013f8          0x218         536   
.bss.privateSerialRX    0xa0001610          0x10c         268   
.bss.privateSerialTX    0xa000171c          0x10c         268   
.bss.downstream         0xa0001828          0x10c         268   
.bss.privateRX          0xa0001934          0x10c         268   
.bss.asyncPacket        0xa0001a40          0x10c         268   
.bss.Packet             0xa0001b4c          0x10c         268   
.bss.RxTmpBuffer        0xa0001c58          0x10c         268   
.bss.vel                0xa0001d64           0xc0         192   
.bss.down               0xa0001e24           0xa8         168   
.bss.limits             0xa0001ecc           0xa0         160   
.bss.pidEEPRomVal       0xa0001f6c           0xa0         160   
.bss.force              0xa000200c           0x40          64   
.data.sd001             0xa000204c           0x34          52   
.data.sd002             0xa0002080           0x34          52   
.data.sd003             0xa00020b4           0x34          52   
.bss.dyPid              0xa00020e8           0x28          40   
.data.bcsIo_gchm_g      0xa0002110           0x1c          28   
.data.bcsIo_gacm_g      0xa000212c           0x1c          28   
.data.bcsIo_gchv_g      0xa0002148           0x1c          28   
.data.bcsIo_gacv_g      0xa0002164           0x1c          28   
.data.bcsIo_asyn_g      0xa0002180           0x1c          28   
.data.bcsIo_gchc_g      0xa000219c           0x1c          28   
.data.bcsIo_gcml_g      0xa00021b8           0x1c          28   
.data.bcsIo_schv_p      0xa00021d4           0x1c          28   
.data.bcsIo_sacv_p      0xa00021f0           0x1c          28   
.data.bcsIo_asyn_p      0xa000220c           0x1c          28   
.data.bcsIo_cchn_c      0xa0002228           0x1c          28   
.data.bcsIo_schv_c      0xa0002244           0x1c          28   
.data.bcsIo_asyn_c      0xa0002260           0x1c          28   
.data.bcsIoSetmode_schm 0xa000227c           0x1c          28   
.data.bcsIoSetmode_sacm 0xa0002298           0x1c          28   
.data.bcsSafe_safe_g    0xa00022b4           0x1c          28   
.data.bcsSafe_safe_p    0xa00022d0           0x1c          28   
.data.dyioNSName        0xa00022ec           0x1c          28   
.data.neuronRoboticsDyI 0xa0002308           0x1c          28   
.data.neuronRoboticsDyI 0xa0002324           0x1c          28   
.data.neuronRoboticsDyI 0xa0002340           0x1c          28   
.data.neuronRoboticsDyI 0xa000235c           0x1c          28   
.data.neuronRoboticsDyI 0xa0002378           0x1c          28   
.data.neuronRoboticsDyI 0xa0002394           0x1c          28   
.data.bcsPidDypid_dpid_ 0xa00023b0           0x1c          28   
.data.bcsPidDypid_dpid_ 0xa00023cc           0x1c          28   
.data.bcsCore_png       0xa00023e8           0x1c          28   
.data.bcsCore_nms       0xa0002404           0x1c          28   
.data.bcsPid_APID       0xa0002420           0x1c          28   
.data.bcsPid__PID       0xa000243c           0x1c          28   
.data.bcsPid_CPID       0xa0002458           0x1c          28   
.data.bcsPid_CPDV       0xa0002474           0x1c          28   
.data.bcsPid_GPDC       0xa0002490           0x1c          28   
.data.bcsPid_APID_p     0xa00024ac           0x1c          28   
.data.bcsPid__PID_p     0xa00024c8           0x1c          28   
.data.bcsPid__VPD       0xa00024e4           0x1c          28   
.data.bcsPid_RPID       0xa0002500           0x1c          28   
.data.bcsPid_KPID       0xa000251c           0x1c          28   
.data.bcsPid_CPID_c     0xa0002538           0x1c          28   
.data.bcsPid_CPDV_c     0xa0002554           0x1c          28   
.data.bcsPid_ACAL       0xa0002570           0x1c          28   
.data.bcsRpc__RPC       0xa000258c           0x1c          28   
.data.bcsRpc_ARGS       0xa00025a8           0x1c          28   
.data.setModeNSName     0xa00025c4           0x18          24   
.bss.storeRx            0xa00025dc           0x18          24   
.bss.storeTx            0xa00025f4           0x18          24   
.bss.store              0xa000260c           0x18          24   
.bss.ppmStart           0xa0002624           0x18          24   
.data.ppmDataTmp        0xa000263c           0x18          24   
.data.dypidNSName       0xa0002654           0x18          24   
.bss.storeUSB           0xa000266c           0x18          24   
.bss.storeUART          0xa0002684           0x18          24   
.data.safeNSName        0xa000269c           0x14          20   
.data.device_dsc        0xa00026b0           0x14          20   
.data.ioNSName          0xa00026c4           0x10          16   
.data.bcsIo             0xa00026d4           0x10          16   
.data.bcsIoSetmode      0xa00026e4           0x10          16   
.data.bcsSafe           0xa00026f4           0x10          16   
.data.neuronRoboticsDyI 0xa0002704           0x10          16   
.data.bcsPidDypid       0xa0002714           0x10          16   
.data.bcsCore           0xa0002724           0x10          16   
.data.bcsPid            0xa0002734           0x10          16   
.data.__compound_litera 0xa0002744           0x10          16   
.data.__compound_litera 0xa0002754           0x10          16   
.data.bcsRpc            0xa0002764           0x10          16   
.data.USB_SD_Ptr        0xa0002774           0x10          16   
.data.pinmap            0xa0002784            0xc          12   
         Total kseg1_data_mem used  :      0x2790       10128  30.9% of 0x8000
        --------------------------------------------------------------------------
            Total Data Memory used  :      0x2790       10128  30.9% of 0x8000
        --------------------------------------------------------------------------


Dynamic Data-Memory Reservation
section                    address  length [bytes]      (dec)  Description
-------                 ----------  -------------------------  -----------
heap                    0xa0002798              0           0  Reserved for heap 
stack                   0xa00027b0         0x5848       22600  Reserved for stack 

        --------------------------------------------------------------------------

Discarded input sections

 .reginfo       0x00000000       0x18 /home/opt/microchip/xc32/v1.00/bin/../lib/gcc/pic32mx/4.5.1/../../../../pic32mx/lib/crt0.o
 .pdr           0x00000000       0xa0 /home/opt/microchip/xc32/v1.00/bin/../lib/gcc/pic32mx/4.5.1/../../../../pic32mx/lib/crt0.o
 .reginfo       0x00000000       0x18 build/default/production/_ext/108654538/PinFunctions.o
 .pdr           0x00000000       0x20 build/default/production/_ext/108654538/PinFunctions.o
 .reginfo       0x00000000       0x18 build/default/production/_ext/805493626/Debug_DyIO.o
 .pdr           0x00000000       0x40 build/default/production/_ext/805493626/Debug_DyIO.o
 .reginfo       0x00000000       0x18 build/default/production/_ext/805493626/Namespace_bcs_io.o
 .pdr           0x00000000       0x40 build/default/production/_ext/805493626/Namespace_bcs_io.o
 .reginfo       0x00000000       0x18 build/default/production/_ext/805493626/Abstract_bcs_io.o
 .pdr           0x00000000      0x2a0 build/default/production/_ext/805493626/Abstract_bcs_io.o
 .reginfo       0x00000000       0x18 build/default/production/_ext/805493626/Bcs_IO_AdvancedAsync.o
 .pdr           0x00000000      0x200 build/default/production/_ext/805493626/Bcs_IO_AdvancedAsync.o
 .reginfo       0x00000000       0x18 build/default/production/_ext/1051272628/Abstract_bcs_io_setmode.o
 .pdr           0x00000000       0xa0 build/default/production/_ext/1051272628/Abstract_bcs_io_setmode.o
 .reginfo       0x00000000       0x18 build/default/production/_ext/1051272628/Namespace_bcs_io_setmode.o
 .pdr           0x00000000       0x40 build/default/production/_ext/1051272628/Namespace_bcs_io_setmode.o
 .reginfo       0x00000000       0x18 build/default/production/_ext/1825615050/CartesianController.o
 .pdr           0x00000000       0xa0 build/default/production/_ext/1825615050/CartesianController.o
 .reginfo       0x00000000       0x18 build/default/production/_ext/1825615050/PID.o
 .pdr           0x00000000      0x1a0 build/default/production/_ext/1825615050/PID.o
 .reginfo       0x00000000       0x18 build/default/production/_ext/1978776677/UpstreamPackets.o
 .pdr           0x00000000      0x100 build/default/production/_ext/1978776677/UpstreamPackets.o
 .reginfo       0x00000000       0x18 build/default/production/_ext/1978776677/InitializationCallbacks.o
 .pdr           0x00000000       0x40 build/default/production/_ext/1978776677/InitializationCallbacks.o
 .reginfo       0x00000000       0x18 build/default/production/_ext/1978776677/DownStreamPackets.o
 .pdr           0x00000000      0x2a0 build/default/production/_ext/1978776677/DownStreamPackets.o
 .reginfo       0x00000000       0x18 build/default/production/_ext/1978776677/AsyncManager.o
 .pdr           0x00000000       0x60 build/default/production/_ext/1978776677/AsyncManager.o
 .reginfo       0x00000000       0x18 build/default/production/_ext/2110062566/UartDMARx.o
 .pdr           0x00000000        0x0 build/default/production/_ext/2110062566/UartDMARx.o
 .reginfo       0x00000000       0x18 build/default/production/_ext/990863823/AVRInterface.o
 .pdr           0x00000000      0x120 build/default/production/_ext/990863823/AVRInterface.o
 .reginfo       0x00000000       0x18 build/default/production/_ext/990863823/Switches.o
 .pdr           0x00000000       0x40 build/default/production/_ext/990863823/Switches.o
 .reginfo       0x00000000       0x18 build/default/production/_ext/990863823/DyIODataTableManager.o
 .pdr           0x00000000       0xa0 build/default/production/_ext/990863823/DyIODataTableManager.o
 .reginfo       0x00000000       0x18 build/default/production/_ext/990863823/CoProcCom.o
 .pdr           0x00000000      0x200 build/default/production/_ext/990863823/CoProcCom.o
 .reginfo       0x00000000       0x18 build/default/production/_ext/990863823/ADC.o
 .pdr           0x00000000      0x180 build/default/production/_ext/990863823/ADC.o
 .reginfo       0x00000000       0x18 build/default/production/_ext/990863823/Counter.o
 .pdr           0x00000000      0x380 build/default/production/_ext/990863823/Counter.o
 .reginfo       0x00000000       0x18 build/default/production/_ext/990863823/EEPROMMannager.o
 .pdr           0x00000000       0xe0 build/default/production/_ext/990863823/EEPROMMannager.o
 .reginfo       0x00000000       0x18 build/default/production/_ext/990863823/SerialPassThrough.o
 .pdr           0x00000000       0x20 build/default/production/_ext/990863823/SerialPassThrough.o
 .reginfo       0x00000000       0x18 build/default/production/_ext/990863823/SPI.o
 .pdr           0x00000000       0xc0 build/default/production/_ext/990863823/SPI.o
 .reginfo       0x00000000       0x18 build/default/production/_ext/990863823/PPMReader.o
 .pdr           0x00000000      0x100 build/default/production/_ext/990863823/PPMReader.o
 .reginfo       0x00000000       0x18 build/default/production/_ext/1020318379/Pin_State.o
 .pdr           0x00000000       0x20 build/default/production/_ext/1020318379/Pin_State.o
 .reginfo       0x00000000       0x18 build/default/production/_ext/1020318379/ChannelConfig.o
 .pdr           0x00000000       0x20 build/default/production/_ext/1020318379/ChannelConfig.o
 .reginfo       0x00000000       0x18 build/default/production/_ext/1020318379/ChannelValues.o
 .pdr           0x00000000       0xc0 build/default/production/_ext/1020318379/ChannelValues.o
 .reginfo       0x00000000       0x18 build/default/production/_ext/1020318379/ChannelMode.o
 .pdr           0x00000000       0x80 build/default/production/_ext/1020318379/ChannelMode.o
 .reginfo       0x00000000       0x18 build/default/production/_ext/1281821416/Abstract_bsc_safe.o
 .pdr           0x00000000        0x0 build/default/production/_ext/1281821416/Abstract_bsc_safe.o
 .reginfo       0x00000000       0x18 build/default/production/_ext/1281821416/Namespace_bcs_safe.o
 .pdr           0x00000000       0x80 build/default/production/_ext/1281821416/Namespace_bcs_safe.o
 .reginfo       0x00000000       0x18 build/default/production/_ext/321196743/Namespace_neuronrobotics_dyio.o
 .pdr           0x00000000      0x120 build/default/production/_ext/321196743/Namespace_neuronrobotics_dyio.o
 .reginfo       0x00000000       0x18 build/default/production/_ext/321196743/Namespace_bcs_pid_dypid.o
 .pdr           0x00000000       0x80 build/default/production/_ext/321196743/Namespace_bcs_pid_dypid.o
 .reginfo       0x00000000       0x18 build/default/production/_ext/1360937237/Main.o
 .pdr           0x00000000       0x20 build/default/production/_ext/1360937237/Main.o
 .reginfo       0x00000000       0x18 build/default/production/_ext/1360937237/DyIOMain.o
 .pdr           0x00000000       0x60 build/default/production/_ext/1360937237/DyIOMain.o
 .reginfo       0x00000000       0x18 ../../../../../c-bowler/firmware/library/NR-Clib/development/c-bowler.X/dist/default/production/c-bowler.X.a(BowlerPacketParser.o)
 .pdr           0x00000000      0x100 ../../../../../c-bowler/firmware/library/NR-Clib/development/c-bowler.X/dist/default/production/c-bowler.X.a(BowlerPacketParser.o)
 .reginfo       0x00000000       0x18 ../../../../../c-bowler/firmware/library/NR-Clib/development/c-bowler.X/dist/default/production/c-bowler.X.a(Namespace_bcs_core.o)
 .pdr           0x00000000      0x160 ../../../../../c-bowler/firmware/library/NR-Clib/development/c-bowler.X/dist/default/production/c-bowler.X.a(Namespace_bcs_core.o)
 .reginfo       0x00000000       0x18 ../../../../../c-bowler/firmware/library/NR-Clib/development/c-bowler.X/dist/default/production/c-bowler.X.a(Bowler_Server.o)
 .pdr           0x00000000       0xc0 ../../../../../c-bowler/firmware/library/NR-Clib/development/c-bowler.X/dist/default/production/c-bowler.X.a(Bowler_Server.o)
 .reginfo       0x00000000       0x18 ../../../../../c-bowler/firmware/library/NR-Clib/development/c-bowler.X/dist/default/production/c-bowler.X.a(Debug.o)
 .pdr           0x00000000      0x260 ../../../../../c-bowler/firmware/library/NR-Clib/development/c-bowler.X/dist/default/production/c-bowler.X.a(Debug.o)
 .reginfo       0x00000000       0x18 ../../../../../c-bowler/firmware/library/NR-Clib/development/c-bowler.X/dist/default/production/c-bowler.X.a(FIFO.o)
 .pdr           0x00000000      0x220 ../../../../../c-bowler/firmware/library/NR-Clib/development/c-bowler.X/dist/default/production/c-bowler.X.a(FIFO.o)
 .reginfo       0x00000000       0x18 ../../../../../c-bowler/firmware/library/NR-Clib/development/c-bowler.X/dist/default/production/c-bowler.X.a(Bowler_Helper.o)
 .pdr           0x00000000      0x280 ../../../../../c-bowler/firmware/library/NR-Clib/development/c-bowler.X/dist/default/production/c-bowler.X.a(Bowler_Helper.o)
 .reginfo       0x00000000       0x18 ../../../../../c-bowler/firmware/library/NR-Clib/development/c-bowler.X/dist/default/production/c-bowler.X.a(Scheduler.o)
 .pdr           0x00000000       0x20 ../../../../../c-bowler/firmware/library/NR-Clib/development/c-bowler.X/dist/default/production/c-bowler.X.a(Scheduler.o)
 .reginfo       0x00000000       0x18 ../../../../../c-bowler/firmware/library/NR-Clib/development/c-bowler.X/dist/default/production/c-bowler.X.a(Namespace_bcs_pid.o)
 .pdr           0x00000000       0x40 ../../../../../c-bowler/firmware/library/NR-Clib/development/c-bowler.X/dist/default/production/c-bowler.X.a(Namespace_bcs_pid.o)
 .reginfo       0x00000000       0x18 ../../../../../c-bowler/firmware/library/NR-Clib/development/c-bowler.X/dist/default/production/c-bowler.X.a(AbstractPID.o)
 .pdr           0x00000000      0x360 ../../../../../c-bowler/firmware/library/NR-Clib/development/c-bowler.X/dist/default/production/c-bowler.X.a(AbstractPID.o)
 .reginfo       0x00000000       0x18 ../../../../../c-bowler/firmware/library/NR-Clib/development/c-bowler.X/dist/default/production/c-bowler.X.a(usb_fifo.o)
 .pdr           0x00000000      0x1a0 ../../../../../c-bowler/firmware/library/NR-Clib/development/c-bowler.X/dist/default/production/c-bowler.X.a(usb_fifo.o)
 .reginfo       0x00000000       0x18 ../../../../../c-bowler/firmware/library/NR-Clib/development/c-bowler.X/dist/default/production/c-bowler.X.a(usb_device.o)
 .pdr           0x00000000      0x360 ../../../../../c-bowler/firmware/library/NR-Clib/development/c-bowler.X/dist/default/production/c-bowler.X.a(usb_device.o)
 .reginfo       0x00000000       0x18 ../../../../../c-bowler/firmware/library/NR-Clib/development/c-bowler.X/dist/default/production/c-bowler.X.a(LED.o)
 .pdr           0x00000000       0xa0 ../../../../../c-bowler/firmware/library/NR-Clib/development/c-bowler.X/dist/default/production/c-bowler.X.a(LED.o)
 .reginfo       0x00000000       0x18 ../../../../../c-bowler/firmware/library/NR-Clib/development/c-bowler.X/dist/default/production/c-bowler.X.a(ADC.o)
 .pdr           0x00000000       0x60 ../../../../../c-bowler/firmware/library/NR-Clib/development/c-bowler.X/dist/default/production/c-bowler.X.a(ADC.o)
 .reginfo       0x00000000       0x18 ../../../../../c-bowler/firmware/library/NR-Clib/development/c-bowler.X/dist/default/production/c-bowler.X.a(HAL_P32.o)
 .pdr           0x00000000      0x180 ../../../../../c-bowler/firmware/library/NR-Clib/development/c-bowler.X/dist/default/production/c-bowler.X.a(HAL_P32.o)
 .reginfo       0x00000000       0x18 ../../../../../c-bowler/firmware/library/NR-Clib/development/c-bowler.X/dist/default/production/c-bowler.X.a(Delay.o)
 .pdr           0x00000000       0xa0 ../../../../../c-bowler/firmware/library/NR-Clib/development/c-bowler.X/dist/default/production/c-bowler.X.a(Delay.o)
 .reginfo       0x00000000       0x18 ../../../../../c-bowler/firmware/library/NR-Clib/development/c-bowler.X/dist/default/production/c-bowler.X.a(Bowler_USB_HAL.o)
 .pdr           0x00000000       0x60 ../../../../../c-bowler/firmware/library/NR-Clib/development/c-bowler.X/dist/default/production/c-bowler.X.a(Bowler_USB_HAL.o)
 .reginfo       0x00000000       0x18 ../../../../../c-bowler/firmware/library/NR-Clib/development/c-bowler.X/dist/default/production/c-bowler.X.a(FlashStorage.o)
 .pdr           0x00000000      0x180 ../../../../../c-bowler/firmware/library/NR-Clib/development/c-bowler.X/dist/default/production/c-bowler.X.a(FlashStorage.o)
 .reginfo       0x00000000       0x18 ../../../../../c-bowler/firmware/library/NR-Clib/development/c-bowler.X/dist/default/production/c-bowler.X.a(Bowler_UART_HAL.o)
 .pdr           0x00000000      0x180 ../../../../../c-bowler/firmware/library/NR-Clib/development/c-bowler.X/dist/default/production/c-bowler.X.a(Bowler_UART_HAL.o)
 .reginfo       0x00000000       0x18 ../../../../../c-bowler/firmware/library/NR-Clib/development/c-bowler.X/dist/default/production/c-bowler.X.a(Tick.o)
 .pdr           0x00000000      0x100 ../../../../../c-bowler/firmware/library/NR-Clib/development/c-bowler.X/dist/default/production/c-bowler.X.a(Tick.o)
 .reginfo       0x00000000       0x18 ../../../../../c-bowler/firmware/library/NR-Clib/development/c-bowler.X/dist/default/production/c-bowler.X.a(UART.o)
 .pdr           0x00000000       0x40 ../../../../../c-bowler/firmware/library/NR-Clib/development/c-bowler.X/dist/default/production/c-bowler.X.a(UART.o)
 .reginfo       0x00000000       0x18 ../../../../../c-bowler/firmware/library/NR-Clib/development/c-bowler.X/dist/default/production/c-bowler.X.a(Namespace_bcs_rpc.o)
 .pdr           0x00000000       0x60 ../../../../../c-bowler/firmware/library/NR-Clib/development/c-bowler.X/dist/default/production/c-bowler.X.a(Namespace_bcs_rpc.o)
 .reginfo       0x00000000       0x18 ../../../../../c-bowler/firmware/library/NR-Clib/development/c-bowler.X/dist/default/production/c-bowler.X.a(PidRpc.o)
 .pdr           0x00000000      0x100 ../../../../../c-bowler/firmware/library/NR-Clib/development/c-bowler.X/dist/default/production/c-bowler.X.a(PidRpc.o)
 .reginfo       0x00000000       0x18 ../../../../../c-bowler/firmware/library/NR-Clib/development/c-bowler.X/dist/default/production/c-bowler.X.a(PidHysteresis.o)
 .pdr           0x00000000      0x180 ../../../../../c-bowler/firmware/library/NR-Clib/development/c-bowler.X/dist/default/production/c-bowler.X.a(PidHysteresis.o)
 .reginfo       0x00000000       0x18 ../../../../../c-bowler/firmware/library/NR-Clib/development/c-bowler.X/dist/default/production/c-bowler.X.a(PidAsync.o)
 .pdr           0x00000000       0x80 ../../../../../c-bowler/firmware/library/NR-Clib/development/c-bowler.X/dist/default/production/c-bowler.X.a(PidAsync.o)
 .reginfo       0x00000000       0x18 ../../../../../c-bowler/firmware/library/NR-Clib/development/c-bowler.X/dist/default/production/c-bowler.X.a(usb_callback.o)
 .pdr           0x00000000      0x140 ../../../../../c-bowler/firmware/library/NR-Clib/development/c-bowler.X/dist/default/production/c-bowler.X.a(usb_callback.o)
 .reginfo       0x00000000       0x18 ../../../../../c-bowler/firmware/library/NR-Clib/development/c-bowler.X/dist/default/production/c-bowler.X.a(usb_function_cdc.o)
 .pdr           0x00000000      0x100 ../../../../../c-bowler/firmware/library/NR-Clib/development/c-bowler.X/dist/default/production/c-bowler.X.a(usb_function_cdc.o)
 .reginfo       0x00000000       0x18 ../../../../../c-bowler/firmware/library/NR-Clib/development/c-bowler.X/dist/default/production/c-bowler.X.a(usb_descriptors.o)
 .pdr           0x00000000       0x60 ../../../../../c-bowler/firmware/library/NR-Clib/development/c-bowler.X/dist/default/production/c-bowler.X.a(usb_descriptors.o)
 .reginfo       0x00000000       0x18 ../../../../../c-bowler/firmware/library/NR-Clib/development/c-bowler.X/dist/default/production/c-bowler.X.a(PidVelocity.o)
 .pdr           0x00000000       0x60 ../../../../../c-bowler/firmware/library/NR-Clib/development/c-bowler.X/dist/default/production/c-bowler.X.a(PidVelocity.o)
 .reginfo       0x00000000       0x18 /home/opt/microchip/xc32/v1.00/bin/../lib/gcc/pic32mx/4.5.1/libgcc.a(floatunsisf.o)
 .pdr           0x00000000       0x20 /home/opt/microchip/xc32/v1.00/bin/../lib/gcc/pic32mx/4.5.1/libgcc.a(floatunsisf.o)
 .reginfo       0x00000000       0x18 /home/opt/microchip/xc32/v1.00/bin/../lib/gcc/pic32mx/4.5.1/../../../../pic32mx/lib/libc.a(memcpy.o)
 .pdr           0x00000000       0x20 /home/opt/microchip/xc32/v1.00/bin/../lib/gcc/pic32mx/4.5.1/../../../../pic32mx/lib/libc.a(memcpy.o)
 .reginfo       0x00000000       0x18 /home/opt/microchip/xc32/v1.00/bin/../lib/gcc/pic32mx/4.5.1/../../../../pic32mx/lib/libc.a(general-exception.o)
 .pdr           0x00000000       0x20 /home/opt/microchip/xc32/v1.00/bin/../lib/gcc/pic32mx/4.5.1/../../../../pic32mx/lib/libc.a(general-exception.o)
 .reginfo       0x00000000       0x18 /home/opt/microchip/xc32/v1.00/bin/../lib/gcc/pic32mx/4.5.1/../../../../pic32mx/lib/libc.a(default-bootstrap-exception-handler.o)
 .pdr           0x00000000       0x20 /home/opt/microchip/xc32/v1.00/bin/../lib/gcc/pic32mx/4.5.1/../../../../pic32mx/lib/libc.a(default-bootstrap-exception-handler.o)
 .reginfo       0x00000000       0x18 /home/opt/microchip/xc32/v1.00/bin/../lib/gcc/pic32mx/4.5.1/../../../../pic32mx/lib/libc.a(default-on-reset.o)
 .pdr           0x00000000       0x20 /home/opt/microchip/xc32/v1.00/bin/../lib/gcc/pic32mx/4.5.1/../../../../pic32mx/lib/libc.a(default-on-reset.o)
 .reginfo       0x00000000       0x18 /home/opt/microchip/xc32/v1.00/bin/../lib/gcc/pic32mx/4.5.1/../../../../pic32mx/lib/libc.a(default-on-bootstrap.o)
 .pdr           0x00000000       0x20 /home/opt/microchip/xc32/v1.00/bin/../lib/gcc/pic32mx/4.5.1/../../../../pic32mx/lib/libc.a(default-on-bootstrap.o)
 .reginfo       0x00000000       0x18 /home/opt/microchip/xc32/v1.00/bin/../lib/gcc/pic32mx/4.5.1/../../../../pic32mx/lib/libc.a(default-nmi-handler.o)
 .pdr           0x00000000       0x20 /home/opt/microchip/xc32/v1.00/bin/../lib/gcc/pic32mx/4.5.1/../../../../pic32mx/lib/libc.a(default-nmi-handler.o)
 .reginfo       0x00000000       0x18 /home/opt/microchip/xc32/v1.00/bin/../lib/gcc/pic32mx/4.5.1/../../../../pic32mx/lib/libm.a(fp32.o)
 .pdr           0x00000000        0x0 /home/opt/microchip/xc32/v1.00/bin/../lib/gcc/pic32mx/4.5.1/../../../../pic32mx/lib/libm.a(fp32.o)
 .reginfo       0x00000000       0x18 /home/opt/microchip/xc32/v1.00/bin/../lib/gcc/pic32mx/4.5.1/../../../../pic32mx/lib/./proc/32MX440F128H/processor.o
 .pdr           0x00000000        0x0 /home/opt/microchip/xc32/v1.00/bin/../lib/gcc/pic32mx/4.5.1/../../../../pic32mx/lib/./proc/32MX440F128H/processor.o
 .reginfo       0x00000000       0x18 /home/opt/microchip/xc32/v1.00/bin/../lib/gcc/pic32mx/4.5.1/../../../../pic32mx/lib/libmchp_peripheral_32MX440F128H.a(soft_reset_lib.o)
 .pdr           0x00000000       0x20 /home/opt/microchip/xc32/v1.00/bin/../lib/gcc/pic32mx/4.5.1/../../../../pic32mx/lib/libmchp_peripheral_32MX440F128H.a(soft_reset_lib.o)
 .reginfo       0x00000000       0x18 /home/opt/microchip/xc32/v1.00/bin/../lib/gcc/pic32mx/4.5.1/../../../../pic32mx/lib/libmchp_peripheral_32MX440F128H.a(int_enable_interrupts_lib.o)
 .pdr           0x00000000       0x20 /home/opt/microchip/xc32/v1.00/bin/../lib/gcc/pic32mx/4.5.1/../../../../pic32mx/lib/libmchp_peripheral_32MX440F128H.a(int_enable_interrupts_lib.o)
 .reginfo       0x00000000       0x18 /home/opt/microchip/xc32/v1.00/bin/../lib/gcc/pic32mx/4.5.1/../../../../pic32mx/lib/libmchp_peripheral_32MX440F128H.a(int_disable_interrupts_lib.o)
 .pdr           0x00000000       0x20 /home/opt/microchip/xc32/v1.00/bin/../lib/gcc/pic32mx/4.5.1/../../../../pic32mx/lib/libmchp_peripheral_32MX440F128H.a(int_disable_interrupts_lib.o)
 .reginfo       0x00000000       0x18 /home/opt/microchip/xc32/v1.00/bin/../lib/gcc/pic32mx/4.5.1/../../../../pic32mx/lib/libmchp_peripheral_32MX440F128H.a(int_enable_mv_int_lib.o)
 .pdr           0x00000000       0x20 /home/opt/microchip/xc32/v1.00/bin/../lib/gcc/pic32mx/4.5.1/../../../../pic32mx/lib/libmchp_peripheral_32MX440F128H.a(int_enable_mv_int_lib.o)
 .reginfo       0x00000000       0x18 /home/opt/microchip/xc32/v1.00/bin/../lib/gcc/pic32mx/4.5.1/../../../../pic32mx/lib/libmchp_peripheral_32MX440F128H.a(int_tbl_lib.o)
 .pdr           0x00000000      0x120 /home/opt/microchip/xc32/v1.00/bin/../lib/gcc/pic32mx/4.5.1/../../../../pic32mx/lib/libmchp_peripheral_32MX440F128H.a(int_tbl_lib.o)
 .reginfo       0x00000000       0x18 /home/opt/microchip/xc32/v1.00/bin/../lib/gcc/pic32mx/4.5.1/../../../../pic32mx/lib/libmchp_peripheral_32MX440F128H.a(spi_getc_spi2_lib_legacy.o)
 .pdr           0x00000000       0x20 /home/opt/microchip/xc32/v1.00/bin/../lib/gcc/pic32mx/4.5.1/../../../../pic32mx/lib/libmchp_peripheral_32MX440F128H.a(spi_getc_spi2_lib_legacy.o)
 .reginfo       0x00000000       0x18 /home/opt/microchip/xc32/v1.00/bin/../lib/gcc/pic32mx/4.5.1/../../../../pic32mx/lib/libmchp_peripheral_32MX440F128H.a(spi_open_spi2_lib_legacy.o)
 .pdr           0x00000000       0x20 /home/opt/microchip/xc32/v1.00/bin/../lib/gcc/pic32mx/4.5.1/../../../../pic32mx/lib/libmchp_peripheral_32MX440F128H.a(spi_open_spi2_lib_legacy.o)
 .reginfo       0x00000000       0x18 /home/opt/microchip/xc32/v1.00/bin/../lib/gcc/pic32mx/4.5.1/../../../../pic32mx/lib/libmchp_peripheral_32MX440F128H.a(spi_brg_tbl_lib_legacy.o)
 .pdr           0x00000000        0x0 /home/opt/microchip/xc32/v1.00/bin/../lib/gcc/pic32mx/4.5.1/../../../../pic32mx/lib/libmchp_peripheral_32MX440F128H.a(spi_brg_tbl_lib_legacy.o)
 .reginfo       0x00000000       0x18 /home/opt/microchip/xc32/v1.00/bin/../lib/gcc/pic32mx/4.5.1/../../../../pic32mx/lib/libmchp_peripheral_32MX440F128H.a(nvm_erase_page_lib.o)
 .pdr           0x00000000       0x20 /home/opt/microchip/xc32/v1.00/bin/../lib/gcc/pic32mx/4.5.1/../../../../pic32mx/lib/libmchp_peripheral_32MX440F128H.a(nvm_erase_page_lib.o)
 .reginfo       0x00000000       0x18 /home/opt/microchip/xc32/v1.00/bin/../lib/gcc/pic32mx/4.5.1/../../../../pic32mx/lib/libmchp_peripheral_32MX440F128H.a(nvm_operation_lib.o)
 .pdr           0x00000000       0x20 /home/opt/microchip/xc32/v1.00/bin/../lib/gcc/pic32mx/4.5.1/../../../../pic32mx/lib/libmchp_peripheral_32MX440F128H.a(nvm_operation_lib.o)
 .reginfo       0x00000000       0x18 /home/opt/microchip/xc32/v1.00/bin/../lib/gcc/pic32mx/4.5.1/../../../../pic32mx/lib/libmchp_peripheral_32MX440F128H.a(nvm_write_word_lib.o)
 .pdr           0x00000000       0x20 /home/opt/microchip/xc32/v1.00/bin/../lib/gcc/pic32mx/4.5.1/../../../../pic32mx/lib/libmchp_peripheral_32MX440F128H.a(nvm_write_word_lib.o)
 .reginfo       0x00000000       0x18 /home/opt/microchip/xc32/v1.00/bin/../lib/gcc/pic32mx/4.5.1/../../../../pic32mx/lib/libmchp_peripheral_32MX440F128H.a(port_set_pins_digital_out_lib.o)
 .pdr           0x00000000       0x20 /home/opt/microchip/xc32/v1.00/bin/../lib/gcc/pic32mx/4.5.1/../../../../pic32mx/lib/libmchp_peripheral_32MX440F128H.a(port_set_pins_digital_out_lib.o)
 .reginfo       0x00000000       0x18 /home/opt/microchip/xc32/v1.00/bin/../lib/gcc/pic32mx/4.5.1/../../../../pic32mx/lib/libmchp_peripheral_32MX440F128H.a(port_clear_bits_lib.o)
 .pdr           0x00000000       0x20 /home/opt/microchip/xc32/v1.00/bin/../lib/gcc/pic32mx/4.5.1/../../../../pic32mx/lib/libmchp_peripheral_32MX440F128H.a(port_clear_bits_lib.o)
 .reginfo       0x00000000       0x18 /home/opt/microchip/xc32/v1.00/bin/../lib/gcc/pic32mx/4.5.1/../../../../pic32mx/lib/libmchp_peripheral_32MX440F128H.a(port_set_bits_lib.o)
 .pdr           0x00000000       0x20 /home/opt/microchip/xc32/v1.00/bin/../lib/gcc/pic32mx/4.5.1/../../../../pic32mx/lib/libmchp_peripheral_32MX440F128H.a(port_set_bits_lib.o)
 .reginfo       0x00000000       0x18 /home/opt/microchip/xc32/v1.00/bin/../lib/gcc/pic32mx/4.5.1/../../../../pic32mx/lib/libmchp_peripheral_32MX440F128H.a(_ports_tbl_libp.o)
 .pdr           0x00000000        0x0 /home/opt/microchip/xc32/v1.00/bin/../lib/gcc/pic32mx/4.5.1/../../../../pic32mx/lib/libmchp_peripheral_32MX440F128H.a(_ports_tbl_libp.o)
 .reginfo       0x00000000       0x18 /home/opt/microchip/xc32/v1.00/bin/../lib/gcc/pic32mx/4.5.1/../../../../pic32mx/lib/libmchp_peripheral_32MX440F128H.a(uart_lib.o)
 .pdr           0x00000000      0x100 /home/opt/microchip/xc32/v1.00/bin/../lib/gcc/pic32mx/4.5.1/../../../../pic32mx/lib/libmchp_peripheral_32MX440F128H.a(uart_lib.o)
 .reginfo       0x00000000       0x18 /home/opt/microchip/xc32/v1.00/bin/../lib/gcc/pic32mx/4.5.1/../../../../pic32mx/lib/libmchp_peripheral_32MX440F128H.a(int_restore_interrupts_lib.o)
 .pdr           0x00000000       0x20 /home/opt/microchip/xc32/v1.00/bin/../lib/gcc/pic32mx/4.5.1/../../../../pic32mx/lib/libmchp_peripheral_32MX440F128H.a(int_restore_interrupts_lib.o)

Memory Configuration

Name             Origin             Length             Attributes
kseg0_program_mem 0x9d000000         0x00020000         xr
kseg0_boot_mem   0x9fc00490         0x00000970
exception_mem    0x9fc01000         0x00001000
kseg1_boot_mem   0xbfc00000         0x00000490
debug_exec_mem   0xbfc02000         0x00000ff0
config3          0xbfc02ff0         0x00000004
config2          0xbfc02ff4         0x00000004
config1          0xbfc02ff8         0x00000004
config0          0xbfc02ffc         0x00000004
kseg1_data_mem   0xa0000000         0x00008000         w !x
sfrs             0xbf800000         0x00100000
configsfrs       0xbfc02ff0         0x00000010
*default*        0x00000000         0xffffffff

Linker script and memory map

LOAD /home/opt/microchip/xc32/v1.00/bin/../lib/gcc/pic32mx/4.5.1/../../../../pic32mx/lib/crt0.o
LOAD build/default/production/_ext/108654538/PinFunctions.o
LOAD build/default/production/_ext/805493626/Debug_DyIO.o
LOAD build/default/production/_ext/805493626/Namespace_bcs_io.o
LOAD build/default/production/_ext/805493626/Abstract_bcs_io.o
LOAD build/default/production/_ext/805493626/Bcs_IO_AdvancedAsync.o
LOAD build/default/production/_ext/1051272628/Abstract_bcs_io_setmode.o
LOAD build/default/production/_ext/1051272628/Namespace_bcs_io_setmode.o
LOAD build/default/production/_ext/1825615050/CartesianController.o
LOAD build/default/production/_ext/1825615050/PID.o
LOAD build/default/production/_ext/1978776677/UpstreamPackets.o
LOAD build/default/production/_ext/1978776677/InitializationCallbacks.o
LOAD build/default/production/_ext/1978776677/DownStreamPackets.o
LOAD build/default/production/_ext/1978776677/AsyncManager.o
LOAD build/default/production/_ext/2110062566/UartDMARx.o
LOAD build/default/production/_ext/990863823/AVRInterface.o
LOAD build/default/production/_ext/990863823/Switches.o
LOAD build/default/production/_ext/990863823/DyIODataTableManager.o
LOAD build/default/production/_ext/990863823/CoProcCom.o
LOAD build/default/production/_ext/990863823/ADC.o
LOAD build/default/production/_ext/990863823/Counter.o
LOAD build/default/production/_ext/990863823/EEPROMMannager.o
LOAD build/default/production/_ext/990863823/SerialPassThrough.o
LOAD build/default/production/_ext/990863823/SPI.o
LOAD build/default/production/_ext/990863823/PPMReader.o
LOAD build/default/production/_ext/1020318379/Pin_State.o
LOAD build/default/production/_ext/1020318379/ChannelConfig.o
LOAD build/default/production/_ext/1020318379/ChannelValues.o
LOAD build/default/production/_ext/1020318379/ChannelMode.o
LOAD build/default/production/_ext/1281821416/Abstract_bsc_safe.o
LOAD build/default/production/_ext/1281821416/Namespace_bcs_safe.o
LOAD build/default/production/_ext/321196743/Namespace_neuronrobotics_dyio.o
LOAD build/default/production/_ext/321196743/Namespace_bcs_pid_dypid.o
LOAD build/default/production/_ext/1360937237/Main.o
LOAD build/default/production/_ext/1360937237/DyIOMain.o
LOAD ../../../../../c-bowler/firmware/library/NR-Clib/development/c-bowler.X/dist/default/production/c-bowler.X.a
                0x00000001                __MPLAB_BUILD = 0x1
LOAD /home/opt/microchip/xc32/v1.00/bin/../lib/gcc/pic32mx/4.5.1/libgcc.a
START GROUP
LOAD /home/opt/microchip/xc32/v1.00/bin/../lib/gcc/pic32mx/4.5.1/../../../../pic32mx/lib/libdebug.a
LOAD /home/opt/microchip/xc32/v1.00/bin/../lib/gcc/pic32mx/4.5.1/../../../../pic32mx/lib/libc.a
LOAD /home/opt/microchip/xc32/v1.00/bin/../lib/gcc/pic32mx/4.5.1/../../../../pic32mx/lib/libm.a
LOAD /home/opt/microchip/xc32/v1.00/bin/../lib/gcc/pic32mx/4.5.1/../../../../pic32mx/lib/libe.a
LOAD /home/opt/microchip/xc32/v1.00/bin/../lib/gcc/pic32mx/4.5.1/../../../../pic32mx/lib/libdsp.a
END GROUP
LOAD /home/opt/microchip/xc32/v1.00/bin/../lib/gcc/pic32mx/4.5.1/libgcc.a
                0x00000400                PROVIDE (_min_stack_size, 0x400)
                0x00000000                PROVIDE (_min_heap_size, 0x0)
LOAD /home/opt/microchip/xc32/v1.00/bin/../lib/gcc/pic32mx/4.5.1/../../../../pic32mx/lib/./proc/32MX440F128H/processor.o
START GROUP
LOAD /home/opt/microchip/xc32/v1.00/bin/../lib/gcc/pic32mx/4.5.1/../../../../pic32mx/lib/libmchp_peripheral.a
END GROUP
START GROUP
LOAD /home/opt/microchip/xc32/v1.00/bin/../lib/gcc/pic32mx/4.5.1/../../../../pic32mx/lib/libmchp_peripheral_32MX440F128H.a
END GROUP
                0x00000001                PROVIDE (_vector_spacing, 0x1)
                0x9fc01000                _ebase_address = 0x9fc01000
                0xbfc00000                _RESET_ADDR = 0xbfc00000
                0xbfc00380                _BEV_EXCPT_ADDR = 0xbfc00380
                0xbfc00480                _DBG_EXCPT_ADDR = 0xbfc00480
                0xbfc02000                _DBG_CODE_ADDR = 0xbfc02000
                0x00000ff0                _DBG_CODE_SIZE = 0xff0
                0x9fc01180                _GEN_EXCPT_ADDR = (_ebase_address + 0x180)

.config_BFC02FF0
 *(.config_BFC02FF0)

.config_BFC02FF4
                0xbfc02ff4        0x4
 *(.config_BFC02FF4)
 .config_BFC02FF4
                0xbfc02ff4        0x4 build/default/production/_ext/1360937237/Main.o

.config_BFC02FF8
                0xbfc02ff8        0x4
 *(.config_BFC02FF8)
 .config_BFC02FF8
                0xbfc02ff8        0x4 build/default/production/_ext/1360937237/Main.o

.config_BFC02FFC
                0xbfc02ffc        0x4
 *(.config_BFC02FFC)
 .config_BFC02FFC
                0xbfc02ffc        0x4 build/default/production/_ext/1360937237/Main.o
                0xbfc02000                PROVIDE (_DBG_CODE_ADDR, 0xbfc02000)
                0x00000ff0                PROVIDE (_DBG_CODE_SIZE, 0xff0)

.reset          0xbfc00000      0x1f4
 *(.reset)
 .reset         0xbfc00000       0x10 /home/opt/microchip/xc32/v1.00/bin/../lib/gcc/pic32mx/4.5.1/../../../../pic32mx/lib/crt0.o
                0xbfc00000                _reset
 *(.reset.startup)
 .reset.startup
                0xbfc00010      0x1e4 /home/opt/microchip/xc32/v1.00/bin/../lib/gcc/pic32mx/4.5.1/../../../../pic32mx/lib/crt0.o

.bev_excpt      0xbfc00380       0x10
 *(.bev_handler)
 .bev_handler   0xbfc00380       0x10 /home/opt/microchip/xc32/v1.00/bin/../lib/gcc/pic32mx/4.5.1/../../../../pic32mx/lib/crt0.o

.dbg_excpt      0xbfc00480        0x0
                0xbfc00480                . = (. + DEFINED (_DEBUGGER)?0x8:0x0)

.dbg_code       0xbfc02000        0x0
                0xbfc02000                . = (. + DEFINED (_DEBUGGER)?_DBG_CODE_SIZE:0x0)

.app_excpt      0x9fc01180       0x10
 *(.gen_handler)
 .gen_handler   0x9fc01180       0x10 /home/opt/microchip/xc32/v1.00/bin/../lib/gcc/pic32mx/4.5.1/../../../../pic32mx/lib/crt0.o

.vector_0       0x9fc01200        0x0
 *(.vector_0)
                0x00000001                ASSERT (((_vector_spacing == 0x0) || (SIZEOF (.vector_0) <= (_vector_spacing << 0x5))), function at exception vector 0 too large)

.vector_1       0x9fc01220        0x0
 *(.vector_1)
                0x00000001                ASSERT (((_vector_spacing == 0x0) || (SIZEOF (.vector_1) <= (_vector_spacing << 0x5))), function at exception vector 1 too large)

.vector_2       0x9fc01240        0x0
 *(.vector_2)
                0x00000001                ASSERT (((_vector_spacing == 0x0) || (SIZEOF (.vector_2) <= (_vector_spacing << 0x5))), function at exception vector 2 too large)

.vector_3       0x9fc01260        0x0
 *(.vector_3)
                0x00000001                ASSERT (((_vector_spacing == 0x0) || (SIZEOF (.vector_3) <= (_vector_spacing << 0x5))), function at exception vector 3 too large)

.vector_4       0x9fc01280        0x8
 *(.vector_4)
 .vector_4      0x9fc01280        0x8 ../../../../../c-bowler/firmware/library/NR-Clib/development/c-bowler.X/dist/default/production/c-bowler.X.a(Tick.o)
                0x00000001                ASSERT (((_vector_spacing == 0x0) || (SIZEOF (.vector_4) <= (_vector_spacing << 0x5))), function at exception vector 4 too large)

.vector_5       0x9fc012a0        0x0
 *(.vector_5)
                0x00000001                ASSERT (((_vector_spacing == 0x0) || (SIZEOF (.vector_5) <= (_vector_spacing << 0x5))), function at exception vector 5 too large)

.vector_6       0x9fc012c0        0x0
 *(.vector_6)
                0x00000001                ASSERT (((_vector_spacing == 0x0) || (SIZEOF (.vector_6) <= (_vector_spacing << 0x5))), function at exception vector 6 too large)

.vector_7       0x9fc012e0        0x8
 *(.vector_7)
 .vector_7      0x9fc012e0        0x8 build/default/production/_ext/990863823/Counter.o
                0x00000001                ASSERT (((_vector_spacing == 0x0) || (SIZEOF (.vector_7) <= (_vector_spacing << 0x5))), function at exception vector 7 too large)

.vector_8       0x9fc01300        0x0
 *(.vector_8)
                0x00000001                ASSERT (((_vector_spacing == 0x0) || (SIZEOF (.vector_8) <= (_vector_spacing << 0x5))), function at exception vector 8 too large)

.vector_9       0x9fc01320        0x0
 *(.vector_9)
                0x00000001                ASSERT (((_vector_spacing == 0x0) || (SIZEOF (.vector_9) <= (_vector_spacing << 0x5))), function at exception vector 9 too large)

.vector_10      0x9fc01340        0x0
 *(.vector_10)
                0x00000001                ASSERT (((_vector_spacing == 0x0) || (SIZEOF (.vector_10) <= (_vector_spacing << 0x5))), function at exception vector 10 too large)

.vector_11      0x9fc01360        0x8
 *(.vector_11)
 .vector_11     0x9fc01360        0x8 build/default/production/_ext/990863823/Counter.o
                0x00000001                ASSERT (((_vector_spacing == 0x0) || (SIZEOF (.vector_11) <= (_vector_spacing << 0x5))), function at exception vector 11 too large)

.vector_12      0x9fc01380        0x8
 *(.vector_12)
 .vector_12     0x9fc01380        0x8 build/default/production/_ext/990863823/Counter.o
                0x00000001                ASSERT (((_vector_spacing == 0x0) || (SIZEOF (.vector_12) <= (_vector_spacing << 0x5))), function at exception vector 12 too large)

.vector_13      0x9fc013a0        0x0
 *(.vector_13)
                0x00000001                ASSERT (((_vector_spacing == 0x0) || (SIZEOF (.vector_13) <= (_vector_spacing << 0x5))), function at exception vector 13 too large)

.vector_14      0x9fc013c0        0x0
 *(.vector_14)
                0x00000001                ASSERT (((_vector_spacing == 0x0) || (SIZEOF (.vector_14) <= (_vector_spacing << 0x5))), function at exception vector 14 too large)

.vector_15      0x9fc013e0        0x8
 *(.vector_15)
 .vector_15     0x9fc013e0        0x8 build/default/production/_ext/990863823/Counter.o
                0x00000001                ASSERT (((_vector_spacing == 0x0) || (SIZEOF (.vector_15) <= (_vector_spacing << 0x5))), function at exception vector 15 too large)

.vector_16      0x9fc01400        0x0
 *(.vector_16)
                0x00000001                ASSERT (((_vector_spacing == 0x0) || (SIZEOF (.vector_16) <= (_vector_spacing << 0x5))), function at exception vector 16 too large)

.vector_17      0x9fc01420        0x0
 *(.vector_17)
                0x00000001                ASSERT (((_vector_spacing == 0x0) || (SIZEOF (.vector_17) <= (_vector_spacing << 0x5))), function at exception vector 17 too large)

.vector_18      0x9fc01440        0x0
 *(.vector_18)
                0x00000001                ASSERT (((_vector_spacing == 0x0) || (SIZEOF (.vector_18) <= (_vector_spacing << 0x5))), function at exception vector 18 too large)

.vector_19      0x9fc01460        0x8
 *(.vector_19)
 .vector_19     0x9fc01460        0x8 build/default/production/_ext/990863823/Counter.o
                0x00000001                ASSERT (((_vector_spacing == 0x0) || (SIZEOF (.vector_19) <= (_vector_spacing << 0x5))), function at exception vector 19 too large)

.vector_20      0x9fc01480        0x0
 *(.vector_20)
                0x00000001                ASSERT (((_vector_spacing == 0x0) || (SIZEOF (.vector_20) <= (_vector_spacing << 0x5))), function at exception vector 20 too large)

.vector_21      0x9fc014a0        0x0
 *(.vector_21)
                0x00000001                ASSERT (((_vector_spacing == 0x0) || (SIZEOF (.vector_21) <= (_vector_spacing << 0x5))), function at exception vector 21 too large)

.vector_22      0x9fc014c0        0x0
 *(.vector_22)
                0x00000001                ASSERT (((_vector_spacing == 0x0) || (SIZEOF (.vector_22) <= (_vector_spacing << 0x5))), function at exception vector 22 too large)

.vector_23      0x9fc014e0        0x0
 *(.vector_23)
                0x00000001                ASSERT (((_vector_spacing == 0x0) || (SIZEOF (.vector_23) <= (_vector_spacing << 0x5))), function at exception vector 23 too large)

.vector_24      0x9fc01500        0x8
 *(.vector_24)
 .vector_24     0x9fc01500        0x8 ../../../../../c-bowler/firmware/library/NR-Clib/development/c-bowler.X/dist/default/production/c-bowler.X.a(Bowler_UART_HAL.o)
                0x00000001                ASSERT (((_vector_spacing == 0x0) || (SIZEOF (.vector_24) <= (_vector_spacing << 0x5))), function at exception vector 24 too large)

.vector_25      0x9fc01520        0x0
 *(.vector_25)
                0x00000001                ASSERT (((_vector_spacing == 0x0) || (SIZEOF (.vector_25) <= (_vector_spacing << 0x5))), function at exception vector 25 too large)

.vector_26      0x9fc01540        0x0
 *(.vector_26)
                0x00000001                ASSERT (((_vector_spacing == 0x0) || (SIZEOF (.vector_26) <= (_vector_spacing << 0x5))), function at exception vector 26 too large)

.vector_27      0x9fc01560        0x0
 *(.vector_27)
                0x00000001                ASSERT (((_vector_spacing == 0x0) || (SIZEOF (.vector_27) <= (_vector_spacing << 0x5))), function at exception vector 27 too large)

.vector_28      0x9fc01580        0x0
 *(.vector_28)
                0x00000001                ASSERT (((_vector_spacing == 0x0) || (SIZEOF (.vector_28) <= (_vector_spacing << 0x5))), function at exception vector 28 too large)

.vector_29      0x9fc015a0        0x0
 *(.vector_29)
                0x00000001                ASSERT (((_vector_spacing == 0x0) || (SIZEOF (.vector_29) <= (_vector_spacing << 0x5))), function at exception vector 29 too large)

.vector_30      0x9fc015c0        0x0
 *(.vector_30)
                0x00000001                ASSERT (((_vector_spacing == 0x0) || (SIZEOF (.vector_30) <= (_vector_spacing << 0x5))), function at exception vector 30 too large)

.vector_31      0x9fc015e0        0x0
 *(.vector_31)
                0x00000001                ASSERT (((_vector_spacing == 0x0) || (SIZEOF (.vector_31) <= (_vector_spacing << 0x5))), function at exception vector 31 too large)

.vector_32      0x9fc01600        0x8
 *(.vector_32)
 .vector_32     0x9fc01600        0x8 build/default/production/_ext/990863823/CoProcCom.o
                0x00000001                ASSERT (((_vector_spacing == 0x0) || (SIZEOF (.vector_32) <= (_vector_spacing << 0x5))), function at exception vector 32 too large)

.vector_33      0x9fc01620        0x0
 *(.vector_33)
                0x00000001                ASSERT (((_vector_spacing == 0x0) || (SIZEOF (.vector_33) <= (_vector_spacing << 0x5))), function at exception vector 33 too large)

.vector_34      0x9fc01640        0x0
 *(.vector_34)
                0x00000001                ASSERT (((_vector_spacing == 0x0) || (SIZEOF (.vector_34) <= (_vector_spacing << 0x5))), function at exception vector 34 too large)

.vector_35      0x9fc01660        0x0
 *(.vector_35)
                0x00000001                ASSERT (((_vector_spacing == 0x0) || (SIZEOF (.vector_35) <= (_vector_spacing << 0x5))), function at exception vector 35 too large)

.vector_36      0x9fc01680        0x0
 *(.vector_36)
                0x00000001                ASSERT (((_vector_spacing == 0x0) || (SIZEOF (.vector_36) <= (_vector_spacing << 0x5))), function at exception vector 36 too large)

.vector_37      0x9fc016a0        0x0
 *(.vector_37)
                0x00000001                ASSERT (((_vector_spacing == 0x0) || (SIZEOF (.vector_37) <= (_vector_spacing << 0x5))), function at exception vector 37 too large)

.vector_38      0x9fc016c0        0x0
 *(.vector_38)
                0x00000001                ASSERT (((_vector_spacing == 0x0) || (SIZEOF (.vector_38) <= (_vector_spacing << 0x5))), function at exception vector 38 too large)

.vector_39      0x9fc016e0        0x0
 *(.vector_39)
                0x00000001                ASSERT (((_vector_spacing == 0x0) || (SIZEOF (.vector_39) <= (_vector_spacing << 0x5))), function at exception vector 39 too large)

.vector_40      0x9fc01700        0x0
 *(.vector_40)
                0x00000001                ASSERT (((_vector_spacing == 0x0) || (SIZEOF (.vector_40) <= (_vector_spacing << 0x5))), function at exception vector 40 too large)

.vector_41      0x9fc01720        0x0
 *(.vector_41)
                0x00000001                ASSERT (((_vector_spacing == 0x0) || (SIZEOF (.vector_41) <= (_vector_spacing << 0x5))), function at exception vector 41 too large)

.vector_42      0x9fc01740        0x0
 *(.vector_42)
                0x00000001                ASSERT (((_vector_spacing == 0x0) || (SIZEOF (.vector_42) <= (_vector_spacing << 0x5))), function at exception vector 42 too large)

.vector_43      0x9fc01760        0x0
 *(.vector_43)
                0x00000001                ASSERT (((_vector_spacing == 0x0) || (SIZEOF (.vector_43) <= (_vector_spacing << 0x5))), function at exception vector 43 too large)

.vector_44      0x9fc01780        0x0
 *(.vector_44)
                0x00000001                ASSERT (((_vector_spacing == 0x0) || (SIZEOF (.vector_44) <= (_vector_spacing << 0x5))), function at exception vector 44 too large)

.vector_45      0x9fc017a0        0x8
 *(.vector_45)
 .vector_45     0x9fc017a0        0x8 ../../../../../c-bowler/firmware/library/NR-Clib/development/c-bowler.X/dist/default/production/c-bowler.X.a(usb_device.o)
                0x00000001                ASSERT (((_vector_spacing == 0x0) || (SIZEOF (.vector_45) <= (_vector_spacing << 0x5))), function at exception vector 45 too large)

.vector_46      0x9fc017c0        0x0
 *(.vector_46)
                0x00000001                ASSERT (((_vector_spacing == 0x0) || (SIZEOF (.vector_46) <= (_vector_spacing << 0x5))), function at exception vector 46 too large)

.vector_47      0x9fc017e0        0x0
 *(.vector_47)
                0x00000001                ASSERT (((_vector_spacing == 0x0) || (SIZEOF (.vector_47) <= (_vector_spacing << 0x5))), function at exception vector 47 too large)

.vector_48      0x9fc01800        0x0
 *(.vector_48)
                0x00000001                ASSERT (((_vector_spacing == 0x0) || (SIZEOF (.vector_48) <= (_vector_spacing << 0x5))), function at exception vector 48 too large)

.vector_49      0x9fc01820        0x0
 *(.vector_49)
                0x00000001                ASSERT (((_vector_spacing == 0x0) || (SIZEOF (.vector_49) <= (_vector_spacing << 0x5))), function at exception vector 49 too large)

.vector_50      0x9fc01840        0x0
 *(.vector_50)
                0x00000001                ASSERT (((_vector_spacing == 0x0) || (SIZEOF (.vector_50) <= (_vector_spacing << 0x5))), function at exception vector 50 too large)

.vector_51      0x9fc01860        0x0
 *(.vector_51)
                0x00000001                ASSERT (((_vector_spacing == 0x0) || (SIZEOF (.vector_51) <= (_vector_spacing << 0x5))), function at exception vector 51 too large)

.vector_52      0x9fc01880        0x0
 *(.vector_52)
                0x00000001                ASSERT (((_vector_spacing == 0x0) || (SIZEOF (.vector_52) <= (_vector_spacing << 0x5))), function at exception vector 52 too large)

.vector_53      0x9fc018a0        0x0
 *(.vector_53)
                0x00000001                ASSERT (((_vector_spacing == 0x0) || (SIZEOF (.vector_53) <= (_vector_spacing << 0x5))), function at exception vector 53 too large)

.vector_54      0x9fc018c0        0x0
 *(.vector_54)
                0x00000001                ASSERT (((_vector_spacing == 0x0) || (SIZEOF (.vector_54) <= (_vector_spacing << 0x5))), function at exception vector 54 too large)

.vector_55      0x9fc018e0        0x0
 *(.vector_55)
                0x00000001                ASSERT (((_vector_spacing == 0x0) || (SIZEOF (.vector_55) <= (_vector_spacing << 0x5))), function at exception vector 55 too large)

.vector_56      0x9fc01900        0x0
 *(.vector_56)
                0x00000001                ASSERT (((_vector_spacing == 0x0) || (SIZEOF (.vector_56) <= (_vector_spacing << 0x5))), function at exception vector 56 too large)

.vector_57      0x9fc01920        0x0
 *(.vector_57)
                0x00000001                ASSERT (((_vector_spacing == 0x0) || (SIZEOF (.vector_57) <= (_vector_spacing << 0x5))), function at exception vector 57 too large)

.vector_58      0x9fc01940        0x0
 *(.vector_58)
                0x00000001                ASSERT (((_vector_spacing == 0x0) || (SIZEOF (.vector_58) <= (_vector_spacing << 0x5))), function at exception vector 58 too large)

.vector_59      0x9fc01960        0x0
 *(.vector_59)
                0x00000001                ASSERT (((_vector_spacing == 0x0) || (SIZEOF (.vector_59) <= (_vector_spacing << 0x5))), function at exception vector 59 too large)

.vector_60      0x9fc01980        0x0
 *(.vector_60)
                0x00000001                ASSERT (((_vector_spacing == 0x0) || (SIZEOF (.vector_60) <= (_vector_spacing << 0x5))), function at exception vector 60 too large)

.vector_61      0x9fc019a0        0x0
 *(.vector_61)
                0x00000001                ASSERT (((_vector_spacing == 0x0) || (SIZEOF (.vector_61) <= (_vector_spacing << 0x5))), function at exception vector 61 too large)

.vector_62      0x9fc019c0        0x0
 *(.vector_62)
                0x00000001                ASSERT (((_vector_spacing == 0x0) || (SIZEOF (.vector_62) <= (_vector_spacing << 0x5))), function at exception vector 62 too large)

.vector_63      0x9fc019e0        0x0
 *(.vector_63)
                0x00000001                ASSERT (((_vector_spacing == 0x0) || (SIZEOF (.vector_63) <= (_vector_spacing << 0x5))), function at exception vector 63 too large)

.startup
 *(.startup)

.text
 *(.stub .gnu.linkonce.t.*)
 *(.text.*personality*)
 *(.mips16.fn.*)
 *(.mips16.call.*)
 *(.gnu.warning)

.rodata         0x9d000000       0x74
 *(.rodata.* .gnu.linkonce.r.*)
 .rodata.MY_MAC_ADDRESS
                0x9d000000        0x8 build/default/production/_ext/1978776677/InitializationCallbacks.o
                0x9d000000                MY_MAC_ADDRESS
 .rodata.coreName
                0x9d000008       0x14 ../../../../../c-bowler/firmware/library/NR-Clib/development/c-bowler.X/dist/default/production/c-bowler.X.a(Namespace_bcs_core.o)
                0x9d000008                coreName
 .rodata.Broadcast
                0x9d00001c        0x8 ../../../../../c-bowler/firmware/library/NR-Clib/development/c-bowler.X/dist/default/production/c-bowler.X.a(Bowler_Server.o)
                0x9d00001c                Broadcast
 .rodata.AsciiHex
                0x9d000024       0x10 ../../../../../c-bowler/firmware/library/NR-Clib/development/c-bowler.X/dist/default/production/c-bowler.X.a(Debug.o)
                0x9d000024                AsciiHex
 .rodata.errorColor
                0x9d000034        0x8 ../../../../../c-bowler/firmware/library/NR-Clib/development/c-bowler.X/dist/default/production/c-bowler.X.a(Debug.o)
                0x9d000034                errorColor
 .rodata.infoColor
                0x9d00003c        0x8 ../../../../../c-bowler/firmware/library/NR-Clib/development/c-bowler.X/dist/default/production/c-bowler.X.a(Debug.o)
                0x9d00003c                infoColor
 .rodata.warningColor
                0x9d000044        0x8 ../../../../../c-bowler/firmware/library/NR-Clib/development/c-bowler.X/dist/default/production/c-bowler.X.a(Debug.o)
                0x9d000044                warningColor
 .rodata.clearErrorColor
                0x9d00004c        0x8 ../../../../../c-bowler/firmware/library/NR-Clib/development/c-bowler.X/dist/default/production/c-bowler.X.a(Debug.o)
                0x9d00004c                clearErrorColor
 .rodata.pidNSName
                0x9d000054       0x10 ../../../../../c-bowler/firmware/library/NR-Clib/development/c-bowler.X/dist/default/production/c-bowler.X.a(Namespace_bcs_pid.o)
 .rodata.rpcNSName
                0x9d000064       0x10 ../../../../../c-bowler/firmware/library/NR-Clib/development/c-bowler.X/dist/default/production/c-bowler.X.a(Namespace_bcs_rpc.o)
 *(.rodata1)
                0x9d000074                . = ALIGN (0x4)

.sdata2         0x9d000074        0x0
 *(.sdata2 .sdata2.* .gnu.linkonce.s2.*)
                0x9d000074                . = ALIGN (0x4)

.sbss2          0x9d000074        0x0
 *(.sbss2 .sbss2.* .gnu.linkonce.sb2.*)
                0x9d000074                . = ALIGN (0x4)

.eh_frame_hdr
 *(.eh_frame_hdr)

.eh_frame
 *(.eh_frame)

.dbg_data       0xa0000000        0x0
                0xa0000000                . = (. + DEFINED (_DEBUGGER)?0x200:0x0)

.persist        0xa0000000        0x0
                0xa0000000                _persist_begin = .
 *(.persist .persist.*)
                0xa0000000                . = ALIGN (0x4)
                0xa0000000                _persist_end = .

.eh_frame
 *(.eh_frame)
                0xa0000000                . = .
                0xa0007ff0                _gp = (ALIGN (0x10) + 0x7ff0)

.got
 *(.got.plt)
 *(.got)

.sdata          0xa0000000      0x19c
                0xa0000000                _sdata_begin = .
 *(.sdata .sdata.* .gnu.linkonce.s.*)
 .sdata.__compound_literal.0
                0xa0000000        0x4 build/default/production/_ext/805493626/Namespace_bcs_io.o
 .sdata.__compound_literal.1
                0xa0000004        0x4 build/default/production/_ext/805493626/Namespace_bcs_io.o
 .sdata.__compound_literal.3
                0xa0000008        0x4 build/default/production/_ext/805493626/Namespace_bcs_io.o
 .sdata.__compound_literal.4
                0xa000000c        0x4 build/default/production/_ext/805493626/Namespace_bcs_io.o
 .sdata.__compound_literal.5
                0xa0000010        0x4 build/default/production/_ext/805493626/Namespace_bcs_io.o
 .sdata.__compound_literal.7
                0xa0000014        0x4 build/default/production/_ext/805493626/Namespace_bcs_io.o
 .sdata.__compound_literal.8
                0xa0000018        0x4 build/default/production/_ext/805493626/Namespace_bcs_io.o
 .sdata.__compound_literal.9
                0xa000001c        0x4 build/default/production/_ext/805493626/Namespace_bcs_io.o
 .sdata.__compound_literal.11
                0xa0000020        0x4 build/default/production/_ext/805493626/Namespace_bcs_io.o
 .sdata.__compound_literal.12
                0xa0000024        0x4 build/default/production/_ext/805493626/Namespace_bcs_io.o
 .sdata.__compound_literal.13
                0xa0000028        0x4 build/default/production/_ext/805493626/Namespace_bcs_io.o
 .sdata.__compound_literal.14
                0xa000002c        0x4 build/default/production/_ext/805493626/Namespace_bcs_io.o
 .sdata.__compound_literal.15
                0xa0000030        0x4 build/default/production/_ext/805493626/Namespace_bcs_io.o
 .sdata.__compound_literal.16
                0xa0000034        0x4 build/default/production/_ext/805493626/Namespace_bcs_io.o
 .sdata.__compound_literal.17
                0xa0000038        0x4 build/default/production/_ext/805493626/Namespace_bcs_io.o
 .sdata.__compound_literal.18
                0xa000003c        0x4 build/default/production/_ext/805493626/Namespace_bcs_io.o
 .sdata.__compound_literal.20
                0xa0000040        0x4 build/default/production/_ext/805493626/Namespace_bcs_io.o
 .sdata.__compound_literal.22
                0xa0000044        0x4 build/default/production/_ext/805493626/Namespace_bcs_io.o
 .sdata.__compound_literal.24
                0xa0000048        0x8 build/default/production/_ext/805493626/Namespace_bcs_io.o
 .sdata.__compound_literal.0
                0xa0000050        0x4 build/default/production/_ext/1051272628/Namespace_bcs_io_setmode.o
 .sdata.__compound_literal.2
                0xa0000054        0x4 build/default/production/_ext/1051272628/Namespace_bcs_io_setmode.o
 .sdata.bankA   0xa0000058        0x4 build/default/production/_ext/1978776677/DownStreamPackets.o
                0xa0000058                bankA
 .sdata.bankB   0xa000005c        0x4 build/default/production/_ext/1978776677/DownStreamPackets.o
                0xa000005c                bankB
 .sdata.printData
                0xa0000060        0x8 build/default/production/_ext/990863823/DyIODataTableManager.o
                0xa0000060                printData
 .sdata.ppmData
                0xa0000068        0x8 build/default/production/_ext/990863823/PPMReader.o
 .sdata.ppmLink
                0xa0000070        0x8 build/default/production/_ext/990863823/PPMReader.o
 .sdata.ppmLastSent
                0xa0000078        0x8 build/default/production/_ext/990863823/PPMReader.o
 .sdata.brownOutDetect
                0xa0000080        0x4 build/default/production/_ext/1020318379/ChannelMode.o
                0xa0000080                brownOutDetect
 .sdata.__compound_literal.1
                0xa0000084        0x4 build/default/production/_ext/1281821416/Namespace_bcs_safe.o
 .sdata.__compound_literal.2
                0xa0000088        0x4 build/default/production/_ext/1281821416/Namespace_bcs_safe.o
 .sdata.__compound_literal.3
                0xa000008c        0x4 build/default/production/_ext/1281821416/Namespace_bcs_safe.o
 .sdata.syncVolt
                0xa0000090        0x8 build/default/production/_ext/321196743/Namespace_neuronrobotics_dyio.o
                0xa0000090                syncVolt
 .sdata.ppm     0xa0000098        0x8 build/default/production/_ext/321196743/Namespace_neuronrobotics_dyio.o
                0xa0000098                ppm
 .sdata.heartBeatLockTime
                0xa00000a0        0x4 build/default/production/_ext/321196743/Namespace_neuronrobotics_dyio.o
 .sdata.heartBeatLock
                0xa00000a4        0x4 build/default/production/_ext/321196743/Namespace_neuronrobotics_dyio.o
 .sdata.__compound_literal.1
                0xa00000a8        0x8 build/default/production/_ext/321196743/Namespace_neuronrobotics_dyio.o
 .sdata.__compound_literal.3
                0xa00000b0        0x4 build/default/production/_ext/321196743/Namespace_neuronrobotics_dyio.o
 .sdata.__compound_literal.5
                0xa00000b4        0x4 build/default/production/_ext/321196743/Namespace_neuronrobotics_dyio.o
 .sdata.__compound_literal.6
                0xa00000b8        0x8 build/default/production/_ext/321196743/Namespace_neuronrobotics_dyio.o
 .sdata.__compound_literal.7
                0xa00000c0        0x4 build/default/production/_ext/321196743/Namespace_neuronrobotics_dyio.o
 .sdata.__compound_literal.8
                0xa00000c4        0x4 build/default/production/_ext/321196743/Namespace_neuronrobotics_dyio.o
 .sdata.__compound_literal.9
                0xa00000c8        0x4 build/default/production/_ext/321196743/Namespace_neuronrobotics_dyio.o
 .sdata.__compound_literal.10
                0xa00000cc        0x4 build/default/production/_ext/321196743/Namespace_neuronrobotics_dyio.o
 .sdata.__compound_literal.11
                0xa00000d0        0x4 build/default/production/_ext/321196743/Namespace_neuronrobotics_dyio.o
 .sdata.pid     0xa00000d4        0x8 build/default/production/_ext/321196743/Namespace_bcs_pid_dypid.o
                0xa00000d4                pid
 .sdata.vel     0xa00000dc        0x8 build/default/production/_ext/321196743/Namespace_bcs_pid_dypid.o
                0xa00000dc                vel
 .sdata.__compound_literal.0
                0xa00000e4        0x4 build/default/production/_ext/321196743/Namespace_bcs_pid_dypid.o
 .sdata.__compound_literal.1
                0xa00000e8        0x8 build/default/production/_ext/321196743/Namespace_bcs_pid_dypid.o
 .sdata.__compound_literal.2
                0xa00000f0        0x8 build/default/production/_ext/321196743/Namespace_bcs_pid_dypid.o
 .sdata.__compound_literal.0
                0xa00000f8        0x4 ../../../../../c-bowler/firmware/library/NR-Clib/development/c-bowler.X/dist/default/production/c-bowler.X.a(Namespace_bcs_core.o)
 .sdata.__compound_literal.1
                0xa00000fc        0x4 ../../../../../c-bowler/firmware/library/NR-Clib/development/c-bowler.X/dist/default/production/c-bowler.X.a(Namespace_bcs_core.o)
 .sdata.MyMAC   0xa0000100        0x8 ../../../../../c-bowler/firmware/library/NR-Clib/development/c-bowler.X/dist/default/production/c-bowler.X.a(Bowler_Server.o)
                0xa0000100                MyMAC
 .sdata.__compound_literal.0
                0xa0000108        0x4 ../../../../../c-bowler/firmware/library/NR-Clib/development/c-bowler.X/dist/default/production/c-bowler.X.a(Namespace_bcs_pid.o)
 .sdata.__compound_literal.1
                0xa000010c        0x4 ../../../../../c-bowler/firmware/library/NR-Clib/development/c-bowler.X/dist/default/production/c-bowler.X.a(Namespace_bcs_pid.o)
 .sdata.__compound_literal.2
                0xa0000110        0x4 ../../../../../c-bowler/firmware/library/NR-Clib/development/c-bowler.X/dist/default/production/c-bowler.X.a(Namespace_bcs_pid.o)
 .sdata.__compound_literal.3
                0xa0000114        0x4 ../../../../../c-bowler/firmware/library/NR-Clib/development/c-bowler.X/dist/default/production/c-bowler.X.a(Namespace_bcs_pid.o)
 .sdata.__compound_literal.5
                0xa0000118        0x4 ../../../../../c-bowler/firmware/library/NR-Clib/development/c-bowler.X/dist/default/production/c-bowler.X.a(Namespace_bcs_pid.o)
 .sdata.__compound_literal.6
                0xa000011c        0x4 ../../../../../c-bowler/firmware/library/NR-Clib/development/c-bowler.X/dist/default/production/c-bowler.X.a(Namespace_bcs_pid.o)
 .sdata.__compound_literal.7
                0xa0000120        0x4 ../../../../../c-bowler/firmware/library/NR-Clib/development/c-bowler.X/dist/default/production/c-bowler.X.a(Namespace_bcs_pid.o)
 .sdata.__compound_literal.8
                0xa0000124        0x4 ../../../../../c-bowler/firmware/library/NR-Clib/development/c-bowler.X/dist/default/production/c-bowler.X.a(Namespace_bcs_pid.o)
 .sdata.__compound_literal.9
                0xa0000128        0x4 ../../../../../c-bowler/firmware/library/NR-Clib/development/c-bowler.X/dist/default/production/c-bowler.X.a(Namespace_bcs_pid.o)
 .sdata.__compound_literal.10
                0xa000012c        0x4 ../../../../../c-bowler/firmware/library/NR-Clib/development/c-bowler.X/dist/default/production/c-bowler.X.a(Namespace_bcs_pid.o)
 .sdata.__compound_literal.11
                0xa0000130        0x4 ../../../../../c-bowler/firmware/library/NR-Clib/development/c-bowler.X/dist/default/production/c-bowler.X.a(Namespace_bcs_pid.o)
 .sdata.__compound_literal.12
                0xa0000134        0x4 ../../../../../c-bowler/firmware/library/NR-Clib/development/c-bowler.X/dist/default/production/c-bowler.X.a(Namespace_bcs_pid.o)
 .sdata.__compound_literal.13
                0xa0000138        0x4 ../../../../../c-bowler/firmware/library/NR-Clib/development/c-bowler.X/dist/default/production/c-bowler.X.a(Namespace_bcs_pid.o)
 .sdata.__compound_literal.14
                0xa000013c        0x4 ../../../../../c-bowler/firmware/library/NR-Clib/development/c-bowler.X/dist/default/production/c-bowler.X.a(Namespace_bcs_pid.o)
 .sdata.__compound_literal.15
                0xa0000140        0x4 ../../../../../c-bowler/firmware/library/NR-Clib/development/c-bowler.X/dist/default/production/c-bowler.X.a(Namespace_bcs_pid.o)
 .sdata.__compound_literal.18
                0xa0000144        0x4 ../../../../../c-bowler/firmware/library/NR-Clib/development/c-bowler.X/dist/default/production/c-bowler.X.a(Namespace_bcs_pid.o)
 .sdata.__compound_literal.20
                0xa0000148        0x4 ../../../../../c-bowler/firmware/library/NR-Clib/development/c-bowler.X/dist/default/production/c-bowler.X.a(Namespace_bcs_pid.o)
 .sdata.__compound_literal.21
                0xa000014c        0x4 ../../../../../c-bowler/firmware/library/NR-Clib/development/c-bowler.X/dist/default/production/c-bowler.X.a(Namespace_bcs_pid.o)
 .sdata.__compound_literal.22
                0xa0000150        0x4 ../../../../../c-bowler/firmware/library/NR-Clib/development/c-bowler.X/dist/default/production/c-bowler.X.a(Namespace_bcs_pid.o)
 .sdata.__compound_literal.16
                0xa0000154        0x4 ../../../../../c-bowler/firmware/library/NR-Clib/development/c-bowler.X/dist/default/production/c-bowler.X.a(Namespace_bcs_pid.o)
 .sdata.__compound_literal.17
                0xa0000158        0x4 ../../../../../c-bowler/firmware/library/NR-Clib/development/c-bowler.X/dist/default/production/c-bowler.X.a(Namespace_bcs_pid.o)
 .sdata.usbActive
                0xa000015c        0x4 ../../../../../c-bowler/firmware/library/NR-Clib/development/c-bowler.X/dist/default/production/c-bowler.X.a(usb_fifo.o)
 .sdata.defMac  0xa0000160        0x8 ../../../../../c-bowler/firmware/library/NR-Clib/development/c-bowler.X/dist/default/production/c-bowler.X.a(FlashStorage.o)
                0xa0000160                defMac
 .sdata.MEMORY_BASE
                0xa0000168        0x4 ../../../../../c-bowler/firmware/library/NR-Clib/development/c-bowler.X/dist/default/production/c-bowler.X.a(FlashStorage.o)
                0xa0000168                MEMORY_BASE
 .sdata.VirtualBase
                0xa000016c        0x4 ../../../../../c-bowler/firmware/library/NR-Clib/development/c-bowler.X/dist/default/production/c-bowler.X.a(FlashStorage.o)
                0xa000016c                VirtualBase
 .sdata.__compound_literal.0
                0xa0000170        0x4 ../../../../../c-bowler/firmware/library/NR-Clib/development/c-bowler.X/dist/default/production/c-bowler.X.a(Namespace_bcs_rpc.o)
 .sdata.__compound_literal.1
                0xa0000174        0x8 ../../../../../c-bowler/firmware/library/NR-Clib/development/c-bowler.X/dist/default/production/c-bowler.X.a(Namespace_bcs_rpc.o)
 .sdata.__compound_literal.2
                0xa000017c        0x4 ../../../../../c-bowler/firmware/library/NR-Clib/development/c-bowler.X/dist/default/production/c-bowler.X.a(Namespace_bcs_rpc.o)
 .sdata.__compound_literal.3
                0xa0000180        0x8 ../../../../../c-bowler/firmware/library/NR-Clib/development/c-bowler.X/dist/default/production/c-bowler.X.a(Namespace_bcs_rpc.o)
 .sdata.zone    0xa0000188        0x4 ../../../../../c-bowler/firmware/library/NR-Clib/development/c-bowler.X/dist/default/production/c-bowler.X.a(PidRpc.o)
                0xa0000188                zone
 .sdata.pid     0xa000018c        0x8 ../../../../../c-bowler/firmware/library/NR-Clib/development/c-bowler.X/dist/default/production/c-bowler.X.a(PidAsync.o)
 .sdata.sd000   0xa0000194        0x4 ../../../../../c-bowler/firmware/library/NR-Clib/development/c-bowler.X/dist/default/production/c-bowler.X.a(usb_descriptors.o)
                0xa0000194                sd000
 .sdata.USB_CD_Ptr
                0xa0000198        0x4 ../../../../../c-bowler/firmware/library/NR-Clib/development/c-bowler.X/dist/default/production/c-bowler.X.a(usb_descriptors.o)
                0xa0000198                USB_CD_Ptr
                0xa000019c                _sdata_end = .

.lit8
 *(.lit8)

.lit4
 *(.lit4)
                0xa000019c                . = ALIGN (0x4)
                0xa000019c                _data_end = .
                0xa000019c                _bss_begin = .

.sbss           0xa000019c      0x1dc
                0xa000019c                _sbss_begin = .
 *(.dynsbss)
 *(.sbss .sbss.* .gnu.linkonce.sb.*)
 .sbss.maxNumCharsInModes
                0xa000019c        0x4 build/default/production/_ext/805493626/Debug_DyIO.o
                0xa000019c                maxNumCharsInModes
 .sbss.namespcaedAdded
                0xa00001a0        0x4 build/default/production/_ext/805493626/Namespace_bcs_io.o
 .sbss.__compound_literal.2
                0xa00001a4        0x4 build/default/production/_ext/805493626/Namespace_bcs_io.o
 .sbss.__compound_literal.6
                0xa00001a8        0x4 build/default/production/_ext/805493626/Namespace_bcs_io.o
 .sbss.__compound_literal.10
                0xa00001ac        0x4 build/default/production/_ext/805493626/Namespace_bcs_io.o
 .sbss.__compound_literal.19
                0xa00001b0        0x4 build/default/production/_ext/805493626/Namespace_bcs_io.o
 .sbss.__compound_literal.21
                0xa00001b4        0x4 build/default/production/_ext/805493626/Namespace_bcs_io.o
 .sbss.__compound_literal.23
                0xa00001b8        0x4 build/default/production/_ext/805493626/Namespace_bcs_io.o
 .sbss.__compound_literal.25
                0xa00001bc        0x4 build/default/production/_ext/805493626/Namespace_bcs_io.o
 .sbss.dataPtr  0xa00001c0        0x4 build/default/production/_ext/805493626/Abstract_bcs_io.o
 .sbss.NumberOfIOChannels
                0xa00001c4        0x4 build/default/production/_ext/805493626/Abstract_bcs_io.o
 .sbss.isInit   0xa00001c8        0x4 build/default/production/_ext/805493626/Bcs_IO_AdvancedAsync.o
                0xa00001c8                isInit
 .sbss.setChanelModeHWPtr
                0xa00001cc        0x4 build/default/production/_ext/1051272628/Abstract_bcs_io_setmode.o
                0xa00001cc                setChanelModeHWPtr
 .sbss.namespcaedAdded
                0xa00001d0        0x4 build/default/production/_ext/1051272628/Namespace_bcs_io_setmode.o
 .sbss.__compound_literal.1
                0xa00001d4        0x4 build/default/production/_ext/1051272628/Namespace_bcs_io_setmode.o
 .sbss.__compound_literal.3
                0xa00001d8        0x4 build/default/production/_ext/1051272628/Namespace_bcs_io_setmode.o
 .sbss.SaveTheState
                0xa00001dc        0x1 build/default/production/_ext/1978776677/InitializationCallbacks.o
                0xa00001dc                SaveTheState
 .sbss.batteryCode0
                0xa00001dd        0x1 build/default/production/_ext/1978776677/DownStreamPackets.o
                0xa00001dd                batteryCode0
 .sbss.batteryCode1
                0xa00001de        0x1 build/default/production/_ext/1978776677/DownStreamPackets.o
                0xa00001de                batteryCode1
 .sbss.switched
                0xa00001df        0x1 build/default/production/_ext/990863823/Switches.o
 .sbss.volt     0xa00001e0        0x4 build/default/production/_ext/990863823/Switches.o
 .sbss.bankState
                0xa00001e4        0x4 build/default/production/_ext/990863823/Switches.o
 .sbss.lastVolt
                0xa00001e8        0x4 build/default/production/_ext/990863823/Switches.o
 .sbss.coProcRunning
                0xa00001ec        0x4 build/default/production/_ext/990863823/CoProcCom.o
                0xa00001ec                coProcRunning
 .sbss.processing
                0xa00001f0        0x4 build/default/production/_ext/990863823/CoProcCom.o
 .sbss.init     0xa00001f4        0x4 build/default/production/_ext/990863823/CoProcCom.o
 .sbss.lastWasError
                0xa00001f8        0x4 build/default/production/_ext/990863823/CoProcCom.o
 .sbss.init     0xa00001fc        0x4 build/default/production/_ext/990863823/ADC.o
                0xa00001fc                init
 .sbss.lastHighTime
                0xa0000200        0x4 build/default/production/_ext/990863823/ADC.o
                0xa0000200                lastHighTime
 .sbss.lastLowTime
                0xa0000204        0x4 build/default/production/_ext/990863823/ADC.o
                0xa0000204                lastLowTime
 .sbss.lockOutRail
                0xa0000208        0x4 build/default/production/_ext/990863823/ADC.o
 .sbss.externalLock
                0xa000020c        0x4 build/default/production/_ext/990863823/ADC.o
 .sbss.loadEEDone
                0xa0000210        0x1 build/default/production/_ext/990863823/EEPROMMannager.o
                0xa0000210                loadEEDone
 *fill*         0xa0000211        0x3 00
 .sbss.state    0xa0000214        0x4 build/default/production/_ext/990863823/PPMReader.o
 .sbss.bufferStart
                0xa0000218        0x4 build/default/production/_ext/990863823/PPMReader.o
 .sbss.ppmIndex
                0xa000021c        0x1 build/default/production/_ext/990863823/PPMReader.o
 *fill*         0xa000021d        0x3 00
 .sbss.namespcaedAdded
                0xa0000220        0x4 build/default/production/_ext/1281821416/Namespace_bcs_safe.o
 .sbss.__compound_literal.0
                0xa0000224        0x4 build/default/production/_ext/1281821416/Namespace_bcs_safe.o
 .sbss.pwr      0xa0000228        0x4 build/default/production/_ext/321196743/Namespace_neuronrobotics_dyio.o
                0xa0000228                pwr
 .sbss.namespcaedAdded
                0xa000022c        0x4 build/default/production/_ext/321196743/Namespace_neuronrobotics_dyio.o
 .sbss.__compound_literal.0
                0xa0000230        0x4 build/default/production/_ext/321196743/Namespace_neuronrobotics_dyio.o
 .sbss.__compound_literal.2
                0xa0000234        0x4 build/default/production/_ext/321196743/Namespace_neuronrobotics_dyio.o
 .sbss.__compound_literal.4
                0xa0000238        0x4 build/default/production/_ext/321196743/Namespace_neuronrobotics_dyio.o
 .sbss.namespcaedAdded
                0xa000023c        0x4 build/default/production/_ext/321196743/Namespace_bcs_pid_dypid.o
 .sbss.__compound_literal.3
                0xa0000240        0x4 build/default/production/_ext/321196743/Namespace_bcs_pid_dypid.o
 .sbss.namespcaedAdded
                0xa0000244        0x4 ../../../../../c-bowler/firmware/library/NR-Clib/development/c-bowler.X/dist/default/production/c-bowler.X.a(Namespace_bcs_core.o)
 .sbss.lastPacketTime
                0xa0000248        0x4 ../../../../../c-bowler/firmware/library/NR-Clib/development/c-bowler.X/dist/default/production/c-bowler.X.a(Bowler_Server.o)
 .sbss.level    0xa000024c        0x4 ../../../../../c-bowler/firmware/library/NR-Clib/development/c-bowler.X/dist/default/production/c-bowler.X.a(Debug.o)
                0xa000024c                level
 .sbss.DebugINIT
                0xa0000250        0x4 ../../../../../c-bowler/firmware/library/NR-Clib/development/c-bowler.X/dist/default/production/c-bowler.X.a(Debug.o)
 .sbss.sendToStream
                0xa0000254        0x4 ../../../../../c-bowler/firmware/library/NR-Clib/development/c-bowler.X/dist/default/production/c-bowler.X.a(Debug.o)
 .sbss.namespcaedAdded
                0xa0000258        0x4 ../../../../../c-bowler/firmware/library/NR-Clib/development/c-bowler.X/dist/default/production/c-bowler.X.a(Namespace_bcs_pid.o)
 .sbss.number_of_pid_groups
                0xa000025c        0x4 ../../../../../c-bowler/firmware/library/NR-Clib/development/c-bowler.X/dist/default/production/c-bowler.X.a(AbstractPID.o)
                0xa000025c                number_of_pid_groups
 .sbss.velData  0xa0000260        0x4 ../../../../../c-bowler/firmware/library/NR-Clib/development/c-bowler.X/dist/default/production/c-bowler.X.a(AbstractPID.o)
 .sbss.pidGroupsInternal
                0xa0000264        0x4 ../../../../../c-bowler/firmware/library/NR-Clib/development/c-bowler.X/dist/default/production/c-bowler.X.a(AbstractPID.o)
 .sbss.gotData  0xa0000268        0x2 ../../../../../c-bowler/firmware/library/NR-Clib/development/c-bowler.X/dist/default/production/c-bowler.X.a(usb_fifo.o)
 .sbss.txSize   0xa000026a        0x2 ../../../../../c-bowler/firmware/library/NR-Clib/development/c-bowler.X/dist/default/production/c-bowler.X.a(usb_fifo.o)
 .sbss.bufferSet
                0xa000026c        0x4 ../../../../../c-bowler/firmware/library/NR-Clib/development/c-bowler.X/dist/default/production/c-bowler.X.a(usb_fifo.o)
 .sbss.usb_fifo_my_store
                0xa0000270        0x4 ../../../../../c-bowler/firmware/library/NR-Clib/development/c-bowler.X/dist/default/production/c-bowler.X.a(usb_fifo.o)
 .sbss.last_my_store
                0xa0000274        0x4 ../../../../../c-bowler/firmware/library/NR-Clib/development/c-bowler.X/dist/default/production/c-bowler.X.a(usb_fifo.o)
 .sbss.ADCMask  0xa0000278        0x4 ../../../../../c-bowler/firmware/library/NR-Clib/development/c-bowler.X/dist/default/production/c-bowler.X.a(ADC.o)
                0xa0000278                ADCMask
 .sbss.usbComs  0xa000027c        0x4 ../../../../../c-bowler/firmware/library/NR-Clib/development/c-bowler.X/dist/default/production/c-bowler.X.a(HAL_P32.o)
 .sbss.uartComs
                0xa0000280        0x4 ../../../../../c-bowler/firmware/library/NR-Clib/development/c-bowler.X/dist/default/production/c-bowler.X.a(HAL_P32.o)
 .sbss.init     0xa0000284        0x4 ../../../../../c-bowler/firmware/library/NR-Clib/development/c-bowler.X/dist/default/production/c-bowler.X.a(HAL_P32.o)
 .sbss.disableSerial
                0xa0000288        0x4 ../../../../../c-bowler/firmware/library/NR-Clib/development/c-bowler.X/dist/default/production/c-bowler.X.a(HAL_P32.o)
 .sbss._excep_code
                0xa000028c        0x4 ../../../../../c-bowler/firmware/library/NR-Clib/development/c-bowler.X/dist/default/production/c-bowler.X.a(HAL_P32.o)
 .sbss._excep_addr.12850
                0xa0000290        0x4 ../../../../../c-bowler/firmware/library/NR-Clib/development/c-bowler.X/dist/default/production/c-bowler.X.a(HAL_P32.o)
 .sbss.streamSize
                0xa0000294        0x4 ../../../../../c-bowler/firmware/library/NR-Clib/development/c-bowler.X/dist/default/production/c-bowler.X.a(FlashStorage.o)
                0xa0000294                streamSize
 .sbss.my_store
                0xa0000298        0x4 ../../../../../c-bowler/firmware/library/NR-Clib/development/c-bowler.X/dist/default/production/c-bowler.X.a(Bowler_UART_HAL.o)
 .sbss.gotData  0xa000029c        0x2 ../../../../../c-bowler/firmware/library/NR-Clib/development/c-bowler.X/dist/default/production/c-bowler.X.a(Bowler_UART_HAL.o)
 *fill*         0xa000029e        0x2 00
 .sbss.dwInternalTicks
                0xa00002a0        0x4 ../../../../../c-bowler/firmware/library/NR-Clib/development/c-bowler.X/dist/default/production/c-bowler.X.a(Tick.o)
 .sbss.dwInternalTicksUpper
                0xa00002a4        0x4 ../../../../../c-bowler/firmware/library/NR-Clib/development/c-bowler.X/dist/default/production/c-bowler.X.a(Tick.o)
 .sbss.useUart2
                0xa00002a8        0x4 ../../../../../c-bowler/firmware/library/NR-Clib/development/c-bowler.X/dist/default/production/c-bowler.X.a(UART.o)
                0xa00002a8                useUart2
 .sbss.useUart1
                0xa00002ac        0x4 ../../../../../c-bowler/firmware/library/NR-Clib/development/c-bowler.X/dist/default/production/c-bowler.X.a(UART.o)
                0xa00002ac                useUart1
 .sbss.namespcaedAdded
                0xa00002b0        0x4 ../../../../../c-bowler/firmware/library/NR-Clib/development/c-bowler.X/dist/default/production/c-bowler.X.a(Namespace_bcs_rpc.o)
 .sbss.delay_count.12856
                0xa00002b4        0x2 ../../../../../c-bowler/firmware/library/NR-Clib/development/c-bowler.X/dist/default/production/c-bowler.X.a(usb_callback.o)
 *(.scommon)
 *fill*         0xa00002b6        0x2 00
 .scommon       0xa00002b8       0x14 build/default/production/_ext/805493626/Abstract_bcs_io.o
                0xa00002b8                getAllChanelValueHWPtr
                0xa00002bc                getChanelValueHWPtr
                0xa00002c0                setAllChanelValueHWPtr
                0xa00002c4                setChanelValueHWPtr
                0xa00002c8                configChannelHWPtr
 .scommon       0xa00002cc        0x8 build/default/production/_ext/990863823/ADC.o
                0xa00002cc                lockOutTimeout
 .scommon       0xa00002d4       0x1c ../../../../../c-bowler/firmware/library/NR-Clib/development/c-bowler.X/dist/default/production/c-bowler.X.a(AbstractPID.o)
                0xa00002d4                resetPosition
                0xa00002d8                MathCalculationVelocity
                0xa00002dc                setOutputLocal
                0xa00002e0                MathCalculationPosition
                0xa00002e4                onPidConfigureLocal
                0xa00002e8                getPosition
                0xa00002ec                checkPIDLimitEvents
 .scommon       0xa00002f0       0x41 ../../../../../c-bowler/firmware/library/NR-Clib/development/c-bowler.X/dist/default/production/c-bowler.X.a(usb_device.o)
                0xa00002f0                pDst
                0xa00002f4                USBDeviceState
                0xa00002f8                controlTransferState
                0xa00002fc                USBInMaxPacketSize
                0xa0000304                inPipes
                0xa000030c                BothEP0OutUOWNsSet
                0xa0000310                pBDTEntryEP0OutNext
                0xa0000314                SetupPkt
                0xa000031c                shortPacketStatus
                0xa0000320                pBDTEntryEP0OutCurrent
                0xa0000324                USBActiveConfiguration
                0xa0000328                RemoteWakeup
                0xa000032c                USTATcopy
                0xa0000330                USBAlternateInterface
 *fill*         0xa0000331        0x3 00
 .scommon       0xa0000334        0x4 ../../../../../c-bowler/firmware/library/NR-Clib/development/c-bowler.X/dist/default/production/c-bowler.X.a(FlashStorage.o)
                0xa0000334                stream
 .scommon       0xa0000338       0x40 ../../../../../c-bowler/firmware/library/NR-Clib/development/c-bowler.X/dist/default/production/c-bowler.X.a(usb_function_cdc.o)
                0xa0000338                control_signal_bitmap
                0xa000033c                cdc_tx_len
                0xa0000340                pCDCSrc
                0xa0000344                CDCDataOutHandle
                0xa0000348                cdc_rx_len
                0xa000034c                line_coding
                0xa0000354                BaudRateGen
                0xa0000358                CDCDataInHandle
                0xa000035c                cdc_notice
                0xa0000364                cdc_trf_state
                0xa0000368                pCDCDst
                0xa000036c                cdc_mem_type
                0xa0000370                dummy_encapsulated_cmd_response
                0xa0000378                _sbss_end = .

.bss            0xa0000400      0x3f8
 *(.dynbss)
 *(COMMON)
 COMMON         0xa0000400      0x158 build/default/production/_ext/990863823/ADC.o
                0xa0000400                adc
 COMMON         0xa0000558       0x8c build/default/production/_ext/990863823/Counter.o
                0xa0000558                Counter
 COMMON         0xa00005e4       0x16 build/default/production/_ext/1020318379/Pin_State.o
                0xa00005e4                self
 *fill*         0xa00005fa        0x6 00
 COMMON         0xa0000600       0xf7 ../../../../../c-bowler/firmware/library/NR-Clib/development/c-bowler.X/dist/default/production/c-bowler.X.a(usb_device.o)
                0xa0000600                BDT
                0xa0000680                CtrlTrfData
                0xa00006c0                pBDTEntryIn
                0xa00006d0                pBDTEntryOut
                0xa00006e0                USBInData
                0xa00006ec                outPipes
 *fill*         0xa00006f7        0x1 00
 COMMON         0xa00006f8       0x80 ../../../../../c-bowler/firmware/library/NR-Clib/development/c-bowler.X/dist/default/production/c-bowler.X.a(FlashStorage.o)
                0xa00006f8                flash
 COMMON         0xa0000778       0x80 ../../../../../c-bowler/firmware/library/NR-Clib/development/c-bowler.X/dist/default/production/c-bowler.X.a(usb_function_cdc.o)
                0xa0000778                cdc_data_tx
                0xa00007b8                cdc_data_rx
                0xa00007f8                . = ALIGN (0x4)
                0xa00007f8                . = ALIGN (0x4)
                0xa00007f8                _end = .
                0xa00007f8                _bss_end = .
                0x00008000                _bmxdudba_address = 0x8000
                0x00008000                _bmxdupba_address = 0x8000

/DISCARD/
 *(.pdr)
 *(.reginfo)
 *(.rel.dyn)
 *(.note.GNU-stack)
 *(.note.GNU-stack)
 *(.gnu_debuglink)
 *(.gnu.lto_*)
 *(.discard)

.stab
 *(.stab)

.stabstr
 *(.stabstr)

.stab.excl
 *(.stab.excl)

.stab.exclstr
 *(.stab.exclstr)

.stab.index
 *(.stab.index)

.stab.indexstr
 *(.stab.indexstr)

.comment        0x00000000       0x84
 *(.comment)
 .comment       0x00000000       0x33 build/default/production/_ext/108654538/PinFunctions.o
                                 0x34 (size before relaxing)
 .comment       0x00000000       0x34 build/default/production/_ext/805493626/Debug_DyIO.o
 .comment       0x00000000       0x34 build/default/production/_ext/805493626/Namespace_bcs_io.o
 .comment       0x00000000       0x34 build/default/production/_ext/805493626/Abstract_bcs_io.o
 .comment       0x00000000       0x34 build/default/production/_ext/805493626/Bcs_IO_AdvancedAsync.o
 .comment       0x00000000       0x34 build/default/production/_ext/1051272628/Abstract_bcs_io_setmode.o
 .comment       0x00000000       0x34 build/default/production/_ext/1051272628/Namespace_bcs_io_setmode.o
 .comment       0x00000000       0x34 build/default/production/_ext/1825615050/CartesianController.o
 .comment       0x00000000       0x34 build/default/production/_ext/1825615050/PID.o
 .comment       0x00000000       0x34 build/default/production/_ext/1978776677/UpstreamPackets.o
 .comment       0x00000000       0x34 build/default/production/_ext/1978776677/InitializationCallbacks.o
 .comment       0x00000000       0x34 build/default/production/_ext/1978776677/DownStreamPackets.o
 .comment       0x00000000       0x34 build/default/production/_ext/1978776677/AsyncManager.o
 .comment       0x00000000       0x34 build/default/production/_ext/2110062566/UartDMARx.o
 .comment       0x00000000       0x34 build/default/production/_ext/990863823/AVRInterface.o
 .comment       0x00000000       0x34 build/default/production/_ext/990863823/Switches.o
 .comment       0x00000000       0x34 build/default/production/_ext/990863823/DyIODataTableManager.o
 .comment       0x00000000       0x34 build/default/production/_ext/990863823/CoProcCom.o
 .comment       0x00000000       0x34 build/default/production/_ext/990863823/ADC.o
 .comment       0x00000000       0x34 build/default/production/_ext/990863823/Counter.o
 .comment       0x00000000       0x34 build/default/production/_ext/990863823/EEPROMMannager.o
 .comment       0x00000000       0x34 build/default/production/_ext/990863823/SerialPassThrough.o
 .comment       0x00000000       0x34 build/default/production/_ext/990863823/SPI.o
 .comment       0x00000000       0x34 build/default/production/_ext/990863823/PPMReader.o
 .comment       0x00000000       0x34 build/default/production/_ext/1020318379/Pin_State.o
 .comment       0x00000000       0x34 build/default/production/_ext/1020318379/ChannelConfig.o
 .comment       0x00000000       0x34 build/default/production/_ext/1020318379/ChannelValues.o
 .comment       0x00000000       0x34 build/default/production/_ext/1020318379/ChannelMode.o
 .comment       0x00000000       0x34 build/default/production/_ext/1281821416/Abstract_bsc_safe.o
 .comment       0x00000000       0x34 build/default/production/_ext/1281821416/Namespace_bcs_safe.o
 .comment       0x00000000       0x34 build/default/production/_ext/321196743/Namespace_neuronrobotics_dyio.o
 .comment       0x00000000       0x34 build/default/production/_ext/321196743/Namespace_bcs_pid_dypid.o
 .comment       0x00000000       0x34 build/default/production/_ext/1360937237/Main.o
 .comment       0x00000000       0x34 build/default/production/_ext/1360937237/DyIOMain.o
 .comment       0x00000000       0x34 ../../../../../c-bowler/firmware/library/NR-Clib/development/c-bowler.X/dist/default/production/c-bowler.X.a(BowlerPacketParser.o)
 .comment       0x00000000       0x34 ../../../../../c-bowler/firmware/library/NR-Clib/development/c-bowler.X/dist/default/production/c-bowler.X.a(Namespace_bcs_core.o)
 .comment       0x00000000       0x34 ../../../../../c-bowler/firmware/library/NR-Clib/development/c-bowler.X/dist/default/production/c-bowler.X.a(Bowler_Server.o)
 .comment       0x00000000       0x34 ../../../../../c-bowler/firmware/library/NR-Clib/development/c-bowler.X/dist/default/production/c-bowler.X.a(Debug.o)
 .comment       0x00000000       0x34 ../../../../../c-bowler/firmware/library/NR-Clib/development/c-bowler.X/dist/default/production/c-bowler.X.a(FIFO.o)
 .comment       0x00000000       0x34 ../../../../../c-bowler/firmware/library/NR-Clib/development/c-bowler.X/dist/default/production/c-bowler.X.a(Bowler_Helper.o)
 .comment       0x00000000       0x34 ../../../../../c-bowler/firmware/library/NR-Clib/development/c-bowler.X/dist/default/production/c-bowler.X.a(Scheduler.o)
 .comment       0x00000000       0x34 ../../../../../c-bowler/firmware/library/NR-Clib/development/c-bowler.X/dist/default/production/c-bowler.X.a(Namespace_bcs_pid.o)
 .comment       0x00000000       0x34 ../../../../../c-bowler/firmware/library/NR-Clib/development/c-bowler.X/dist/default/production/c-bowler.X.a(AbstractPID.o)
 .comment       0x00000000       0x34 ../../../../../c-bowler/firmware/library/NR-Clib/development/c-bowler.X/dist/default/production/c-bowler.X.a(usb_fifo.o)
 .comment       0x00000000       0x34 ../../../../../c-bowler/firmware/library/NR-Clib/development/c-bowler.X/dist/default/production/c-bowler.X.a(usb_device.o)
 .comment       0x00000000       0x34 ../../../../../c-bowler/firmware/library/NR-Clib/development/c-bowler.X/dist/default/production/c-bowler.X.a(LED.o)
 .comment       0x00000000       0x34 ../../../../../c-bowler/firmware/library/NR-Clib/development/c-bowler.X/dist/default/production/c-bowler.X.a(ADC.o)
 .comment       0x00000000       0x34 ../../../../../c-bowler/firmware/library/NR-Clib/development/c-bowler.X/dist/default/production/c-bowler.X.a(HAL_P32.o)
 .comment       0x00000000       0x34 ../../../../../c-bowler/firmware/library/NR-Clib/development/c-bowler.X/dist/default/production/c-bowler.X.a(Delay.o)
 .comment       0x00000000       0x34 ../../../../../c-bowler/firmware/library/NR-Clib/development/c-bowler.X/dist/default/production/c-bowler.X.a(Bowler_USB_HAL.o)
 .comment       0x00000000       0x34 ../../../../../c-bowler/firmware/library/NR-Clib/development/c-bowler.X/dist/default/production/c-bowler.X.a(FlashStorage.o)
 .comment       0x00000000       0x34 ../../../../../c-bowler/firmware/library/NR-Clib/development/c-bowler.X/dist/default/production/c-bowler.X.a(Bowler_UART_HAL.o)
 .comment       0x00000000       0x34 ../../../../../c-bowler/firmware/library/NR-Clib/development/c-bowler.X/dist/default/production/c-bowler.X.a(Tick.o)
 .comment       0x00000000       0x34 ../../../../../c-bowler/firmware/library/NR-Clib/development/c-bowler.X/dist/default/production/c-bowler.X.a(UART.o)
 .comment       0x00000000       0x34 ../../../../../c-bowler/firmware/library/NR-Clib/development/c-bowler.X/dist/default/production/c-bowler.X.a(Namespace_bcs_rpc.o)
 .comment       0x00000000       0x34 ../../../../../c-bowler/firmware/library/NR-Clib/development/c-bowler.X/dist/default/production/c-bowler.X.a(PidRpc.o)
 .comment       0x00000000       0x34 ../../../../../c-bowler/firmware/library/NR-Clib/development/c-bowler.X/dist/default/production/c-bowler.X.a(PidHysteresis.o)
 .comment       0x00000000       0x34 ../../../../../c-bowler/firmware/library/NR-Clib/development/c-bowler.X/dist/default/production/c-bowler.X.a(PidAsync.o)
 .comment       0x00000000       0x34 ../../../../../c-bowler/firmware/library/NR-Clib/development/c-bowler.X/dist/default/production/c-bowler.X.a(usb_callback.o)
 .comment       0x00000000       0x34 ../../../../../c-bowler/firmware/library/NR-Clib/development/c-bowler.X/dist/default/production/c-bowler.X.a(usb_function_cdc.o)
 .comment       0x00000000       0x34 ../../../../../c-bowler/firmware/library/NR-Clib/development/c-bowler.X/dist/default/production/c-bowler.X.a(usb_descriptors.o)
 .comment       0x00000000       0x34 ../../../../../c-bowler/firmware/library/NR-Clib/development/c-bowler.X/dist/default/production/c-bowler.X.a(PidVelocity.o)
 .comment       0x00000000       0x34 /home/opt/microchip/xc32/v1.00/bin/../lib/gcc/pic32mx/4.5.1/libgcc.a(floatunsisf.o)
 .comment       0x00000000       0x34 /home/opt/microchip/xc32/v1.00/bin/../lib/gcc/pic32mx/4.5.1/../../../../pic32mx/lib/libc.a(default-bootstrap-exception-handler.o)
 .comment       0x00000000       0x34 /home/opt/microchip/xc32/v1.00/bin/../lib/gcc/pic32mx/4.5.1/../../../../pic32mx/lib/libc.a(default-on-reset.o)
 .comment       0x00000000       0x34 /home/opt/microchip/xc32/v1.00/bin/../lib/gcc/pic32mx/4.5.1/../../../../pic32mx/lib/libc.a(default-on-bootstrap.o)
 .comment       0x00000033       0x51 /home/opt/microchip/xc32/v1.00/bin/../lib/gcc/pic32mx/4.5.1/../../../../pic32mx/lib/libmchp_peripheral_32MX440F128H.a(soft_reset_lib.o)
                                 0x52 (size before relaxing)
 .comment       0x00000000       0x52 /home/opt/microchip/xc32/v1.00/bin/../lib/gcc/pic32mx/4.5.1/../../../../pic32mx/lib/libmchp_peripheral_32MX440F128H.a(int_enable_interrupts_lib.o)
 .comment       0x00000000       0x52 /home/opt/microchip/xc32/v1.00/bin/../lib/gcc/pic32mx/4.5.1/../../../../pic32mx/lib/libmchp_peripheral_32MX440F128H.a(int_disable_interrupts_lib.o)
 .comment       0x00000000       0x52 /home/opt/microchip/xc32/v1.00/bin/../lib/gcc/pic32mx/4.5.1/../../../../pic32mx/lib/libmchp_peripheral_32MX440F128H.a(int_enable_mv_int_lib.o)
 .comment       0x00000000       0x52 /home/opt/microchip/xc32/v1.00/bin/../lib/gcc/pic32mx/4.5.1/../../../../pic32mx/lib/libmchp_peripheral_32MX440F128H.a(int_tbl_lib.o)
 .comment       0x00000000       0x52 /home/opt/microchip/xc32/v1.00/bin/../lib/gcc/pic32mx/4.5.1/../../../../pic32mx/lib/libmchp_peripheral_32MX440F128H.a(spi_getc_spi2_lib_legacy.o)
 .comment       0x00000000       0x52 /home/opt/microchip/xc32/v1.00/bin/../lib/gcc/pic32mx/4.5.1/../../../../pic32mx/lib/libmchp_peripheral_32MX440F128H.a(spi_open_spi2_lib_legacy.o)
 .comment       0x00000000       0x52 /home/opt/microchip/xc32/v1.00/bin/../lib/gcc/pic32mx/4.5.1/../../../../pic32mx/lib/libmchp_peripheral_32MX440F128H.a(spi_brg_tbl_lib_legacy.o)
 .comment       0x00000000       0x52 /home/opt/microchip/xc32/v1.00/bin/../lib/gcc/pic32mx/4.5.1/../../../../pic32mx/lib/libmchp_peripheral_32MX440F128H.a(nvm_erase_page_lib.o)
 .comment       0x00000000       0x52 /home/opt/microchip/xc32/v1.00/bin/../lib/gcc/pic32mx/4.5.1/../../../../pic32mx/lib/libmchp_peripheral_32MX440F128H.a(nvm_operation_lib.o)
 .comment       0x00000000       0x52 /home/opt/microchip/xc32/v1.00/bin/../lib/gcc/pic32mx/4.5.1/../../../../pic32mx/lib/libmchp_peripheral_32MX440F128H.a(nvm_write_word_lib.o)
 .comment       0x00000000       0x52 /home/opt/microchip/xc32/v1.00/bin/../lib/gcc/pic32mx/4.5.1/../../../../pic32mx/lib/libmchp_peripheral_32MX440F128H.a(port_set_pins_digital_out_lib.o)
 .comment       0x00000000       0x52 /home/opt/microchip/xc32/v1.00/bin/../lib/gcc/pic32mx/4.5.1/../../../../pic32mx/lib/libmchp_peripheral_32MX440F128H.a(port_clear_bits_lib.o)
 .comment       0x00000000       0x52 /home/opt/microchip/xc32/v1.00/bin/../lib/gcc/pic32mx/4.5.1/../../../../pic32mx/lib/libmchp_peripheral_32MX440F128H.a(port_set_bits_lib.o)
 .comment       0x00000000       0x52 /home/opt/microchip/xc32/v1.00/bin/../lib/gcc/pic32mx/4.5.1/../../../../pic32mx/lib/libmchp_peripheral_32MX440F128H.a(_ports_tbl_libp.o)
 .comment       0x00000000       0x52 /home/opt/microchip/xc32/v1.00/bin/../lib/gcc/pic32mx/4.5.1/../../../../pic32mx/lib/libmchp_peripheral_32MX440F128H.a(uart_lib.o)
 .comment       0x00000000       0x52 /home/opt/microchip/xc32/v1.00/bin/../lib/gcc/pic32mx/4.5.1/../../../../pic32mx/lib/libmchp_peripheral_32MX440F128H.a(int_restore_interrupts_lib.o)

.debug
 *(.debug)

.line
 *(.line)

.debug_srcinfo
 *(.debug_srcinfo)

.debug_sfnames
 *(.debug_sfnames)

.debug_aranges  0x00000000     0x1790
 *(.debug_aranges)
 .debug_aranges
                0x00000000       0x20 build/default/production/_ext/108654538/PinFunctions.o
 .debug_aranges
                0x00000020       0x28 build/default/production/_ext/805493626/Debug_DyIO.o
 .debug_aranges
                0x00000048       0x28 build/default/production/_ext/805493626/Namespace_bcs_io.o
 .debug_aranges
                0x00000070       0xc0 build/default/production/_ext/805493626/Abstract_bcs_io.o
 .debug_aranges
                0x00000130       0x98 build/default/production/_ext/805493626/Bcs_IO_AdvancedAsync.o
 .debug_aranges
                0x000001c8       0x40 build/default/production/_ext/1051272628/Abstract_bcs_io_setmode.o
 .debug_aranges
                0x00000208       0x28 build/default/production/_ext/1051272628/Namespace_bcs_io_setmode.o
 .debug_aranges
                0x00000230       0x40 build/default/production/_ext/1825615050/CartesianController.o
 .debug_aranges
                0x00000270       0x80 build/default/production/_ext/1825615050/PID.o
 .debug_aranges
                0x000002f0       0x58 build/default/production/_ext/1978776677/UpstreamPackets.o
 .debug_aranges
                0x00000348       0x28 build/default/production/_ext/1978776677/InitializationCallbacks.o
 .debug_aranges
                0x00000370       0xc0 build/default/production/_ext/1978776677/DownStreamPackets.o
 .debug_aranges
                0x00000430       0x30 build/default/production/_ext/1978776677/AsyncManager.o
 .debug_aranges
                0x00000460       0x60 build/default/production/_ext/990863823/AVRInterface.o
 .debug_aranges
                0x000004c0       0x28 build/default/production/_ext/990863823/Switches.o
 .debug_aranges
                0x000004e8       0x40 build/default/production/_ext/990863823/DyIODataTableManager.o
 .debug_aranges
                0x00000528       0x90 build/default/production/_ext/990863823/CoProcCom.o
 .debug_aranges
                0x000005b8       0x78 build/default/production/_ext/990863823/ADC.o
 .debug_aranges
                0x00000630       0xd0 build/default/production/_ext/990863823/Counter.o
 .debug_aranges
                0x00000700       0x50 build/default/production/_ext/990863823/EEPROMMannager.o
 .debug_aranges
                0x00000750       0x20 build/default/production/_ext/990863823/SerialPassThrough.o
 .debug_aranges
                0x00000770       0x48 build/default/production/_ext/990863823/SPI.o
 .debug_aranges
                0x000007b8       0x58 build/default/production/_ext/990863823/PPMReader.o
 .debug_aranges
                0x00000810       0x20 build/default/production/_ext/1020318379/Pin_State.o
 .debug_aranges
                0x00000830       0x20 build/default/production/_ext/1020318379/ChannelConfig.o
 .debug_aranges
                0x00000850       0x48 build/default/production/_ext/1020318379/ChannelValues.o
 .debug_aranges
                0x00000898       0x38 build/default/production/_ext/1020318379/ChannelMode.o
 .debug_aranges
                0x000008d0       0x38 build/default/production/_ext/1281821416/Namespace_bcs_safe.o
 .debug_aranges
                0x00000908       0x60 build/default/production/_ext/321196743/Namespace_neuronrobotics_dyio.o
 .debug_aranges
                0x00000968       0x38 build/default/production/_ext/321196743/Namespace_bcs_pid_dypid.o
 .debug_aranges
                0x000009a0       0x20 build/default/production/_ext/1360937237/Main.o
 .debug_aranges
                0x000009c0       0x30 build/default/production/_ext/1360937237/DyIOMain.o
 .debug_aranges
                0x000009f0       0x58 ../../../../../c-bowler/firmware/library/NR-Clib/development/c-bowler.X/dist/default/production/c-bowler.X.a(BowlerPacketParser.o)
 .debug_aranges
                0x00000a48       0x70 ../../../../../c-bowler/firmware/library/NR-Clib/development/c-bowler.X/dist/default/production/c-bowler.X.a(Namespace_bcs_core.o)
 .debug_aranges
                0x00000ab8       0x48 ../../../../../c-bowler/firmware/library/NR-Clib/development/c-bowler.X/dist/default/production/c-bowler.X.a(Bowler_Server.o)
 .debug_aranges
                0x00000b00       0xb0 ../../../../../c-bowler/firmware/library/NR-Clib/development/c-bowler.X/dist/default/production/c-bowler.X.a(Debug.o)
 .debug_aranges
                0x00000bb0       0xa0 ../../../../../c-bowler/firmware/library/NR-Clib/development/c-bowler.X/dist/default/production/c-bowler.X.a(FIFO.o)
 .debug_aranges
                0x00000c50       0xb8 ../../../../../c-bowler/firmware/library/NR-Clib/development/c-bowler.X/dist/default/production/c-bowler.X.a(Bowler_Helper.o)
 .debug_aranges
                0x00000d08       0x20 ../../../../../c-bowler/firmware/library/NR-Clib/development/c-bowler.X/dist/default/production/c-bowler.X.a(Scheduler.o)
 .debug_aranges
                0x00000d28       0x28 ../../../../../c-bowler/firmware/library/NR-Clib/development/c-bowler.X/dist/default/production/c-bowler.X.a(Namespace_bcs_pid.o)
 .debug_aranges
                0x00000d50       0xf0 ../../../../../c-bowler/firmware/library/NR-Clib/development/c-bowler.X/dist/default/production/c-bowler.X.a(AbstractPID.o)
 .debug_aranges
                0x00000e40       0x80 ../../../../../c-bowler/firmware/library/NR-Clib/development/c-bowler.X/dist/default/production/c-bowler.X.a(usb_fifo.o)
 .debug_aranges
                0x00000ec0       0xe8 ../../../../../c-bowler/firmware/library/NR-Clib/development/c-bowler.X/dist/default/production/c-bowler.X.a(usb_device.o)
 .debug_aranges
                0x00000fa8       0x40 ../../../../../c-bowler/firmware/library/NR-Clib/development/c-bowler.X/dist/default/production/c-bowler.X.a(LED.o)
 .debug_aranges
                0x00000fe8       0x30 ../../../../../c-bowler/firmware/library/NR-Clib/development/c-bowler.X/dist/default/production/c-bowler.X.a(ADC.o)
 .debug_aranges
                0x00001018       0x78 ../../../../../c-bowler/firmware/library/NR-Clib/development/c-bowler.X/dist/default/production/c-bowler.X.a(HAL_P32.o)
 .debug_aranges
                0x00001090       0x40 ../../../../../c-bowler/firmware/library/NR-Clib/development/c-bowler.X/dist/default/production/c-bowler.X.a(Delay.o)
 .debug_aranges
                0x000010d0       0x30 ../../../../../c-bowler/firmware/library/NR-Clib/development/c-bowler.X/dist/default/production/c-bowler.X.a(Bowler_USB_HAL.o)
 .debug_aranges
                0x00001100       0x78 ../../../../../c-bowler/firmware/library/NR-Clib/development/c-bowler.X/dist/default/production/c-bowler.X.a(FlashStorage.o)
 .debug_aranges
                0x00001178       0x70 ../../../../../c-bowler/firmware/library/NR-Clib/development/c-bowler.X/dist/default/production/c-bowler.X.a(Bowler_UART_HAL.o)
 .debug_aranges
                0x000011e8       0x50 ../../../../../c-bowler/firmware/library/NR-Clib/development/c-bowler.X/dist/default/production/c-bowler.X.a(Tick.o)
 .debug_aranges
                0x00001238       0x28 ../../../../../c-bowler/firmware/library/NR-Clib/development/c-bowler.X/dist/default/production/c-bowler.X.a(UART.o)
 .debug_aranges
                0x00001260       0x30 ../../../../../c-bowler/firmware/library/NR-Clib/development/c-bowler.X/dist/default/production/c-bowler.X.a(Namespace_bcs_rpc.o)
 .debug_aranges
                0x00001290       0x58 ../../../../../c-bowler/firmware/library/NR-Clib/development/c-bowler.X/dist/default/production/c-bowler.X.a(PidRpc.o)
 .debug_aranges
                0x000012e8       0x78 ../../../../../c-bowler/firmware/library/NR-Clib/development/c-bowler.X/dist/default/production/c-bowler.X.a(PidHysteresis.o)
 .debug_aranges
                0x00001360       0x38 ../../../../../c-bowler/firmware/library/NR-Clib/development/c-bowler.X/dist/default/production/c-bowler.X.a(PidAsync.o)
 .debug_aranges
                0x00001398       0x68 ../../../../../c-bowler/firmware/library/NR-Clib/development/c-bowler.X/dist/default/production/c-bowler.X.a(usb_callback.o)
 .debug_aranges
                0x00001400       0x58 ../../../../../c-bowler/firmware/library/NR-Clib/development/c-bowler.X/dist/default/production/c-bowler.X.a(usb_function_cdc.o)
 .debug_aranges
                0x00001458       0x30 ../../../../../c-bowler/firmware/library/NR-Clib/development/c-bowler.X/dist/default/production/c-bowler.X.a(usb_descriptors.o)
 .debug_aranges
                0x00001488       0x30 ../../../../../c-bowler/firmware/library/NR-Clib/development/c-bowler.X/dist/default/production/c-bowler.X.a(PidVelocity.o)
 .debug_aranges
                0x000014b8       0x20 /home/opt/microchip/xc32/v1.00/bin/../lib/gcc/pic32mx/4.5.1/libgcc.a(floatunsisf.o)
 .debug_aranges
                0x000014d8       0x20 /home/opt/microchip/xc32/v1.00/bin/../lib/gcc/pic32mx/4.5.1/../../../../pic32mx/lib/libc.a(default-bootstrap-exception-handler.o)
 .debug_aranges
                0x000014f8       0x20 /home/opt/microchip/xc32/v1.00/bin/../lib/gcc/pic32mx/4.5.1/../../../../pic32mx/lib/libc.a(default-on-reset.o)
 .debug_aranges
                0x00001518       0x20 /home/opt/microchip/xc32/v1.00/bin/../lib/gcc/pic32mx/4.5.1/../../../../pic32mx/lib/libc.a(default-on-bootstrap.o)
 .debug_aranges
                0x00001538       0x20 /home/opt/microchip/xc32/v1.00/bin/../lib/gcc/pic32mx/4.5.1/../../../../pic32mx/lib/libmchp_peripheral_32MX440F128H.a(soft_reset_lib.o)
 .debug_aranges
                0x00001558       0x20 /home/opt/microchip/xc32/v1.00/bin/../lib/gcc/pic32mx/4.5.1/../../../../pic32mx/lib/libmchp_peripheral_32MX440F128H.a(int_enable_interrupts_lib.o)
 .debug_aranges
                0x00001578       0x20 /home/opt/microchip/xc32/v1.00/bin/../lib/gcc/pic32mx/4.5.1/../../../../pic32mx/lib/libmchp_peripheral_32MX440F128H.a(int_disable_interrupts_lib.o)
 .debug_aranges
                0x00001598       0x20 /home/opt/microchip/xc32/v1.00/bin/../lib/gcc/pic32mx/4.5.1/../../../../pic32mx/lib/libmchp_peripheral_32MX440F128H.a(int_enable_mv_int_lib.o)
 .debug_aranges
                0x000015b8       0x60 /home/opt/microchip/xc32/v1.00/bin/../lib/gcc/pic32mx/4.5.1/../../../../pic32mx/lib/libmchp_peripheral_32MX440F128H.a(int_tbl_lib.o)
 .debug_aranges
                0x00001618       0x20 /home/opt/microchip/xc32/v1.00/bin/../lib/gcc/pic32mx/4.5.1/../../../../pic32mx/lib/libmchp_peripheral_32MX440F128H.a(spi_getc_spi2_lib_legacy.o)
 .debug_aranges
                0x00001638       0x20 /home/opt/microchip/xc32/v1.00/bin/../lib/gcc/pic32mx/4.5.1/../../../../pic32mx/lib/libmchp_peripheral_32MX440F128H.a(spi_open_spi2_lib_legacy.o)
 .debug_aranges
                0x00001658       0x20 /home/opt/microchip/xc32/v1.00/bin/../lib/gcc/pic32mx/4.5.1/../../../../pic32mx/lib/libmchp_peripheral_32MX440F128H.a(nvm_erase_page_lib.o)
 .debug_aranges
                0x00001678       0x20 /home/opt/microchip/xc32/v1.00/bin/../lib/gcc/pic32mx/4.5.1/../../../../pic32mx/lib/libmchp_peripheral_32MX440F128H.a(nvm_operation_lib.o)
 .debug_aranges
                0x00001698       0x20 /home/opt/microchip/xc32/v1.00/bin/../lib/gcc/pic32mx/4.5.1/../../../../pic32mx/lib/libmchp_peripheral_32MX440F128H.a(nvm_write_word_lib.o)
 .debug_aranges
                0x000016b8       0x20 /home/opt/microchip/xc32/v1.00/bin/../lib/gcc/pic32mx/4.5.1/../../../../pic32mx/lib/libmchp_peripheral_32MX440F128H.a(port_set_pins_digital_out_lib.o)
 .debug_aranges
                0x000016d8       0x20 /home/opt/microchip/xc32/v1.00/bin/../lib/gcc/pic32mx/4.5.1/../../../../pic32mx/lib/libmchp_peripheral_32MX440F128H.a(port_clear_bits_lib.o)
 .debug_aranges
                0x000016f8       0x20 /home/opt/microchip/xc32/v1.00/bin/../lib/gcc/pic32mx/4.5.1/../../../../pic32mx/lib/libmchp_peripheral_32MX440F128H.a(port_set_bits_lib.o)
 .debug_aranges
                0x00001718       0x58 /home/opt/microchip/xc32/v1.00/bin/../lib/gcc/pic32mx/4.5.1/../../../../pic32mx/lib/libmchp_peripheral_32MX440F128H.a(uart_lib.o)
 .debug_aranges
                0x00001770       0x20 /home/opt/microchip/xc32/v1.00/bin/../lib/gcc/pic32mx/4.5.1/../../../../pic32mx/lib/libmchp_peripheral_32MX440F128H.a(int_restore_interrupts_lib.o)

.debug_pubnames
                0x00000000     0x3480
 *(.debug_pubnames)
 .debug_pubnames
                0x00000000       0x26 build/default/production/_ext/108654538/PinFunctions.o
 .debug_pubnames
                0x00000026       0x44 build/default/production/_ext/805493626/Debug_DyIO.o
 .debug_pubnames
                0x0000006a       0x52 build/default/production/_ext/805493626/Namespace_bcs_io.o
 .debug_pubnames
                0x000000bc      0x28c build/default/production/_ext/805493626/Abstract_bcs_io.o
 .debug_pubnames
                0x00000348      0x191 build/default/production/_ext/805493626/Bcs_IO_AdvancedAsync.o
 .debug_pubnames
                0x000004d9       0xa6 build/default/production/_ext/1051272628/Abstract_bcs_io_setmode.o
 .debug_pubnames
                0x0000057f       0x65 build/default/production/_ext/1051272628/Namespace_bcs_io_setmode.o
 .debug_pubnames
                0x000005e4       0xb3 build/default/production/_ext/1825615050/CartesianController.o
 .debug_pubnames
                0x00000697       0xff build/default/production/_ext/1825615050/PID.o
 .debug_pubnames
                0x00000796       0x9c build/default/production/_ext/1978776677/UpstreamPackets.o
 .debug_pubnames
                0x00000832       0x54 build/default/production/_ext/1978776677/InitializationCallbacks.o
 .debug_pubnames
                0x00000886      0x1c3 build/default/production/_ext/1978776677/DownStreamPackets.o
 .debug_pubnames
                0x00000a49       0x4c build/default/production/_ext/1978776677/AsyncManager.o
 .debug_pubnames
                0x00000a95       0xd0 build/default/production/_ext/990863823/AVRInterface.o
 .debug_pubnames
                0x00000b65       0x34 build/default/production/_ext/990863823/Switches.o
 .debug_pubnames
                0x00000b99       0x9f build/default/production/_ext/990863823/DyIODataTableManager.o
 .debug_pubnames
                0x00000c38      0x12e build/default/production/_ext/990863823/CoProcCom.o
 .debug_pubnames
                0x00000d66      0x123 build/default/production/_ext/990863823/ADC.o
 .debug_pubnames
                0x00000e89      0x1f9 build/default/production/_ext/990863823/Counter.o
 .debug_pubnames
                0x00001082       0xa5 build/default/production/_ext/990863823/EEPROMMannager.o
 .debug_pubnames
                0x00001127       0x2e build/default/production/_ext/990863823/SerialPassThrough.o
 .debug_pubnames
                0x00001155       0x74 build/default/production/_ext/990863823/SPI.o
 .debug_pubnames
                0x000011c9       0x9e build/default/production/_ext/990863823/PPMReader.o
 .debug_pubnames
                0x00001267       0x28 build/default/production/_ext/1020318379/Pin_State.o
 .debug_pubnames
                0x0000128f       0x24 build/default/production/_ext/1020318379/ChannelConfig.o
 .debug_pubnames
                0x000012b3       0x92 build/default/production/_ext/1020318379/ChannelValues.o
 .debug_pubnames
                0x00001345       0x6f build/default/production/_ext/1020318379/ChannelMode.o
 .debug_pubnames
                0x000013b4       0x86 build/default/production/_ext/1281821416/Namespace_bcs_safe.o
 .debug_pubnames
                0x0000143a      0x142 build/default/production/_ext/321196743/Namespace_neuronrobotics_dyio.o
 .debug_pubnames
                0x0000157c       0xa7 build/default/production/_ext/321196743/Namespace_bcs_pid_dypid.o
 .debug_pubnames
                0x00001623       0x1b build/default/production/_ext/1360937237/Main.o
 .debug_pubnames
                0x0000163e       0x3f build/default/production/_ext/1360937237/DyIOMain.o
 .debug_pubnames
                0x0000167d       0x9f ../../../../../c-bowler/firmware/library/NR-Clib/development/c-bowler.X/dist/default/production/c-bowler.X.a(BowlerPacketParser.o)
 .debug_pubnames
                0x0000171c       0xf3 ../../../../../c-bowler/firmware/library/NR-Clib/development/c-bowler.X/dist/default/production/c-bowler.X.a(Namespace_bcs_core.o)
 .debug_pubnames
                0x0000180f       0x9f ../../../../../c-bowler/firmware/library/NR-Clib/development/c-bowler.X/dist/default/production/c-bowler.X.a(Bowler_Server.o)
 .debug_pubnames
                0x000018ae      0x1be ../../../../../c-bowler/firmware/library/NR-Clib/development/c-bowler.X/dist/default/production/c-bowler.X.a(Debug.o)
 .debug_pubnames
                0x00001a6c      0x154 ../../../../../c-bowler/firmware/library/NR-Clib/development/c-bowler.X/dist/default/production/c-bowler.X.a(FIFO.o)
 .debug_pubnames
                0x00001bc0      0x136 ../../../../../c-bowler/firmware/library/NR-Clib/development/c-bowler.X/dist/default/production/c-bowler.X.a(Bowler_Helper.o)
 .debug_pubnames
                0x00001cf6       0x1f ../../../../../c-bowler/firmware/library/NR-Clib/development/c-bowler.X/dist/default/production/c-bowler.X.a(Scheduler.o)
 .debug_pubnames
                0x00001d15       0x48 ../../../../../c-bowler/firmware/library/NR-Clib/development/c-bowler.X/dist/default/production/c-bowler.X.a(Namespace_bcs_pid.o)
 .debug_pubnames
                0x00001d5d      0x2df ../../../../../c-bowler/firmware/library/NR-Clib/development/c-bowler.X/dist/default/production/c-bowler.X.a(AbstractPID.o)
 .debug_pubnames
                0x0000203c       0xfc ../../../../../c-bowler/firmware/library/NR-Clib/development/c-bowler.X/dist/default/production/c-bowler.X.a(usb_fifo.o)
 .debug_pubnames
                0x00002138      0x3d5 ../../../../../c-bowler/firmware/library/NR-Clib/development/c-bowler.X/dist/default/production/c-bowler.X.a(usb_device.o)
 .debug_pubnames
                0x0000250d       0x50 ../../../../../c-bowler/firmware/library/NR-Clib/development/c-bowler.X/dist/default/production/c-bowler.X.a(LED.o)
 .debug_pubnames
                0x0000255d       0x52 ../../../../../c-bowler/firmware/library/NR-Clib/development/c-bowler.X/dist/default/production/c-bowler.X.a(ADC.o)
 .debug_pubnames
                0x000025af      0x10c ../../../../../c-bowler/firmware/library/NR-Clib/development/c-bowler.X/dist/default/production/c-bowler.X.a(HAL_P32.o)
 .debug_pubnames
                0x000026bb       0x5d ../../../../../c-bowler/firmware/library/NR-Clib/development/c-bowler.X/dist/default/production/c-bowler.X.a(Delay.o)
 .debug_pubnames
                0x00002718       0x4c ../../../../../c-bowler/firmware/library/NR-Clib/development/c-bowler.X/dist/default/production/c-bowler.X.a(Bowler_USB_HAL.o)
 .debug_pubnames
                0x00002764      0x13a ../../../../../c-bowler/firmware/library/NR-Clib/development/c-bowler.X/dist/default/production/c-bowler.X.a(FlashStorage.o)
 .debug_pubnames
                0x0000289e       0xe8 ../../../../../c-bowler/firmware/library/NR-Clib/development/c-bowler.X/dist/default/production/c-bowler.X.a(Bowler_UART_HAL.o)
 .debug_pubnames
                0x00002986       0x8d ../../../../../c-bowler/firmware/library/NR-Clib/development/c-bowler.X/dist/default/production/c-bowler.X.a(Tick.o)
 .debug_pubnames
                0x00002a13       0x4e ../../../../../c-bowler/firmware/library/NR-Clib/development/c-bowler.X/dist/default/production/c-bowler.X.a(UART.o)
 .debug_pubnames
                0x00002a61       0x3f ../../../../../c-bowler/firmware/library/NR-Clib/development/c-bowler.X/dist/default/production/c-bowler.X.a(Namespace_bcs_rpc.o)
 .debug_pubnames
                0x00002aa0       0xb4 ../../../../../c-bowler/firmware/library/NR-Clib/development/c-bowler.X/dist/default/production/c-bowler.X.a(PidRpc.o)
 .debug_pubnames
                0x00002b54      0x11f ../../../../../c-bowler/firmware/library/NR-Clib/development/c-bowler.X/dist/default/production/c-bowler.X.a(PidHysteresis.o)
 .debug_pubnames
                0x00002c73       0x5f ../../../../../c-bowler/firmware/library/NR-Clib/development/c-bowler.X/dist/default/production/c-bowler.X.a(PidAsync.o)
 .debug_pubnames
                0x00002cd2       0xfc ../../../../../c-bowler/firmware/library/NR-Clib/development/c-bowler.X/dist/default/production/c-bowler.X.a(usb_callback.o)
 .debug_pubnames
                0x00002dce      0x1b1 ../../../../../c-bowler/firmware/library/NR-Clib/development/c-bowler.X/dist/default/production/c-bowler.X.a(usb_function_cdc.o)
 .debug_pubnames
                0x00002f7f       0xc2 ../../../../../c-bowler/firmware/library/NR-Clib/development/c-bowler.X/dist/default/production/c-bowler.X.a(usb_descriptors.o)
 .debug_pubnames
                0x00003041       0x39 ../../../../../c-bowler/firmware/library/NR-Clib/development/c-bowler.X/dist/default/production/c-bowler.X.a(PidVelocity.o)
 .debug_pubnames
                0x0000307a       0x24 /home/opt/microchip/xc32/v1.00/bin/../lib/gcc/pic32mx/4.5.1/libgcc.a(floatunsisf.o)
 .debug_pubnames
                0x0000309e       0x33 /home/opt/microchip/xc32/v1.00/bin/../lib/gcc/pic32mx/4.5.1/../../../../pic32mx/lib/libc.a(default-bootstrap-exception-handler.o)
 .debug_pubnames
                0x000030d1       0x20 /home/opt/microchip/xc32/v1.00/bin/../lib/gcc/pic32mx/4.5.1/../../../../pic32mx/lib/libc.a(default-on-reset.o)
 .debug_pubnames
                0x000030f1       0x24 /home/opt/microchip/xc32/v1.00/bin/../lib/gcc/pic32mx/4.5.1/../../../../pic32mx/lib/libc.a(default-on-bootstrap.o)
 .debug_pubnames
                0x00003115       0x20 /home/opt/microchip/xc32/v1.00/bin/../lib/gcc/pic32mx/4.5.1/../../../../pic32mx/lib/libmchp_peripheral_32MX440F128H.a(soft_reset_lib.o)
 .debug_pubnames
                0x00003135       0x2a /home/opt/microchip/xc32/v1.00/bin/../lib/gcc/pic32mx/4.5.1/../../../../pic32mx/lib/libmchp_peripheral_32MX440F128H.a(int_enable_interrupts_lib.o)
 .debug_pubnames
                0x0000315f       0x2b /home/opt/microchip/xc32/v1.00/bin/../lib/gcc/pic32mx/4.5.1/../../../../pic32mx/lib/libmchp_peripheral_32MX440F128H.a(int_disable_interrupts_lib.o)
 .debug_pubnames
                0x0000318a       0x36 /home/opt/microchip/xc32/v1.00/bin/../lib/gcc/pic32mx/4.5.1/../../../../pic32mx/lib/libmchp_peripheral_32MX440F128H.a(int_enable_mv_int_lib.o)
 .debug_pubnames
                0x000031c0       0xca /home/opt/microchip/xc32/v1.00/bin/../lib/gcc/pic32mx/4.5.1/../../../../pic32mx/lib/libmchp_peripheral_32MX440F128H.a(int_tbl_lib.o)
 .debug_pubnames
                0x0000328a       0x1f /home/opt/microchip/xc32/v1.00/bin/../lib/gcc/pic32mx/4.5.1/../../../../pic32mx/lib/libmchp_peripheral_32MX440F128H.a(spi_getc_spi2_lib_legacy.o)
 .debug_pubnames
                0x000032a9       0x1f /home/opt/microchip/xc32/v1.00/bin/../lib/gcc/pic32mx/4.5.1/../../../../pic32mx/lib/libmchp_peripheral_32MX440F128H.a(spi_open_spi2_lib_legacy.o)
 .debug_pubnames
                0x000032c8       0x23 /home/opt/microchip/xc32/v1.00/bin/../lib/gcc/pic32mx/4.5.1/../../../../pic32mx/lib/libmchp_peripheral_32MX440F128H.a(nvm_erase_page_lib.o)
 .debug_pubnames
                0x000032eb       0x24 /home/opt/microchip/xc32/v1.00/bin/../lib/gcc/pic32mx/4.5.1/../../../../pic32mx/lib/libmchp_peripheral_32MX440F128H.a(nvm_operation_lib.o)
 .debug_pubnames
                0x0000330f       0x23 /home/opt/microchip/xc32/v1.00/bin/../lib/gcc/pic32mx/4.5.1/../../../../pic32mx/lib/libmchp_peripheral_32MX440F128H.a(nvm_write_word_lib.o)
 .debug_pubnames
                0x00003332       0x2c /home/opt/microchip/xc32/v1.00/bin/../lib/gcc/pic32mx/4.5.1/../../../../pic32mx/lib/libmchp_peripheral_32MX440F128H.a(port_set_pins_digital_out_lib.o)
 .debug_pubnames
                0x0000335e       0x24 /home/opt/microchip/xc32/v1.00/bin/../lib/gcc/pic32mx/4.5.1/../../../../pic32mx/lib/libmchp_peripheral_32MX440F128H.a(port_clear_bits_lib.o)
 .debug_pubnames
                0x00003382       0x22 /home/opt/microchip/xc32/v1.00/bin/../lib/gcc/pic32mx/4.5.1/../../../../pic32mx/lib/libmchp_peripheral_32MX440F128H.a(port_set_bits_lib.o)
 .debug_pubnames
                0x000033a4       0xb1 /home/opt/microchip/xc32/v1.00/bin/../lib/gcc/pic32mx/4.5.1/../../../../pic32mx/lib/libmchp_peripheral_32MX440F128H.a(uart_lib.o)
 .debug_pubnames
                0x00003455       0x2b /home/opt/microchip/xc32/v1.00/bin/../lib/gcc/pic32mx/4.5.1/../../../../pic32mx/lib/libmchp_peripheral_32MX440F128H.a(int_restore_interrupts_lib.o)

.debug_info     0x00000000    0x5f2b2
 *(.debug_info .gnu.linkonce.wi.*)
 .debug_info    0x00000000     0x160f build/default/production/_ext/108654538/PinFunctions.o
 .debug_info    0x0000160f     0x1301 build/default/production/_ext/805493626/Debug_DyIO.o
 .debug_info    0x00002910     0x1829 build/default/production/_ext/805493626/Namespace_bcs_io.o
 .debug_info    0x00004139     0x214a build/default/production/_ext/805493626/Abstract_bcs_io.o
 .debug_info    0x00006283     0x1a2f build/default/production/_ext/805493626/Bcs_IO_AdvancedAsync.o
 .debug_info    0x00007cb2     0x15fa build/default/production/_ext/1051272628/Abstract_bcs_io_setmode.o
 .debug_info    0x000092ac     0x16d0 build/default/production/_ext/1051272628/Namespace_bcs_io_setmode.o
 .debug_info    0x0000a97c     0x1241 build/default/production/_ext/1825615050/CartesianController.o
 .debug_info    0x0000bbbd     0x1f92 build/default/production/_ext/1825615050/PID.o
 .debug_info    0x0000db4f     0x1725 build/default/production/_ext/1978776677/UpstreamPackets.o
 .debug_info    0x0000f274     0x1dbd build/default/production/_ext/1978776677/InitializationCallbacks.o
 .debug_info    0x00011031     0x1c6c build/default/production/_ext/1978776677/DownStreamPackets.o
 .debug_info    0x00012c9d     0x13b2 build/default/production/_ext/1978776677/AsyncManager.o
 .debug_info    0x0001404f      0xf61 build/default/production/_ext/2110062566/UartDMARx.o
 .debug_info    0x00014fb0     0x12d7 build/default/production/_ext/990863823/AVRInterface.o
 .debug_info    0x00016287     0x1377 build/default/production/_ext/990863823/Switches.o
 .debug_info    0x000175fe     0x151d build/default/production/_ext/990863823/DyIODataTableManager.o
 .debug_info    0x00018b1b     0x2b9a build/default/production/_ext/990863823/CoProcCom.o
 .debug_info    0x0001b6b5     0x1684 build/default/production/_ext/990863823/ADC.o
 .debug_info    0x0001cd39     0x212d build/default/production/_ext/990863823/Counter.o
 .debug_info    0x0001ee66     0x1b48 build/default/production/_ext/990863823/EEPROMMannager.o
 .debug_info    0x000209ae     0x1135 build/default/production/_ext/990863823/SerialPassThrough.o
 .debug_info    0x00021ae3     0x1628 build/default/production/_ext/990863823/SPI.o
 .debug_info    0x0002310b     0x1ad2 build/default/production/_ext/990863823/PPMReader.o
 .debug_info    0x00024bdd     0x1340 build/default/production/_ext/1020318379/Pin_State.o
 .debug_info    0x00025f1d     0x1150 build/default/production/_ext/1020318379/ChannelConfig.o
 .debug_info    0x0002706d     0x1287 build/default/production/_ext/1020318379/ChannelValues.o
 .debug_info    0x000282f4     0x1351 build/default/production/_ext/1020318379/ChannelMode.o
 .debug_info    0x00029645      0xf66 build/default/production/_ext/1281821416/Abstract_bsc_safe.o
 .debug_info    0x0002a5ab     0x17d3 build/default/production/_ext/1281821416/Namespace_bcs_safe.o
 .debug_info    0x0002bd7e     0x1ad3 build/default/production/_ext/321196743/Namespace_neuronrobotics_dyio.o
 .debug_info    0x0002d851     0x17c7 build/default/production/_ext/321196743/Namespace_bcs_pid_dypid.o
 .debug_info    0x0002f018      0xf6c build/default/production/_ext/1360937237/Main.o
 .debug_info    0x0002ff84     0x1610 build/default/production/_ext/1360937237/DyIOMain.o
 .debug_info    0x00031594     0x151a ../../../../../c-bowler/firmware/library/NR-Clib/development/c-bowler.X/dist/default/production/c-bowler.X.a(BowlerPacketParser.o)
 .debug_info    0x00032aae     0x19e0 ../../../../../c-bowler/firmware/library/NR-Clib/development/c-bowler.X/dist/default/production/c-bowler.X.a(Namespace_bcs_core.o)
 .debug_info    0x0003448e     0x196c ../../../../../c-bowler/firmware/library/NR-Clib/development/c-bowler.X/dist/default/production/c-bowler.X.a(Bowler_Server.o)
 .debug_info    0x00035dfa     0x1b34 ../../../../../c-bowler/firmware/library/NR-Clib/development/c-bowler.X/dist/default/production/c-bowler.X.a(Debug.o)
 .debug_info    0x0003792e     0x17f3 ../../../../../c-bowler/firmware/library/NR-Clib/development/c-bowler.X/dist/default/production/c-bowler.X.a(FIFO.o)
 .debug_info    0x00039121     0x19e6 ../../../../../c-bowler/firmware/library/NR-Clib/development/c-bowler.X/dist/default/production/c-bowler.X.a(Bowler_Helper.o)
 .debug_info    0x0003ab07     0x1012 ../../../../../c-bowler/firmware/library/NR-Clib/development/c-bowler.X/dist/default/production/c-bowler.X.a(Scheduler.o)
 .debug_info    0x0003bb19     0x17b7 ../../../../../c-bowler/firmware/library/NR-Clib/development/c-bowler.X/dist/default/production/c-bowler.X.a(Namespace_bcs_pid.o)
 .debug_info    0x0003d2d0     0x2553 ../../../../../c-bowler/firmware/library/NR-Clib/development/c-bowler.X/dist/default/production/c-bowler.X.a(AbstractPID.o)
 .debug_info    0x0003f823     0x1b4c ../../../../../c-bowler/firmware/library/NR-Clib/development/c-bowler.X/dist/default/production/c-bowler.X.a(usb_fifo.o)
 .debug_info    0x0004136f     0x364b ../../../../../c-bowler/firmware/library/NR-Clib/development/c-bowler.X/dist/default/production/c-bowler.X.a(usb_device.o)
 .debug_info    0x000449ba     0x117a ../../../../../c-bowler/firmware/library/NR-Clib/development/c-bowler.X/dist/default/production/c-bowler.X.a(LED.o)
 .debug_info    0x00045b34     0x1b87 ../../../../../c-bowler/firmware/library/NR-Clib/development/c-bowler.X/dist/default/production/c-bowler.X.a(ADC.o)
 .debug_info    0x000476bb     0x18cc ../../../../../c-bowler/firmware/library/NR-Clib/development/c-bowler.X/dist/default/production/c-bowler.X.a(HAL_P32.o)
 .debug_info    0x00048f87     0x1086 ../../../../../c-bowler/firmware/library/NR-Clib/development/c-bowler.X/dist/default/production/c-bowler.X.a(Delay.o)
 .debug_info    0x0004a00d     0x1063 ../../../../../c-bowler/firmware/library/NR-Clib/development/c-bowler.X/dist/default/production/c-bowler.X.a(Bowler_USB_HAL.o)
 .debug_info    0x0004b070     0x1777 ../../../../../c-bowler/firmware/library/NR-Clib/development/c-bowler.X/dist/default/production/c-bowler.X.a(FlashStorage.o)
 .debug_info    0x0004c7e7     0x24f3 ../../../../../c-bowler/firmware/library/NR-Clib/development/c-bowler.X/dist/default/production/c-bowler.X.a(Bowler_UART_HAL.o)
 .debug_info    0x0004ecda     0x1469 ../../../../../c-bowler/firmware/library/NR-Clib/development/c-bowler.X/dist/default/production/c-bowler.X.a(Tick.o)
 .debug_info    0x00050143     0x16cc ../../../../../c-bowler/firmware/library/NR-Clib/development/c-bowler.X/dist/default/production/c-bowler.X.a(UART.o)
 .debug_info    0x0005180f     0x1814 ../../../../../c-bowler/firmware/library/NR-Clib/development/c-bowler.X/dist/default/production/c-bowler.X.a(Namespace_bcs_rpc.o)
 .debug_info    0x00053023     0x16ad ../../../../../c-bowler/firmware/library/NR-Clib/development/c-bowler.X/dist/default/production/c-bowler.X.a(PidRpc.o)
 .debug_info    0x000546d0     0x15b7 ../../../../../c-bowler/firmware/library/NR-Clib/development/c-bowler.X/dist/default/production/c-bowler.X.a(PidHysteresis.o)
 .debug_info    0x00055c87     0x179f ../../../../../c-bowler/firmware/library/NR-Clib/development/c-bowler.X/dist/default/production/c-bowler.X.a(PidAsync.o)
 .debug_info    0x00057426     0x1c5b ../../../../../c-bowler/firmware/library/NR-Clib/development/c-bowler.X/dist/default/production/c-bowler.X.a(usb_callback.o)
 .debug_info    0x00059081     0x28e2 ../../../../../c-bowler/firmware/library/NR-Clib/development/c-bowler.X/dist/default/production/c-bowler.X.a(usb_function_cdc.o)
 .debug_info    0x0005b963     0x1696 ../../../../../c-bowler/firmware/library/NR-Clib/development/c-bowler.X/dist/default/production/c-bowler.X.a(usb_descriptors.o)
 .debug_info    0x0005cff9     0x1213 ../../../../../c-bowler/firmware/library/NR-Clib/development/c-bowler.X/dist/default/production/c-bowler.X.a(PidVelocity.o)
 .debug_info    0x0005e20c      0x146 /home/opt/microchip/xc32/v1.00/bin/../lib/gcc/pic32mx/4.5.1/libgcc.a(floatunsisf.o)
 .debug_info    0x0005e352       0xcb /home/opt/microchip/xc32/v1.00/bin/../lib/gcc/pic32mx/4.5.1/../../../../pic32mx/lib/libc.a(default-bootstrap-exception-handler.o)
 .debug_info    0x0005e41d       0xa5 /home/opt/microchip/xc32/v1.00/bin/../lib/gcc/pic32mx/4.5.1/../../../../pic32mx/lib/libc.a(default-on-reset.o)
 .debug_info    0x0005e4c2       0xad /home/opt/microchip/xc32/v1.00/bin/../lib/gcc/pic32mx/4.5.1/../../../../pic32mx/lib/libc.a(default-on-bootstrap.o)
 .debug_info    0x0005e56f       0xc7 /home/opt/microchip/xc32/v1.00/bin/../lib/gcc/pic32mx/4.5.1/../../../../pic32mx/lib/libmchp_peripheral_32MX440F128H.a(soft_reset_lib.o)
 .debug_info    0x0005e636       0xc9 /home/opt/microchip/xc32/v1.00/bin/../lib/gcc/pic32mx/4.5.1/../../../../pic32mx/lib/libmchp_peripheral_32MX440F128H.a(int_enable_interrupts_lib.o)
 .debug_info    0x0005e6ff       0xcb /home/opt/microchip/xc32/v1.00/bin/../lib/gcc/pic32mx/4.5.1/../../../../pic32mx/lib/libmchp_peripheral_32MX440F128H.a(int_disable_interrupts_lib.o)
 .debug_info    0x0005e7ca       0xd1 /home/opt/microchip/xc32/v1.00/bin/../lib/gcc/pic32mx/4.5.1/../../../../pic32mx/lib/libmchp_peripheral_32MX440F128H.a(int_enable_mv_int_lib.o)
 .debug_info    0x0005e89b      0x1ab /home/opt/microchip/xc32/v1.00/bin/../lib/gcc/pic32mx/4.5.1/../../../../pic32mx/lib/libmchp_peripheral_32MX440F128H.a(int_tbl_lib.o)
 .debug_info    0x0005ea46       0xbd /home/opt/microchip/xc32/v1.00/bin/../lib/gcc/pic32mx/4.5.1/../../../../pic32mx/lib/libmchp_peripheral_32MX440F128H.a(spi_getc_spi2_lib_legacy.o)
 .debug_info    0x0005eb03       0xbd /home/opt/microchip/xc32/v1.00/bin/../lib/gcc/pic32mx/4.5.1/../../../../pic32mx/lib/libmchp_peripheral_32MX440F128H.a(spi_open_spi2_lib_legacy.o)
 .debug_info    0x0005ebc0        0x0 /home/opt/microchip/xc32/v1.00/bin/../lib/gcc/pic32mx/4.5.1/../../../../pic32mx/lib/libmchp_peripheral_32MX440F128H.a(spi_brg_tbl_lib_legacy.o)
 .debug_info    0x0005ebc0       0xbb /home/opt/microchip/xc32/v1.00/bin/../lib/gcc/pic32mx/4.5.1/../../../../pic32mx/lib/libmchp_peripheral_32MX440F128H.a(nvm_erase_page_lib.o)
 .debug_info    0x0005ec7b       0xdc /home/opt/microchip/xc32/v1.00/bin/../lib/gcc/pic32mx/4.5.1/../../../../pic32mx/lib/libmchp_peripheral_32MX440F128H.a(nvm_operation_lib.o)
 .debug_info    0x0005ed57       0xbb /home/opt/microchip/xc32/v1.00/bin/../lib/gcc/pic32mx/4.5.1/../../../../pic32mx/lib/libmchp_peripheral_32MX440F128H.a(nvm_write_word_lib.o)
 .debug_info    0x0005ee12       0xd1 /home/opt/microchip/xc32/v1.00/bin/../lib/gcc/pic32mx/4.5.1/../../../../pic32mx/lib/libmchp_peripheral_32MX440F128H.a(port_set_pins_digital_out_lib.o)
 .debug_info    0x0005eee3       0xbf /home/opt/microchip/xc32/v1.00/bin/../lib/gcc/pic32mx/4.5.1/../../../../pic32mx/lib/libmchp_peripheral_32MX440F128H.a(port_clear_bits_lib.o)
 .debug_info    0x0005efa2       0xbb /home/opt/microchip/xc32/v1.00/bin/../lib/gcc/pic32mx/4.5.1/../../../../pic32mx/lib/libmchp_peripheral_32MX440F128H.a(port_set_bits_lib.o)
 .debug_info    0x0005f05d        0x0 /home/opt/microchip/xc32/v1.00/bin/../lib/gcc/pic32mx/4.5.1/../../../../pic32mx/lib/libmchp_peripheral_32MX440F128H.a(_ports_tbl_libp.o)
 .debug_info    0x0005f05d      0x18a /home/opt/microchip/xc32/v1.00/bin/../lib/gcc/pic32mx/4.5.1/../../../../pic32mx/lib/libmchp_peripheral_32MX440F128H.a(uart_lib.o)
 .debug_info    0x0005f1e7       0xcb /home/opt/microchip/xc32/v1.00/bin/../lib/gcc/pic32mx/4.5.1/../../../../pic32mx/lib/libmchp_peripheral_32MX440F128H.a(int_restore_interrupts_lib.o)

.debug_abbrev   0x00000000     0x924d
 *(.debug_abbrev)
 .debug_abbrev  0x00000000      0x1da build/default/production/_ext/108654538/PinFunctions.o
 .debug_abbrev  0x000001da      0x1fb build/default/production/_ext/805493626/Debug_DyIO.o
 .debug_abbrev  0x000003d5      0x264 build/default/production/_ext/805493626/Namespace_bcs_io.o
 .debug_abbrev  0x00000639      0x35e build/default/production/_ext/805493626/Abstract_bcs_io.o
 .debug_abbrev  0x00000997      0x2a9 build/default/production/_ext/805493626/Bcs_IO_AdvancedAsync.o
 .debug_abbrev  0x00000c40      0x248 build/default/production/_ext/1051272628/Abstract_bcs_io_setmode.o
 .debug_abbrev  0x00000e88      0x246 build/default/production/_ext/1051272628/Namespace_bcs_io_setmode.o
 .debug_abbrev  0x000010ce      0x207 build/default/production/_ext/1825615050/CartesianController.o
 .debug_abbrev  0x000012d5      0x288 build/default/production/_ext/1825615050/PID.o
 .debug_abbrev  0x0000155d      0x261 build/default/production/_ext/1978776677/UpstreamPackets.o
 .debug_abbrev  0x000017be      0x255 build/default/production/_ext/1978776677/InitializationCallbacks.o
 .debug_abbrev  0x00001a13      0x310 build/default/production/_ext/1978776677/DownStreamPackets.o
 .debug_abbrev  0x00001d23      0x24b build/default/production/_ext/1978776677/AsyncManager.o
 .debug_abbrev  0x00001f6e      0x166 build/default/production/_ext/2110062566/UartDMARx.o
 .debug_abbrev  0x000020d4      0x1f6 build/default/production/_ext/990863823/AVRInterface.o
 .debug_abbrev  0x000022ca      0x1f3 build/default/production/_ext/990863823/Switches.o
 .debug_abbrev  0x000024bd      0x253 build/default/production/_ext/990863823/DyIODataTableManager.o
 .debug_abbrev  0x00002710      0x399 build/default/production/_ext/990863823/CoProcCom.o
 .debug_abbrev  0x00002aa9      0x273 build/default/production/_ext/990863823/ADC.o
 .debug_abbrev  0x00002d1c      0x2b0 build/default/production/_ext/990863823/Counter.o
 .debug_abbrev  0x00002fcc      0x24b build/default/production/_ext/990863823/EEPROMMannager.o
 .debug_abbrev  0x00003217      0x1d8 build/default/production/_ext/990863823/SerialPassThrough.o
 .debug_abbrev  0x000033ef      0x24b build/default/production/_ext/990863823/SPI.o
 .debug_abbrev  0x0000363a      0x262 build/default/production/_ext/990863823/PPMReader.o
 .debug_abbrev  0x0000389c      0x1dc build/default/production/_ext/1020318379/Pin_State.o
 .debug_abbrev  0x00003a78      0x1f2 build/default/production/_ext/1020318379/ChannelConfig.o
 .debug_abbrev  0x00003c6a      0x1fb build/default/production/_ext/1020318379/ChannelValues.o
 .debug_abbrev  0x00003e65      0x201 build/default/production/_ext/1020318379/ChannelMode.o
 .debug_abbrev  0x00004066      0x166 build/default/production/_ext/1281821416/Abstract_bsc_safe.o
 .debug_abbrev  0x000041cc      0x291 build/default/production/_ext/1281821416/Namespace_bcs_safe.o
 .debug_abbrev  0x0000445d      0x2f2 build/default/production/_ext/321196743/Namespace_neuronrobotics_dyio.o
 .debug_abbrev  0x0000474f      0x275 build/default/production/_ext/321196743/Namespace_bcs_pid_dypid.o
 .debug_abbrev  0x000049c4      0x17f build/default/production/_ext/1360937237/Main.o
 .debug_abbrev  0x00004b43      0x234 build/default/production/_ext/1360937237/DyIOMain.o
 .debug_abbrev  0x00004d77      0x253 ../../../../../c-bowler/firmware/library/NR-Clib/development/c-bowler.X/dist/default/production/c-bowler.X.a(BowlerPacketParser.o)
 .debug_abbrev  0x00004fca      0x2d5 ../../../../../c-bowler/firmware/library/NR-Clib/development/c-bowler.X/dist/default/production/c-bowler.X.a(Namespace_bcs_core.o)
 .debug_abbrev  0x0000529f      0x2c0 ../../../../../c-bowler/firmware/library/NR-Clib/development/c-bowler.X/dist/default/production/c-bowler.X.a(Bowler_Server.o)
 .debug_abbrev  0x0000555f      0x2db ../../../../../c-bowler/firmware/library/NR-Clib/development/c-bowler.X/dist/default/production/c-bowler.X.a(Debug.o)
 .debug_abbrev  0x0000583a      0x25d ../../../../../c-bowler/firmware/library/NR-Clib/development/c-bowler.X/dist/default/production/c-bowler.X.a(FIFO.o)
 .debug_abbrev  0x00005a97      0x277 ../../../../../c-bowler/firmware/library/NR-Clib/development/c-bowler.X/dist/default/production/c-bowler.X.a(Bowler_Helper.o)
 .debug_abbrev  0x00005d0e      0x1ae ../../../../../c-bowler/firmware/library/NR-Clib/development/c-bowler.X/dist/default/production/c-bowler.X.a(Scheduler.o)
 .debug_abbrev  0x00005ebc      0x235 ../../../../../c-bowler/firmware/library/NR-Clib/development/c-bowler.X/dist/default/production/c-bowler.X.a(Namespace_bcs_pid.o)
 .debug_abbrev  0x000060f1      0x34f ../../../../../c-bowler/firmware/library/NR-Clib/development/c-bowler.X/dist/default/production/c-bowler.X.a(AbstractPID.o)
 .debug_abbrev  0x00006440      0x2a5 ../../../../../c-bowler/firmware/library/NR-Clib/development/c-bowler.X/dist/default/production/c-bowler.X.a(usb_fifo.o)
 .debug_abbrev  0x000066e5      0x2c8 ../../../../../c-bowler/firmware/library/NR-Clib/development/c-bowler.X/dist/default/production/c-bowler.X.a(usb_device.o)
 .debug_abbrev  0x000069ad      0x1b9 ../../../../../c-bowler/firmware/library/NR-Clib/development/c-bowler.X/dist/default/production/c-bowler.X.a(LED.o)
 .debug_abbrev  0x00006b66      0x1dd ../../../../../c-bowler/firmware/library/NR-Clib/development/c-bowler.X/dist/default/production/c-bowler.X.a(ADC.o)
 .debug_abbrev  0x00006d43      0x28a ../../../../../c-bowler/firmware/library/NR-Clib/development/c-bowler.X/dist/default/production/c-bowler.X.a(HAL_P32.o)
 .debug_abbrev  0x00006fcd      0x1b2 ../../../../../c-bowler/firmware/library/NR-Clib/development/c-bowler.X/dist/default/production/c-bowler.X.a(Delay.o)
 .debug_abbrev  0x0000717f      0x1d6 ../../../../../c-bowler/firmware/library/NR-Clib/development/c-bowler.X/dist/default/production/c-bowler.X.a(Bowler_USB_HAL.o)
 .debug_abbrev  0x00007355      0x251 ../../../../../c-bowler/firmware/library/NR-Clib/development/c-bowler.X/dist/default/production/c-bowler.X.a(FlashStorage.o)
 .debug_abbrev  0x000075a6      0x2b2 ../../../../../c-bowler/firmware/library/NR-Clib/development/c-bowler.X/dist/default/production/c-bowler.X.a(Bowler_UART_HAL.o)
 .debug_abbrev  0x00007858      0x21c ../../../../../c-bowler/firmware/library/NR-Clib/development/c-bowler.X/dist/default/production/c-bowler.X.a(Tick.o)
 .debug_abbrev  0x00007a74      0x233 ../../../../../c-bowler/firmware/library/NR-Clib/development/c-bowler.X/dist/default/production/c-bowler.X.a(UART.o)
 .debug_abbrev  0x00007ca7      0x27e ../../../../../c-bowler/firmware/library/NR-Clib/development/c-bowler.X/dist/default/production/c-bowler.X.a(Namespace_bcs_rpc.o)
 .debug_abbrev  0x00007f25      0x23f ../../../../../c-bowler/firmware/library/NR-Clib/development/c-bowler.X/dist/default/production/c-bowler.X.a(PidRpc.o)
 .debug_abbrev  0x00008164      0x24c ../../../../../c-bowler/firmware/library/NR-Clib/development/c-bowler.X/dist/default/production/c-bowler.X.a(PidHysteresis.o)
 .debug_abbrev  0x000083b0      0x26e ../../../../../c-bowler/firmware/library/NR-Clib/development/c-bowler.X/dist/default/production/c-bowler.X.a(PidAsync.o)
 .debug_abbrev  0x0000861e      0x240 ../../../../../c-bowler/firmware/library/NR-Clib/development/c-bowler.X/dist/default/production/c-bowler.X.a(usb_callback.o)
 .debug_abbrev  0x0000885e      0x2dc ../../../../../c-bowler/firmware/library/NR-Clib/development/c-bowler.X/dist/default/production/c-bowler.X.a(usb_function_cdc.o)
 .debug_abbrev  0x00008b3a      0x21a ../../../../../c-bowler/firmware/library/NR-Clib/development/c-bowler.X/dist/default/production/c-bowler.X.a(usb_descriptors.o)
 .debug_abbrev  0x00008d54      0x1cb ../../../../../c-bowler/firmware/library/NR-Clib/development/c-bowler.X/dist/default/production/c-bowler.X.a(PidVelocity.o)
 .debug_abbrev  0x00008f1f       0x61 /home/opt/microchip/xc32/v1.00/bin/../lib/gcc/pic32mx/4.5.1/libgcc.a(floatunsisf.o)
 .debug_abbrev  0x00008f80       0x25 /home/opt/microchip/xc32/v1.00/bin/../lib/gcc/pic32mx/4.5.1/../../../../pic32mx/lib/libc.a(default-bootstrap-exception-handler.o)
 .debug_abbrev  0x00008fa5       0x25 /home/opt/microchip/xc32/v1.00/bin/../lib/gcc/pic32mx/4.5.1/../../../../pic32mx/lib/libc.a(default-on-reset.o)
 .debug_abbrev  0x00008fca       0x25 /home/opt/microchip/xc32/v1.00/bin/../lib/gcc/pic32mx/4.5.1/../../../../pic32mx/lib/libc.a(default-on-bootstrap.o)
 .debug_abbrev  0x00008fef       0x34 /home/opt/microchip/xc32/v1.00/bin/../lib/gcc/pic32mx/4.5.1/../../../../pic32mx/lib/libmchp_peripheral_32MX440F128H.a(soft_reset_lib.o)
 .debug_abbrev  0x00009023       0x25 /home/opt/microchip/xc32/v1.00/bin/../lib/gcc/pic32mx/4.5.1/../../../../pic32mx/lib/libmchp_peripheral_32MX440F128H.a(int_enable_interrupts_lib.o)
 .debug_abbrev  0x00009048       0x25 /home/opt/microchip/xc32/v1.00/bin/../lib/gcc/pic32mx/4.5.1/../../../../pic32mx/lib/libmchp_peripheral_32MX440F128H.a(int_disable_interrupts_lib.o)
 .debug_abbrev  0x0000906d       0x25 /home/opt/microchip/xc32/v1.00/bin/../lib/gcc/pic32mx/4.5.1/../../../../pic32mx/lib/libmchp_peripheral_32MX440F128H.a(int_enable_mv_int_lib.o)
 .debug_abbrev  0x00009092       0x25 /home/opt/microchip/xc32/v1.00/bin/../lib/gcc/pic32mx/4.5.1/../../../../pic32mx/lib/libmchp_peripheral_32MX440F128H.a(int_tbl_lib.o)
 .debug_abbrev  0x000090b7       0x25 /home/opt/microchip/xc32/v1.00/bin/../lib/gcc/pic32mx/4.5.1/../../../../pic32mx/lib/libmchp_peripheral_32MX440F128H.a(spi_getc_spi2_lib_legacy.o)
 .debug_abbrev  0x000090dc       0x25 /home/opt/microchip/xc32/v1.00/bin/../lib/gcc/pic32mx/4.5.1/../../../../pic32mx/lib/libmchp_peripheral_32MX440F128H.a(spi_open_spi2_lib_legacy.o)
 .debug_abbrev  0x00009101        0x1 /home/opt/microchip/xc32/v1.00/bin/../lib/gcc/pic32mx/4.5.1/../../../../pic32mx/lib/libmchp_peripheral_32MX440F128H.a(spi_brg_tbl_lib_legacy.o)
 .debug_abbrev  0x00009102       0x25 /home/opt/microchip/xc32/v1.00/bin/../lib/gcc/pic32mx/4.5.1/../../../../pic32mx/lib/libmchp_peripheral_32MX440F128H.a(nvm_erase_page_lib.o)
 .debug_abbrev  0x00009127       0x34 /home/opt/microchip/xc32/v1.00/bin/../lib/gcc/pic32mx/4.5.1/../../../../pic32mx/lib/libmchp_peripheral_32MX440F128H.a(nvm_operation_lib.o)
 .debug_abbrev  0x0000915b       0x25 /home/opt/microchip/xc32/v1.00/bin/../lib/gcc/pic32mx/4.5.1/../../../../pic32mx/lib/libmchp_peripheral_32MX440F128H.a(nvm_write_word_lib.o)
 .debug_abbrev  0x00009180       0x25 /home/opt/microchip/xc32/v1.00/bin/../lib/gcc/pic32mx/4.5.1/../../../../pic32mx/lib/libmchp_peripheral_32MX440F128H.a(port_set_pins_digital_out_lib.o)
 .debug_abbrev  0x000091a5       0x25 /home/opt/microchip/xc32/v1.00/bin/../lib/gcc/pic32mx/4.5.1/../../../../pic32mx/lib/libmchp_peripheral_32MX440F128H.a(port_clear_bits_lib.o)
 .debug_abbrev  0x000091ca       0x25 /home/opt/microchip/xc32/v1.00/bin/../lib/gcc/pic32mx/4.5.1/../../../../pic32mx/lib/libmchp_peripheral_32MX440F128H.a(port_set_bits_lib.o)
 .debug_abbrev  0x000091ef        0x1 /home/opt/microchip/xc32/v1.00/bin/../lib/gcc/pic32mx/4.5.1/../../../../pic32mx/lib/libmchp_peripheral_32MX440F128H.a(_ports_tbl_libp.o)
 .debug_abbrev  0x000091f0       0x38 /home/opt/microchip/xc32/v1.00/bin/../lib/gcc/pic32mx/4.5.1/../../../../pic32mx/lib/libmchp_peripheral_32MX440F128H.a(uart_lib.o)
 .debug_abbrev  0x00009228       0x25 /home/opt/microchip/xc32/v1.00/bin/../lib/gcc/pic32mx/4.5.1/../../../../pic32mx/lib/libmchp_peripheral_32MX440F128H.a(int_restore_interrupts_lib.o)

.debug_line     0x00000000     0xb748
 *(.debug_line)
 .debug_line    0x00000000      0x28a build/default/production/_ext/108654538/PinFunctions.o
 .debug_line    0x0000028a      0x231 build/default/production/_ext/805493626/Debug_DyIO.o
 .debug_line    0x000004bb      0x274 build/default/production/_ext/805493626/Namespace_bcs_io.o
 .debug_line    0x0000072f      0x503 build/default/production/_ext/805493626/Abstract_bcs_io.o
 .debug_line    0x00000c32      0x441 build/default/production/_ext/805493626/Bcs_IO_AdvancedAsync.o
 .debug_line    0x00001073      0x2ab build/default/production/_ext/1051272628/Abstract_bcs_io_setmode.o
 .debug_line    0x0000131e      0x25e build/default/production/_ext/1051272628/Namespace_bcs_io_setmode.o
 .debug_line    0x0000157c      0x1f0 build/default/production/_ext/1825615050/CartesianController.o
 .debug_line    0x0000176c      0x53b build/default/production/_ext/1825615050/PID.o
 .debug_line    0x00001ca7      0x35f build/default/production/_ext/1978776677/UpstreamPackets.o
 .debug_line    0x00002006      0x29d build/default/production/_ext/1978776677/InitializationCallbacks.o
 .debug_line    0x000022a3      0x575 build/default/production/_ext/1978776677/DownStreamPackets.o
 .debug_line    0x00002818      0x24d build/default/production/_ext/1978776677/AsyncManager.o
 .debug_line    0x00002a65      0x15f build/default/production/_ext/2110062566/UartDMARx.o
 .debug_line    0x00002bc4      0x23b build/default/production/_ext/990863823/AVRInterface.o
 .debug_line    0x00002dff      0x245 build/default/production/_ext/990863823/Switches.o
 .debug_line    0x00003044      0x27e build/default/production/_ext/990863823/DyIODataTableManager.o
 .debug_line    0x000032c2      0x532 build/default/production/_ext/990863823/CoProcCom.o
 .debug_line    0x000037f4      0x311 build/default/production/_ext/990863823/ADC.o
 .debug_line    0x00003b05      0x5a8 build/default/production/_ext/990863823/Counter.o
 .debug_line    0x000040ad      0x2f7 build/default/production/_ext/990863823/EEPROMMannager.o
 .debug_line    0x000043a4      0x1b0 build/default/production/_ext/990863823/SerialPassThrough.o
 .debug_line    0x00004554      0x237 build/default/production/_ext/990863823/SPI.o
 .debug_line    0x0000478b      0x3c2 build/default/production/_ext/990863823/PPMReader.o
 .debug_line    0x00004b4d      0x28f build/default/production/_ext/1020318379/Pin_State.o
 .debug_line    0x00004ddc      0x1a3 build/default/production/_ext/1020318379/ChannelConfig.o
 .debug_line    0x00004f7f      0x23e build/default/production/_ext/1020318379/ChannelValues.o
 .debug_line    0x000051bd      0x265 build/default/production/_ext/1020318379/ChannelMode.o
 .debug_line    0x00005422      0x15f build/default/production/_ext/1281821416/Abstract_bsc_safe.o
 .debug_line    0x00005581      0x284 build/default/production/_ext/1281821416/Namespace_bcs_safe.o
 .debug_line    0x00005805      0x3d2 build/default/production/_ext/321196743/Namespace_neuronrobotics_dyio.o
 .debug_line    0x00005bd7      0x28f build/default/production/_ext/321196743/Namespace_bcs_pid_dypid.o
 .debug_line    0x00005e66      0x181 build/default/production/_ext/1360937237/Main.o
 .debug_line    0x00005fe7      0x242 build/default/production/_ext/1360937237/DyIOMain.o
 .debug_line    0x00006229      0x25a ../../../../../c-bowler/firmware/library/NR-Clib/development/c-bowler.X/dist/default/production/c-bowler.X.a(BowlerPacketParser.o)
 .debug_line    0x00006483      0x2d6 ../../../../../c-bowler/firmware/library/NR-Clib/development/c-bowler.X/dist/default/production/c-bowler.X.a(Namespace_bcs_core.o)
 .debug_line    0x00006759      0x2a0 ../../../../../c-bowler/firmware/library/NR-Clib/development/c-bowler.X/dist/default/production/c-bowler.X.a(Bowler_Server.o)
 .debug_line    0x000069f9      0x3ae ../../../../../c-bowler/firmware/library/NR-Clib/development/c-bowler.X/dist/default/production/c-bowler.X.a(Debug.o)
 .debug_line    0x00006da7      0x306 ../../../../../c-bowler/firmware/library/NR-Clib/development/c-bowler.X/dist/default/production/c-bowler.X.a(FIFO.o)
 .debug_line    0x000070ad      0x337 ../../../../../c-bowler/firmware/library/NR-Clib/development/c-bowler.X/dist/default/production/c-bowler.X.a(Bowler_Helper.o)
 .debug_line    0x000073e4      0x180 ../../../../../c-bowler/firmware/library/NR-Clib/development/c-bowler.X/dist/default/production/c-bowler.X.a(Scheduler.o)
 .debug_line    0x00007564      0x1dd ../../../../../c-bowler/firmware/library/NR-Clib/development/c-bowler.X/dist/default/production/c-bowler.X.a(Namespace_bcs_pid.o)
 .debug_line    0x00007741      0x49b ../../../../../c-bowler/firmware/library/NR-Clib/development/c-bowler.X/dist/default/production/c-bowler.X.a(AbstractPID.o)
 .debug_line    0x00007bdc      0x388 ../../../../../c-bowler/firmware/library/NR-Clib/development/c-bowler.X/dist/default/production/c-bowler.X.a(usb_fifo.o)
 .debug_line    0x00007f64      0x646 ../../../../../c-bowler/firmware/library/NR-Clib/development/c-bowler.X/dist/default/production/c-bowler.X.a(usb_device.o)
 .debug_line    0x000085aa      0x1df ../../../../../c-bowler/firmware/library/NR-Clib/development/c-bowler.X/dist/default/production/c-bowler.X.a(LED.o)
 .debug_line    0x00008789      0x1fa ../../../../../c-bowler/firmware/library/NR-Clib/development/c-bowler.X/dist/default/production/c-bowler.X.a(ADC.o)
 .debug_line    0x00008983      0x30e ../../../../../c-bowler/firmware/library/NR-Clib/development/c-bowler.X/dist/default/production/c-bowler.X.a(HAL_P32.o)
 .debug_line    0x00008c91      0x1d7 ../../../../../c-bowler/firmware/library/NR-Clib/development/c-bowler.X/dist/default/production/c-bowler.X.a(Delay.o)
 .debug_line    0x00008e68      0x1b6 ../../../../../c-bowler/firmware/library/NR-Clib/development/c-bowler.X/dist/default/production/c-bowler.X.a(Bowler_USB_HAL.o)
 .debug_line    0x0000901e      0x2ff ../../../../../c-bowler/firmware/library/NR-Clib/development/c-bowler.X/dist/default/production/c-bowler.X.a(FlashStorage.o)
 .debug_line    0x0000931d      0x2c4 ../../../../../c-bowler/firmware/library/NR-Clib/development/c-bowler.X/dist/default/production/c-bowler.X.a(Bowler_UART_HAL.o)
 .debug_line    0x000095e1      0x238 ../../../../../c-bowler/firmware/library/NR-Clib/development/c-bowler.X/dist/default/production/c-bowler.X.a(Tick.o)
 .debug_line    0x00009819      0x1e5 ../../../../../c-bowler/firmware/library/NR-Clib/development/c-bowler.X/dist/default/production/c-bowler.X.a(UART.o)
 .debug_line    0x000099fe      0x21b ../../../../../c-bowler/firmware/library/NR-Clib/development/c-bowler.X/dist/default/production/c-bowler.X.a(Namespace_bcs_rpc.o)
 .debug_line    0x00009c19      0x306 ../../../../../c-bowler/firmware/library/NR-Clib/development/c-bowler.X/dist/default/production/c-bowler.X.a(PidRpc.o)
 .debug_line    0x00009f1f      0x2e4 ../../../../../c-bowler/firmware/library/NR-Clib/development/c-bowler.X/dist/default/production/c-bowler.X.a(PidHysteresis.o)
 .debug_line    0x0000a203      0x274 ../../../../../c-bowler/firmware/library/NR-Clib/development/c-bowler.X/dist/default/production/c-bowler.X.a(PidAsync.o)
 .debug_line    0x0000a477      0x29e ../../../../../c-bowler/firmware/library/NR-Clib/development/c-bowler.X/dist/default/production/c-bowler.X.a(usb_callback.o)
 .debug_line    0x0000a715      0x338 ../../../../../c-bowler/firmware/library/NR-Clib/development/c-bowler.X/dist/default/production/c-bowler.X.a(usb_function_cdc.o)
 .debug_line    0x0000aa4d      0x21e ../../../../../c-bowler/firmware/library/NR-Clib/development/c-bowler.X/dist/default/production/c-bowler.X.a(usb_descriptors.o)
 .debug_line    0x0000ac6b      0x1ea ../../../../../c-bowler/firmware/library/NR-Clib/development/c-bowler.X/dist/default/production/c-bowler.X.a(PidVelocity.o)
 .debug_line    0x0000ae55       0x6d /home/opt/microchip/xc32/v1.00/bin/../lib/gcc/pic32mx/4.5.1/libgcc.a(floatunsisf.o)
 .debug_line    0x0000aec2       0x89 /home/opt/microchip/xc32/v1.00/bin/../lib/gcc/pic32mx/4.5.1/../../../../pic32mx/lib/libc.a(default-bootstrap-exception-handler.o)
 .debug_line    0x0000af4b       0x76 /home/opt/microchip/xc32/v1.00/bin/../lib/gcc/pic32mx/4.5.1/../../../../pic32mx/lib/libc.a(default-on-reset.o)
 .debug_line    0x0000afc1       0x7a /home/opt/microchip/xc32/v1.00/bin/../lib/gcc/pic32mx/4.5.1/../../../../pic32mx/lib/libc.a(default-on-bootstrap.o)
 .debug_line    0x0000b03b       0xbb /home/opt/microchip/xc32/v1.00/bin/../lib/gcc/pic32mx/4.5.1/../../../../pic32mx/lib/libmchp_peripheral_32MX440F128H.a(soft_reset_lib.o)
 .debug_line    0x0000b0f6       0x72 /home/opt/microchip/xc32/v1.00/bin/../lib/gcc/pic32mx/4.5.1/../../../../pic32mx/lib/libmchp_peripheral_32MX440F128H.a(int_enable_interrupts_lib.o)
 .debug_line    0x0000b168       0x73 /home/opt/microchip/xc32/v1.00/bin/../lib/gcc/pic32mx/4.5.1/../../../../pic32mx/lib/libmchp_peripheral_32MX440F128H.a(int_disable_interrupts_lib.o)
 .debug_line    0x0000b1db       0x6e /home/opt/microchip/xc32/v1.00/bin/../lib/gcc/pic32mx/4.5.1/../../../../pic32mx/lib/libmchp_peripheral_32MX440F128H.a(int_enable_mv_int_lib.o)
 .debug_line    0x0000b249       0x64 /home/opt/microchip/xc32/v1.00/bin/../lib/gcc/pic32mx/4.5.1/../../../../pic32mx/lib/libmchp_peripheral_32MX440F128H.a(int_tbl_lib.o)
 .debug_line    0x0000b2ad       0x71 /home/opt/microchip/xc32/v1.00/bin/../lib/gcc/pic32mx/4.5.1/../../../../pic32mx/lib/libmchp_peripheral_32MX440F128H.a(spi_getc_spi2_lib_legacy.o)
 .debug_line    0x0000b31e       0x71 /home/opt/microchip/xc32/v1.00/bin/../lib/gcc/pic32mx/4.5.1/../../../../pic32mx/lib/libmchp_peripheral_32MX440F128H.a(spi_open_spi2_lib_legacy.o)
 .debug_line    0x0000b38f        0x0 /home/opt/microchip/xc32/v1.00/bin/../lib/gcc/pic32mx/4.5.1/../../../../pic32mx/lib/libmchp_peripheral_32MX440F128H.a(spi_brg_tbl_lib_legacy.o)
 .debug_line    0x0000b38f       0x6b /home/opt/microchip/xc32/v1.00/bin/../lib/gcc/pic32mx/4.5.1/../../../../pic32mx/lib/libmchp_peripheral_32MX440F128H.a(nvm_erase_page_lib.o)
 .debug_line    0x0000b3fa       0xbc /home/opt/microchip/xc32/v1.00/bin/../lib/gcc/pic32mx/4.5.1/../../../../pic32mx/lib/libmchp_peripheral_32MX440F128H.a(nvm_operation_lib.o)
 .debug_line    0x0000b4b6       0x6b /home/opt/microchip/xc32/v1.00/bin/../lib/gcc/pic32mx/4.5.1/../../../../pic32mx/lib/libmchp_peripheral_32MX440F128H.a(nvm_write_word_lib.o)
 .debug_line    0x0000b521       0x78 /home/opt/microchip/xc32/v1.00/bin/../lib/gcc/pic32mx/4.5.1/../../../../pic32mx/lib/libmchp_peripheral_32MX440F128H.a(port_set_pins_digital_out_lib.o)
 .debug_line    0x0000b599       0x6e /home/opt/microchip/xc32/v1.00/bin/../lib/gcc/pic32mx/4.5.1/../../../../pic32mx/lib/libmchp_peripheral_32MX440F128H.a(port_clear_bits_lib.o)
 .debug_line    0x0000b607       0x6c /home/opt/microchip/xc32/v1.00/bin/../lib/gcc/pic32mx/4.5.1/../../../../pic32mx/lib/libmchp_peripheral_32MX440F128H.a(port_set_bits_lib.o)
 .debug_line    0x0000b673        0x0 /home/opt/microchip/xc32/v1.00/bin/../lib/gcc/pic32mx/4.5.1/../../../../pic32mx/lib/libmchp_peripheral_32MX440F128H.a(_ports_tbl_libp.o)
 .debug_line    0x0000b673       0x62 /home/opt/microchip/xc32/v1.00/bin/../lib/gcc/pic32mx/4.5.1/../../../../pic32mx/lib/libmchp_peripheral_32MX440F128H.a(uart_lib.o)
 .debug_line    0x0000b6d5       0x73 /home/opt/microchip/xc32/v1.00/bin/../lib/gcc/pic32mx/4.5.1/../../../../pic32mx/lib/libmchp_peripheral_32MX440F128H.a(int_restore_interrupts_lib.o)

.debug_frame    0x00000000     0x3578
 *(.debug_frame)
 .debug_frame   0x00000000       0x2c build/default/production/_ext/108654538/PinFunctions.o
 .debug_frame   0x0000002c       0x3c build/default/production/_ext/805493626/Debug_DyIO.o
 .debug_frame   0x00000068       0x48 build/default/production/_ext/805493626/Namespace_bcs_io.o
 .debug_frame   0x000000b0      0x220 build/default/production/_ext/805493626/Abstract_bcs_io.o
 .debug_frame   0x000002d0      0x1b8 build/default/production/_ext/805493626/Bcs_IO_AdvancedAsync.o
 .debug_frame   0x00000488       0x98 build/default/production/_ext/1051272628/Abstract_bcs_io_setmode.o
 .debug_frame   0x00000520       0x3c build/default/production/_ext/1051272628/Namespace_bcs_io_setmode.o
 .debug_frame   0x0000055c       0x60 build/default/production/_ext/1825615050/CartesianController.o
 .debug_frame   0x000005bc      0x144 build/default/production/_ext/1825615050/PID.o
 .debug_frame   0x00000700       0xe8 build/default/production/_ext/1978776677/UpstreamPackets.o
 .debug_frame   0x000007e8       0x48 build/default/production/_ext/1978776677/InitializationCallbacks.o
 .debug_frame   0x00000830      0x250 build/default/production/_ext/1978776677/DownStreamPackets.o
 .debug_frame   0x00000a80       0x5c build/default/production/_ext/1978776677/AsyncManager.o
 .debug_frame   0x00000adc       0xf4 build/default/production/_ext/990863823/AVRInterface.o
 .debug_frame   0x00000bd0       0x48 build/default/production/_ext/990863823/Switches.o
 .debug_frame   0x00000c18       0x88 build/default/production/_ext/990863823/DyIODataTableManager.o
 .debug_frame   0x00000ca0      0x178 build/default/production/_ext/990863823/CoProcCom.o
 .debug_frame   0x00000e18      0x118 build/default/production/_ext/990863823/ADC.o
 .debug_frame   0x00000f30      0x284 build/default/production/_ext/990863823/Counter.o
 .debug_frame   0x000011b4       0xc8 build/default/production/_ext/990863823/EEPROMMannager.o
 .debug_frame   0x0000127c       0x28 build/default/production/_ext/990863823/SerialPassThrough.o
 .debug_frame   0x000012a4       0x9c build/default/production/_ext/990863823/SPI.o
 .debug_frame   0x00001340       0xe0 build/default/production/_ext/990863823/PPMReader.o
 .debug_frame   0x00001420       0x28 build/default/production/_ext/1020318379/Pin_State.o
 .debug_frame   0x00001448       0x20 build/default/production/_ext/1020318379/ChannelConfig.o
 .debug_frame   0x00001468       0xc0 build/default/production/_ext/1020318379/ChannelValues.o
 .debug_frame   0x00001528       0x70 build/default/production/_ext/1020318379/ChannelMode.o
 .debug_frame   0x00001598       0x6c build/default/production/_ext/1281821416/Namespace_bcs_safe.o
 .debug_frame   0x00001604       0xd0 build/default/production/_ext/321196743/Namespace_neuronrobotics_dyio.o
 .debug_frame   0x000016d4       0x74 build/default/production/_ext/321196743/Namespace_bcs_pid_dypid.o
 .debug_frame   0x00001748       0x28 build/default/production/_ext/1360937237/Main.o
 .debug_frame   0x00001770       0x58 build/default/production/_ext/1360937237/DyIOMain.o
 .debug_frame   0x000017c8       0xe0 ../../../../../c-bowler/firmware/library/NR-Clib/development/c-bowler.X/dist/default/production/c-bowler.X.a(BowlerPacketParser.o)
 .debug_frame   0x000018a8      0x11c ../../../../../c-bowler/firmware/library/NR-Clib/development/c-bowler.X/dist/default/production/c-bowler.X.a(Namespace_bcs_core.o)
 .debug_frame   0x000019c4       0xac ../../../../../c-bowler/firmware/library/NR-Clib/development/c-bowler.X/dist/default/production/c-bowler.X.a(Bowler_Server.o)
 .debug_frame   0x00001a70      0x1f0 ../../../../../c-bowler/firmware/library/NR-Clib/development/c-bowler.X/dist/default/production/c-bowler.X.a(Debug.o)
 .debug_frame   0x00001c60      0x1b8 ../../../../../c-bowler/firmware/library/NR-Clib/development/c-bowler.X/dist/default/production/c-bowler.X.a(FIFO.o)
 .debug_frame   0x00001e18      0x198 ../../../../../c-bowler/firmware/library/NR-Clib/development/c-bowler.X/dist/default/production/c-bowler.X.a(Bowler_Helper.o)
 .debug_frame   0x00001fb0       0x2c ../../../../../c-bowler/firmware/library/NR-Clib/development/c-bowler.X/dist/default/production/c-bowler.X.a(Scheduler.o)
 .debug_frame   0x00001fdc       0x40 ../../../../../c-bowler/firmware/library/NR-Clib/development/c-bowler.X/dist/default/production/c-bowler.X.a(Namespace_bcs_pid.o)
 .debug_frame   0x0000201c      0x2c8 ../../../../../c-bowler/firmware/library/NR-Clib/development/c-bowler.X/dist/default/production/c-bowler.X.a(AbstractPID.o)
 .debug_frame   0x000022e4      0x14c ../../../../../c-bowler/firmware/library/NR-Clib/development/c-bowler.X/dist/default/production/c-bowler.X.a(usb_fifo.o)
 .debug_frame   0x00002430      0x27c ../../../../../c-bowler/firmware/library/NR-Clib/development/c-bowler.X/dist/default/production/c-bowler.X.a(usb_device.o)
 .debug_frame   0x000026ac       0x8c ../../../../../c-bowler/firmware/library/NR-Clib/development/c-bowler.X/dist/default/production/c-bowler.X.a(LED.o)
 .debug_frame   0x00002738       0x58 ../../../../../c-bowler/firmware/library/NR-Clib/development/c-bowler.X/dist/default/production/c-bowler.X.a(ADC.o)
 .debug_frame   0x00002790      0x134 ../../../../../c-bowler/firmware/library/NR-Clib/development/c-bowler.X/dist/default/production/c-bowler.X.a(HAL_P32.o)
 .debug_frame   0x000028c4       0x78 ../../../../../c-bowler/firmware/library/NR-Clib/development/c-bowler.X/dist/default/production/c-bowler.X.a(Delay.o)
 .debug_frame   0x0000293c       0x58 ../../../../../c-bowler/firmware/library/NR-Clib/development/c-bowler.X/dist/default/production/c-bowler.X.a(Bowler_USB_HAL.o)
 .debug_frame   0x00002994      0x128 ../../../../../c-bowler/firmware/library/NR-Clib/development/c-bowler.X/dist/default/production/c-bowler.X.a(FlashStorage.o)
 .debug_frame   0x00002abc      0x104 ../../../../../c-bowler/firmware/library/NR-Clib/development/c-bowler.X/dist/default/production/c-bowler.X.a(Bowler_UART_HAL.o)
 .debug_frame   0x00002bc0       0xac ../../../../../c-bowler/firmware/library/NR-Clib/development/c-bowler.X/dist/default/production/c-bowler.X.a(Tick.o)
 .debug_frame   0x00002c6c       0x48 ../../../../../c-bowler/firmware/library/NR-Clib/development/c-bowler.X/dist/default/production/c-bowler.X.a(UART.o)
 .debug_frame   0x00002cb4       0x60 ../../../../../c-bowler/firmware/library/NR-Clib/development/c-bowler.X/dist/default/production/c-bowler.X.a(Namespace_bcs_rpc.o)
 .debug_frame   0x00002d14       0xe8 ../../../../../c-bowler/firmware/library/NR-Clib/development/c-bowler.X/dist/default/production/c-bowler.X.a(PidRpc.o)
 .debug_frame   0x00002dfc      0x148 ../../../../../c-bowler/firmware/library/NR-Clib/development/c-bowler.X/dist/default/production/c-bowler.X.a(PidHysteresis.o)
 .debug_frame   0x00002f44       0x90 ../../../../../c-bowler/firmware/library/NR-Clib/development/c-bowler.X/dist/default/production/c-bowler.X.a(PidAsync.o)
 .debug_frame   0x00002fd4       0xc8 ../../../../../c-bowler/firmware/library/NR-Clib/development/c-bowler.X/dist/default/production/c-bowler.X.a(usb_callback.o)
 .debug_frame   0x0000309c       0xb4 ../../../../../c-bowler/firmware/library/NR-Clib/development/c-bowler.X/dist/default/production/c-bowler.X.a(usb_function_cdc.o)
 .debug_frame   0x00003150       0x40 ../../../../../c-bowler/firmware/library/NR-Clib/development/c-bowler.X/dist/default/production/c-bowler.X.a(usb_descriptors.o)
 .debug_frame   0x00003190       0x68 ../../../../../c-bowler/firmware/library/NR-Clib/development/c-bowler.X/dist/default/production/c-bowler.X.a(PidVelocity.o)
 .debug_frame   0x000031f8       0x28 /home/opt/microchip/xc32/v1.00/bin/../lib/gcc/pic32mx/4.5.1/libgcc.a(floatunsisf.o)
 .debug_frame   0x00003220       0x20 /home/opt/microchip/xc32/v1.00/bin/../lib/gcc/pic32mx/4.5.1/../../../../pic32mx/lib/libc.a(default-bootstrap-exception-handler.o)
 .debug_frame   0x00003240       0x20 /home/opt/microchip/xc32/v1.00/bin/../lib/gcc/pic32mx/4.5.1/../../../../pic32mx/lib/libc.a(default-on-reset.o)
 .debug_frame   0x00003260       0x20 /home/opt/microchip/xc32/v1.00/bin/../lib/gcc/pic32mx/4.5.1/../../../../pic32mx/lib/libc.a(default-on-bootstrap.o)
 .debug_frame   0x00003280       0x28 /home/opt/microchip/xc32/v1.00/bin/../lib/gcc/pic32mx/4.5.1/../../../../pic32mx/lib/libmchp_peripheral_32MX440F128H.a(soft_reset_lib.o)
 .debug_frame   0x000032a8       0x20 /home/opt/microchip/xc32/v1.00/bin/../lib/gcc/pic32mx/4.5.1/../../../../pic32mx/lib/libmchp_peripheral_32MX440F128H.a(int_enable_interrupts_lib.o)
 .debug_frame   0x000032c8       0x20 /home/opt/microchip/xc32/v1.00/bin/../lib/gcc/pic32mx/4.5.1/../../../../pic32mx/lib/libmchp_peripheral_32MX440F128H.a(int_disable_interrupts_lib.o)
 .debug_frame   0x000032e8       0x28 /home/opt/microchip/xc32/v1.00/bin/../lib/gcc/pic32mx/4.5.1/../../../../pic32mx/lib/libmchp_peripheral_32MX440F128H.a(int_enable_mv_int_lib.o)
 .debug_frame   0x00003310       0xa0 /home/opt/microchip/xc32/v1.00/bin/../lib/gcc/pic32mx/4.5.1/../../../../pic32mx/lib/libmchp_peripheral_32MX440F128H.a(int_tbl_lib.o)
 .debug_frame   0x000033b0       0x20 /home/opt/microchip/xc32/v1.00/bin/../lib/gcc/pic32mx/4.5.1/../../../../pic32mx/lib/libmchp_peripheral_32MX440F128H.a(spi_getc_spi2_lib_legacy.o)
 .debug_frame   0x000033d0       0x20 /home/opt/microchip/xc32/v1.00/bin/../lib/gcc/pic32mx/4.5.1/../../../../pic32mx/lib/libmchp_peripheral_32MX440F128H.a(spi_open_spi2_lib_legacy.o)
 .debug_frame   0x000033f0       0x28 /home/opt/microchip/xc32/v1.00/bin/../lib/gcc/pic32mx/4.5.1/../../../../pic32mx/lib/libmchp_peripheral_32MX440F128H.a(nvm_erase_page_lib.o)
 .debug_frame   0x00003418       0x28 /home/opt/microchip/xc32/v1.00/bin/../lib/gcc/pic32mx/4.5.1/../../../../pic32mx/lib/libmchp_peripheral_32MX440F128H.a(nvm_operation_lib.o)
 .debug_frame   0x00003440       0x28 /home/opt/microchip/xc32/v1.00/bin/../lib/gcc/pic32mx/4.5.1/../../../../pic32mx/lib/libmchp_peripheral_32MX440F128H.a(nvm_write_word_lib.o)
 .debug_frame   0x00003468       0x20 /home/opt/microchip/xc32/v1.00/bin/../lib/gcc/pic32mx/4.5.1/../../../../pic32mx/lib/libmchp_peripheral_32MX440F128H.a(port_set_pins_digital_out_lib.o)
 .debug_frame   0x00003488       0x20 /home/opt/microchip/xc32/v1.00/bin/../lib/gcc/pic32mx/4.5.1/../../../../pic32mx/lib/libmchp_peripheral_32MX440F128H.a(port_clear_bits_lib.o)
 .debug_frame   0x000034a8       0x20 /home/opt/microchip/xc32/v1.00/bin/../lib/gcc/pic32mx/4.5.1/../../../../pic32mx/lib/libmchp_peripheral_32MX440F128H.a(port_set_bits_lib.o)
 .debug_frame   0x000034c8       0x90 /home/opt/microchip/xc32/v1.00/bin/../lib/gcc/pic32mx/4.5.1/../../../../pic32mx/lib/libmchp_peripheral_32MX440F128H.a(uart_lib.o)
 .debug_frame   0x00003558       0x20 /home/opt/microchip/xc32/v1.00/bin/../lib/gcc/pic32mx/4.5.1/../../../../pic32mx/lib/libmchp_peripheral_32MX440F128H.a(int_restore_interrupts_lib.o)

.debug_str      0x00000000     0x3f6e
 *(.debug_str)
 .debug_str     0x00000000       0xe2 build/default/production/_ext/108654538/PinFunctions.o
 .debug_str     0x000000e2       0xe2 build/default/production/_ext/805493626/Debug_DyIO.o
 .debug_str     0x000001c4       0xeb build/default/production/_ext/805493626/Namespace_bcs_io.o
 .debug_str     0x000002af      0x157 build/default/production/_ext/805493626/Abstract_bcs_io.o
 .debug_str     0x00000406       0xe2 build/default/production/_ext/805493626/Bcs_IO_AdvancedAsync.o
 .debug_str     0x000004e8       0xf5 build/default/production/_ext/1051272628/Abstract_bcs_io_setmode.o
 .debug_str     0x000005dd       0xf0 build/default/production/_ext/1051272628/Namespace_bcs_io_setmode.o
 .debug_str     0x000006cd       0xe9 build/default/production/_ext/1825615050/CartesianController.o
 .debug_str     0x000007b6       0xef build/default/production/_ext/1825615050/PID.o
 .debug_str     0x000008a5       0xe2 build/default/production/_ext/1978776677/UpstreamPackets.o
 .debug_str     0x00000987      0x12c build/default/production/_ext/1978776677/InitializationCallbacks.o
 .debug_str     0x00000ab3       0xfc build/default/production/_ext/1978776677/DownStreamPackets.o
 .debug_str     0x00000baf       0xe9 build/default/production/_ext/1978776677/AsyncManager.o
 .debug_str     0x00000c98       0xe2 build/default/production/_ext/2110062566/UartDMARx.o
 .debug_str     0x00000d7a       0xec build/default/production/_ext/990863823/AVRInterface.o
 .debug_str     0x00000e66       0xe2 build/default/production/_ext/990863823/Switches.o
 .debug_str     0x00000f48       0xf6 build/default/production/_ext/990863823/DyIODataTableManager.o
 .debug_str     0x0000103e      0x131 build/default/production/_ext/990863823/CoProcCom.o
 .debug_str     0x0000116f      0x10a build/default/production/_ext/990863823/ADC.o
 .debug_str     0x00001279      0x127 build/default/production/_ext/990863823/Counter.o
 .debug_str     0x000013a0      0x126 build/default/production/_ext/990863823/EEPROMMannager.o
 .debug_str     0x000014c6       0xe2 build/default/production/_ext/990863823/SerialPassThrough.o
 .debug_str     0x000015a8      0x121 build/default/production/_ext/990863823/SPI.o
 .debug_str     0x000016c9       0xf6 build/default/production/_ext/990863823/PPMReader.o
 .debug_str     0x000017bf       0xe2 build/default/production/_ext/1020318379/Pin_State.o
 .debug_str     0x000018a1       0xe2 build/default/production/_ext/1020318379/ChannelConfig.o
 .debug_str     0x00001983       0xec build/default/production/_ext/1020318379/ChannelValues.o
 .debug_str     0x00001a6f       0xf1 build/default/production/_ext/1020318379/ChannelMode.o
 .debug_str     0x00001b60       0xe2 build/default/production/_ext/1281821416/Abstract_bsc_safe.o
 .debug_str     0x00001c42       0xfe build/default/production/_ext/1281821416/Namespace_bcs_safe.o
 .debug_str     0x00001d40       0xf4 build/default/production/_ext/321196743/Namespace_neuronrobotics_dyio.o
 .debug_str     0x00001e34       0xf5 build/default/production/_ext/321196743/Namespace_bcs_pid_dypid.o
 .debug_str     0x00001f29       0xe2 build/default/production/_ext/1360937237/Main.o
 .debug_str     0x0000200b       0xec build/default/production/_ext/1360937237/DyIOMain.o
 .debug_str     0x000020f7       0xee ../../../../../c-bowler/firmware/library/NR-Clib/development/c-bowler.X/dist/default/production/c-bowler.X.a(BowlerPacketParser.o)
 .debug_str     0x000021e5      0x109 ../../../../../c-bowler/firmware/library/NR-Clib/development/c-bowler.X/dist/default/production/c-bowler.X.a(Namespace_bcs_core.o)
 .debug_str     0x000022ee       0xf3 ../../../../../c-bowler/firmware/library/NR-Clib/development/c-bowler.X/dist/default/production/c-bowler.X.a(Bowler_Server.o)
 .debug_str     0x000023e1      0x11d ../../../../../c-bowler/firmware/library/NR-Clib/development/c-bowler.X/dist/default/production/c-bowler.X.a(Debug.o)
 .debug_str     0x000024fe      0x126 ../../../../../c-bowler/firmware/library/NR-Clib/development/c-bowler.X/dist/default/production/c-bowler.X.a(FIFO.o)
 .debug_str     0x00002624       0xf0 ../../../../../c-bowler/firmware/library/NR-Clib/development/c-bowler.X/dist/default/production/c-bowler.X.a(Bowler_Helper.o)
 .debug_str     0x00002714       0xe2 ../../../../../c-bowler/firmware/library/NR-Clib/development/c-bowler.X/dist/default/production/c-bowler.X.a(Scheduler.o)
 .debug_str     0x000027f6       0xe2 ../../../../../c-bowler/firmware/library/NR-Clib/development/c-bowler.X/dist/default/production/c-bowler.X.a(Namespace_bcs_pid.o)
 .debug_str     0x000028d8      0x18d ../../../../../c-bowler/firmware/library/NR-Clib/development/c-bowler.X/dist/default/production/c-bowler.X.a(AbstractPID.o)
 .debug_str     0x00002a65      0x11a ../../../../../c-bowler/firmware/library/NR-Clib/development/c-bowler.X/dist/default/production/c-bowler.X.a(usb_fifo.o)
 .debug_str     0x00002b7f      0x2ab ../../../../../c-bowler/firmware/library/NR-Clib/development/c-bowler.X/dist/default/production/c-bowler.X.a(usb_device.o)
 .debug_str     0x00002e2a       0xe2 ../../../../../c-bowler/firmware/library/NR-Clib/development/c-bowler.X/dist/default/production/c-bowler.X.a(LED.o)
 .debug_str     0x00002f0c      0x15f ../../../../../c-bowler/firmware/library/NR-Clib/development/c-bowler.X/dist/default/production/c-bowler.X.a(ADC.o)
 .debug_str     0x0000306b       0xe9 ../../../../../c-bowler/firmware/library/NR-Clib/development/c-bowler.X/dist/default/production/c-bowler.X.a(HAL_P32.o)
 .debug_str     0x00003154       0xe2 ../../../../../c-bowler/firmware/library/NR-Clib/development/c-bowler.X/dist/default/production/c-bowler.X.a(Delay.o)
 .debug_str     0x00003236       0xe2 ../../../../../c-bowler/firmware/library/NR-Clib/development/c-bowler.X/dist/default/production/c-bowler.X.a(Bowler_USB_HAL.o)
 .debug_str     0x00003318      0x10c ../../../../../c-bowler/firmware/library/NR-Clib/development/c-bowler.X/dist/default/production/c-bowler.X.a(FlashStorage.o)
 .debug_str     0x00003424      0x100 ../../../../../c-bowler/firmware/library/NR-Clib/development/c-bowler.X/dist/default/production/c-bowler.X.a(Bowler_UART_HAL.o)
 .debug_str     0x00003524       0xeb ../../../../../c-bowler/firmware/library/NR-Clib/development/c-bowler.X/dist/default/production/c-bowler.X.a(Tick.o)
 .debug_str     0x0000360f       0xe2 ../../../../../c-bowler/firmware/library/NR-Clib/development/c-bowler.X/dist/default/production/c-bowler.X.a(UART.o)
 .debug_str     0x000036f1       0xeb ../../../../../c-bowler/firmware/library/NR-Clib/development/c-bowler.X/dist/default/production/c-bowler.X.a(Namespace_bcs_rpc.o)
 .debug_str     0x000037dc       0xe9 ../../../../../c-bowler/firmware/library/NR-Clib/development/c-bowler.X/dist/default/production/c-bowler.X.a(PidRpc.o)
 .debug_str     0x000038c5       0xf1 ../../../../../c-bowler/firmware/library/NR-Clib/development/c-bowler.X/dist/default/production/c-bowler.X.a(PidHysteresis.o)
 .debug_str     0x000039b6       0xfd ../../../../../c-bowler/firmware/library/NR-Clib/development/c-bowler.X/dist/default/production/c-bowler.X.a(PidAsync.o)
 .debug_str     0x00003ab3       0xf7 ../../../../../c-bowler/firmware/library/NR-Clib/development/c-bowler.X/dist/default/production/c-bowler.X.a(usb_callback.o)
 .debug_str     0x00003baa      0x1cb ../../../../../c-bowler/firmware/library/NR-Clib/development/c-bowler.X/dist/default/production/c-bowler.X.a(usb_function_cdc.o)
 .debug_str     0x00003d75      0x117 ../../../../../c-bowler/firmware/library/NR-Clib/development/c-bowler.X/dist/default/production/c-bowler.X.a(usb_descriptors.o)
 .debug_str     0x00003e8c       0xe2 ../../../../../c-bowler/firmware/library/NR-Clib/development/c-bowler.X/dist/default/production/c-bowler.X.a(PidVelocity.o)
 .debug_str     0x00003f6e        0x0 /home/opt/microchip/xc32/v1.00/bin/../lib/gcc/pic32mx/4.5.1/libgcc.a(floatunsisf.o)
 .debug_str     0x00003f6e        0x0 /home/opt/microchip/xc32/v1.00/bin/../lib/gcc/pic32mx/4.5.1/../../../../pic32mx/lib/libc.a(default-bootstrap-exception-handler.o)
 .debug_str     0x00003f6e        0x0 /home/opt/microchip/xc32/v1.00/bin/../lib/gcc/pic32mx/4.5.1/../../../../pic32mx/lib/libc.a(default-on-reset.o)
 .debug_str     0x00003f6e        0x0 /home/opt/microchip/xc32/v1.00/bin/../lib/gcc/pic32mx/4.5.1/../../../../pic32mx/lib/libc.a(default-on-bootstrap.o)
 .debug_str     0x00003f6e        0x0 /home/opt/microchip/xc32/v1.00/bin/../lib/gcc/pic32mx/4.5.1/../../../../pic32mx/lib/libmchp_peripheral_32MX440F128H.a(soft_reset_lib.o)
 .debug_str     0x00003f6e        0x0 /home/opt/microchip/xc32/v1.00/bin/../lib/gcc/pic32mx/4.5.1/../../../../pic32mx/lib/libmchp_peripheral_32MX440F128H.a(int_enable_interrupts_lib.o)
 .debug_str     0x00003f6e        0x0 /home/opt/microchip/xc32/v1.00/bin/../lib/gcc/pic32mx/4.5.1/../../../../pic32mx/lib/libmchp_peripheral_32MX440F128H.a(int_disable_interrupts_lib.o)
 .debug_str     0x00003f6e        0x0 /home/opt/microchip/xc32/v1.00/bin/../lib/gcc/pic32mx/4.5.1/../../../../pic32mx/lib/libmchp_peripheral_32MX440F128H.a(int_enable_mv_int_lib.o)
 .debug_str     0x00003f6e        0x0 /home/opt/microchip/xc32/v1.00/bin/../lib/gcc/pic32mx/4.5.1/../../../../pic32mx/lib/libmchp_peripheral_32MX440F128H.a(int_tbl_lib.o)
 .debug_str     0x00003f6e        0x0 /home/opt/microchip/xc32/v1.00/bin/../lib/gcc/pic32mx/4.5.1/../../../../pic32mx/lib/libmchp_peripheral_32MX440F128H.a(spi_getc_spi2_lib_legacy.o)
 .debug_str     0x00003f6e        0x0 /home/opt/microchip/xc32/v1.00/bin/../lib/gcc/pic32mx/4.5.1/../../../../pic32mx/lib/libmchp_peripheral_32MX440F128H.a(spi_open_spi2_lib_legacy.o)
 .debug_str     0x00003f6e        0x0 /home/opt/microchip/xc32/v1.00/bin/../lib/gcc/pic32mx/4.5.1/../../../../pic32mx/lib/libmchp_peripheral_32MX440F128H.a(spi_brg_tbl_lib_legacy.o)
 .debug_str     0x00003f6e        0x0 /home/opt/microchip/xc32/v1.00/bin/../lib/gcc/pic32mx/4.5.1/../../../../pic32mx/lib/libmchp_peripheral_32MX440F128H.a(nvm_erase_page_lib.o)
 .debug_str     0x00003f6e        0x0 /home/opt/microchip/xc32/v1.00/bin/../lib/gcc/pic32mx/4.5.1/../../../../pic32mx/lib/libmchp_peripheral_32MX440F128H.a(nvm_operation_lib.o)
 .debug_str     0x00003f6e        0x0 /home/opt/microchip/xc32/v1.00/bin/../lib/gcc/pic32mx/4.5.1/../../../../pic32mx/lib/libmchp_peripheral_32MX440F128H.a(nvm_write_word_lib.o)
 .debug_str     0x00003f6e        0x0 /home/opt/microchip/xc32/v1.00/bin/../lib/gcc/pic32mx/4.5.1/../../../../pic32mx/lib/libmchp_peripheral_32MX440F128H.a(port_set_pins_digital_out_lib.o)
 .debug_str     0x00003f6e        0x0 /home/opt/microchip/xc32/v1.00/bin/../lib/gcc/pic32mx/4.5.1/../../../../pic32mx/lib/libmchp_peripheral_32MX440F128H.a(port_clear_bits_lib.o)
 .debug_str     0x00003f6e        0x0 /home/opt/microchip/xc32/v1.00/bin/../lib/gcc/pic32mx/4.5.1/../../../../pic32mx/lib/libmchp_peripheral_32MX440F128H.a(port_set_bits_lib.o)
 .debug_str     0x00003f6e        0x0 /home/opt/microchip/xc32/v1.00/bin/../lib/gcc/pic32mx/4.5.1/../../../../pic32mx/lib/libmchp_peripheral_32MX440F128H.a(_ports_tbl_libp.o)
 .debug_str     0x00003f6e        0x0 /home/opt/microchip/xc32/v1.00/bin/../lib/gcc/pic32mx/4.5.1/../../../../pic32mx/lib/libmchp_peripheral_32MX440F128H.a(uart_lib.o)
 .debug_str     0x00003f6e        0x0 /home/opt/microchip/xc32/v1.00/bin/../lib/gcc/pic32mx/4.5.1/../../../../pic32mx/lib/libmchp_peripheral_32MX440F128H.a(int_restore_interrupts_lib.o)

.debug_loc      0x00000000     0x7aa5
 *(.debug_loc)
 .debug_loc     0x00000000       0x2e build/default/production/_ext/108654538/PinFunctions.o
 .debug_loc     0x0000002e       0x71 build/default/production/_ext/805493626/Debug_DyIO.o
 .debug_loc     0x0000009f       0x64 build/default/production/_ext/805493626/Namespace_bcs_io.o
 .debug_loc     0x00000103      0x7fa build/default/production/_ext/805493626/Abstract_bcs_io.o
 .debug_loc     0x000008fd      0x52d build/default/production/_ext/805493626/Bcs_IO_AdvancedAsync.o
 .debug_loc     0x00000e2a      0x165 build/default/production/_ext/1051272628/Abstract_bcs_io_setmode.o
 .debug_loc     0x00000f8f      0x489 build/default/production/_ext/1825615050/PID.o
 .debug_loc     0x00001418      0x137 build/default/production/_ext/1978776677/UpstreamPackets.o
 .debug_loc     0x0000154f      0x167 build/default/production/_ext/1978776677/InitializationCallbacks.o
 .debug_loc     0x000016b6      0x530 build/default/production/_ext/1978776677/DownStreamPackets.o
 .debug_loc     0x00001be6      0x285 build/default/production/_ext/1978776677/AsyncManager.o
 .debug_loc     0x00001e6b      0x125 build/default/production/_ext/990863823/AVRInterface.o
 .debug_loc     0x00001f90       0xff build/default/production/_ext/990863823/Switches.o
 .debug_loc     0x0000208f       0xa3 build/default/production/_ext/990863823/DyIODataTableManager.o
 .debug_loc     0x00002132      0x631 build/default/production/_ext/990863823/CoProcCom.o
 .debug_loc     0x00002763       0xfe build/default/production/_ext/990863823/ADC.o
 .debug_loc     0x00002861      0x3cb build/default/production/_ext/990863823/Counter.o
 .debug_loc     0x00002c2c      0x166 build/default/production/_ext/990863823/EEPROMMannager.o
 .debug_loc     0x00002d92       0x1e build/default/production/_ext/990863823/SerialPassThrough.o
 .debug_loc     0x00002db0       0xd3 build/default/production/_ext/990863823/SPI.o
 .debug_loc     0x00002e83      0x7f8 build/default/production/_ext/990863823/PPMReader.o
 .debug_loc     0x0000367b       0xe0 build/default/production/_ext/1020318379/Pin_State.o
 .debug_loc     0x0000375b      0x3ee build/default/production/_ext/1020318379/ChannelValues.o
 .debug_loc     0x00003b49       0xf2 build/default/production/_ext/1020318379/ChannelMode.o
 .debug_loc     0x00003c3b       0x62 build/default/production/_ext/1281821416/Namespace_bcs_safe.o
 .debug_loc     0x00003c9d      0x297 build/default/production/_ext/321196743/Namespace_neuronrobotics_dyio.o
 .debug_loc     0x00003f34       0x6d build/default/production/_ext/321196743/Namespace_bcs_pid_dypid.o
 .debug_loc     0x00003fa1       0x1e build/default/production/_ext/1360937237/DyIOMain.o
 .debug_loc     0x00003fbf      0x224 ../../../../../c-bowler/firmware/library/NR-Clib/development/c-bowler.X/dist/default/production/c-bowler.X.a(BowlerPacketParser.o)
 .debug_loc     0x000041e3      0x3ab ../../../../../c-bowler/firmware/library/NR-Clib/development/c-bowler.X/dist/default/production/c-bowler.X.a(Namespace_bcs_core.o)
 .debug_loc     0x0000458e      0x2b5 ../../../../../c-bowler/firmware/library/NR-Clib/development/c-bowler.X/dist/default/production/c-bowler.X.a(Bowler_Server.o)
 .debug_loc     0x00004843      0x573 ../../../../../c-bowler/firmware/library/NR-Clib/development/c-bowler.X/dist/default/production/c-bowler.X.a(Debug.o)
 .debug_loc     0x00004db6      0x42f ../../../../../c-bowler/firmware/library/NR-Clib/development/c-bowler.X/dist/default/production/c-bowler.X.a(FIFO.o)
 .debug_loc     0x000051e5      0x40e ../../../../../c-bowler/firmware/library/NR-Clib/development/c-bowler.X/dist/default/production/c-bowler.X.a(Bowler_Helper.o)
 .debug_loc     0x000055f3       0x71 ../../../../../c-bowler/firmware/library/NR-Clib/development/c-bowler.X/dist/default/production/c-bowler.X.a(Scheduler.o)
 .debug_loc     0x00005664       0x26 ../../../../../c-bowler/firmware/library/NR-Clib/development/c-bowler.X/dist/default/production/c-bowler.X.a(Namespace_bcs_pid.o)
 .debug_loc     0x0000568a      0x6a9 ../../../../../c-bowler/firmware/library/NR-Clib/development/c-bowler.X/dist/default/production/c-bowler.X.a(AbstractPID.o)
 .debug_loc     0x00005d33      0x257 ../../../../../c-bowler/firmware/library/NR-Clib/development/c-bowler.X/dist/default/production/c-bowler.X.a(usb_fifo.o)
 .debug_loc     0x00005f8a      0x362 ../../../../../c-bowler/firmware/library/NR-Clib/development/c-bowler.X/dist/default/production/c-bowler.X.a(usb_device.o)
 .debug_loc     0x000062ec       0xa9 ../../../../../c-bowler/firmware/library/NR-Clib/development/c-bowler.X/dist/default/production/c-bowler.X.a(LED.o)
 .debug_loc     0x00006395       0xf0 ../../../../../c-bowler/firmware/library/NR-Clib/development/c-bowler.X/dist/default/production/c-bowler.X.a(ADC.o)
 .debug_loc     0x00006485       0xf3 ../../../../../c-bowler/firmware/library/NR-Clib/development/c-bowler.X/dist/default/production/c-bowler.X.a(HAL_P32.o)
 .debug_loc     0x00006578       0xf5 ../../../../../c-bowler/firmware/library/NR-Clib/development/c-bowler.X/dist/default/production/c-bowler.X.a(Delay.o)
 .debug_loc     0x0000666d       0x4c ../../../../../c-bowler/firmware/library/NR-Clib/development/c-bowler.X/dist/default/production/c-bowler.X.a(Bowler_USB_HAL.o)
 .debug_loc     0x000066b9      0x37b ../../../../../c-bowler/firmware/library/NR-Clib/development/c-bowler.X/dist/default/production/c-bowler.X.a(FlashStorage.o)
 .debug_loc     0x00006a34       0xd2 ../../../../../c-bowler/firmware/library/NR-Clib/development/c-bowler.X/dist/default/production/c-bowler.X.a(Bowler_UART_HAL.o)
 .debug_loc     0x00006b06       0x31 ../../../../../c-bowler/firmware/library/NR-Clib/development/c-bowler.X/dist/default/production/c-bowler.X.a(Tick.o)
 .debug_loc     0x00006b37      0x156 ../../../../../c-bowler/firmware/library/NR-Clib/development/c-bowler.X/dist/default/production/c-bowler.X.a(UART.o)
 .debug_loc     0x00006c8d      0x258 ../../../../../c-bowler/firmware/library/NR-Clib/development/c-bowler.X/dist/default/production/c-bowler.X.a(Namespace_bcs_rpc.o)
 .debug_loc     0x00006ee5      0x36b ../../../../../c-bowler/firmware/library/NR-Clib/development/c-bowler.X/dist/default/production/c-bowler.X.a(PidRpc.o)
 .debug_loc     0x00007250      0x21d ../../../../../c-bowler/firmware/library/NR-Clib/development/c-bowler.X/dist/default/production/c-bowler.X.a(PidHysteresis.o)
 .debug_loc     0x0000746d      0x1bf ../../../../../c-bowler/firmware/library/NR-Clib/development/c-bowler.X/dist/default/production/c-bowler.X.a(PidAsync.o)
 .debug_loc     0x0000762c       0x7b ../../../../../c-bowler/firmware/library/NR-Clib/development/c-bowler.X/dist/default/production/c-bowler.X.a(usb_callback.o)
 .debug_loc     0x000076a7      0x13f ../../../../../c-bowler/firmware/library/NR-Clib/development/c-bowler.X/dist/default/production/c-bowler.X.a(usb_function_cdc.o)
 .debug_loc     0x000077e6       0xae ../../../../../c-bowler/firmware/library/NR-Clib/development/c-bowler.X/dist/default/production/c-bowler.X.a(usb_descriptors.o)
 .debug_loc     0x00007894      0x1b4 ../../../../../c-bowler/firmware/library/NR-Clib/development/c-bowler.X/dist/default/production/c-bowler.X.a(PidVelocity.o)
 .debug_loc     0x00007a48       0x5d /home/opt/microchip/xc32/v1.00/bin/../lib/gcc/pic32mx/4.5.1/libgcc.a(floatunsisf.o)

.debug_macinfo
 *(.debug_macinfo)

.debug_weaknames
 *(.debug_weaknames)

.debug_funcnames
 *(.debug_funcnames)

.debug_typenames
 *(.debug_typenames)

.debug_varnames
 *(.debug_varnames)

.debug_pubtypes
                0x00000000     0x593c
 *(.debug_pubtypes)
 .debug_pubtypes
                0x00000000      0x150 build/default/production/_ext/108654538/PinFunctions.o
 .debug_pubtypes
                0x00000150       0xe7 build/default/production/_ext/805493626/Debug_DyIO.o
 .debug_pubtypes
                0x00000237      0x1b0 build/default/production/_ext/805493626/Namespace_bcs_io.o
 .debug_pubtypes
                0x000003e7      0x1ed build/default/production/_ext/805493626/Abstract_bcs_io.o
 .debug_pubtypes
                0x000005d4      0x18a build/default/production/_ext/805493626/Bcs_IO_AdvancedAsync.o
 .debug_pubtypes
                0x0000075e      0x13f build/default/production/_ext/1051272628/Abstract_bcs_io_setmode.o
 .debug_pubtypes
                0x0000089d      0x19f build/default/production/_ext/1051272628/Namespace_bcs_io_setmode.o
 .debug_pubtypes
                0x00000a3c      0x125 build/default/production/_ext/1825615050/CartesianController.o
 .debug_pubtypes
                0x00000b61      0x2af build/default/production/_ext/1825615050/PID.o
 .debug_pubtypes
                0x00000e10      0x1a7 build/default/production/_ext/1978776677/UpstreamPackets.o
 .debug_pubtypes
                0x00000fb7      0x20a build/default/production/_ext/1978776677/InitializationCallbacks.o
 .debug_pubtypes
                0x000011c1      0x188 build/default/production/_ext/1978776677/DownStreamPackets.o
 .debug_pubtypes
                0x00001349      0x17d build/default/production/_ext/1978776677/AsyncManager.o
 .debug_pubtypes
                0x000014c6       0xbd build/default/production/_ext/2110062566/UartDMARx.o
 .debug_pubtypes
                0x00001583       0xfc build/default/production/_ext/990863823/AVRInterface.o
 .debug_pubtypes
                0x0000167f       0xfa build/default/production/_ext/990863823/Switches.o
 .debug_pubtypes
                0x00001779      0x13b build/default/production/_ext/990863823/DyIODataTableManager.o
 .debug_pubtypes
                0x000018b4      0x1e6 build/default/production/_ext/990863823/CoProcCom.o
 .debug_pubtypes
                0x00001a9a      0x13e build/default/production/_ext/990863823/ADC.o
 .debug_pubtypes
                0x00001bd8      0x1bf build/default/production/_ext/990863823/Counter.o
 .debug_pubtypes
                0x00001d97      0x204 build/default/production/_ext/990863823/EEPROMMannager.o
 .debug_pubtypes
                0x00001f9b      0x112 build/default/production/_ext/990863823/SerialPassThrough.o
 .debug_pubtypes
                0x000020ad      0x178 build/default/production/_ext/990863823/SPI.o
 .debug_pubtypes
                0x00002225      0x18b build/default/production/_ext/990863823/PPMReader.o
 .debug_pubtypes
                0x000023b0      0x102 build/default/production/_ext/1020318379/Pin_State.o
 .debug_pubtypes
                0x000024b2      0x125 build/default/production/_ext/1020318379/ChannelConfig.o
 .debug_pubtypes
                0x000025d7       0xf4 build/default/production/_ext/1020318379/ChannelValues.o
 .debug_pubtypes
                0x000026cb       0xea build/default/production/_ext/1020318379/ChannelMode.o
 .debug_pubtypes
                0x000027b5       0xbd build/default/production/_ext/1281821416/Abstract_bsc_safe.o
 .debug_pubtypes
                0x00002872      0x1cd build/default/production/_ext/1281821416/Namespace_bcs_safe.o
 .debug_pubtypes
                0x00002a3f      0x1d0 build/default/production/_ext/321196743/Namespace_neuronrobotics_dyio.o
 .debug_pubtypes
                0x00002c0f      0x1bf build/default/production/_ext/321196743/Namespace_bcs_pid_dypid.o
 .debug_pubtypes
                0x00002dce       0xbd build/default/production/_ext/1360937237/Main.o
 .debug_pubtypes
                0x00002e8b      0x148 build/default/production/_ext/1360937237/DyIOMain.o
 .debug_pubtypes
                0x00002fd3      0x18c ../../../../../c-bowler/firmware/library/NR-Clib/development/c-bowler.X/dist/default/production/c-bowler.X.a(BowlerPacketParser.o)
 .debug_pubtypes
                0x0000315f      0x1b0 ../../../../../c-bowler/firmware/library/NR-Clib/development/c-bowler.X/dist/default/production/c-bowler.X.a(Namespace_bcs_core.o)
 .debug_pubtypes
                0x0000330f      0x1f8 ../../../../../c-bowler/firmware/library/NR-Clib/development/c-bowler.X/dist/default/production/c-bowler.X.a(Bowler_Server.o)
 .debug_pubtypes
                0x00003507      0x16f ../../../../../c-bowler/firmware/library/NR-Clib/development/c-bowler.X/dist/default/production/c-bowler.X.a(Debug.o)
 .debug_pubtypes
                0x00003676      0x1b8 ../../../../../c-bowler/firmware/library/NR-Clib/development/c-bowler.X/dist/default/production/c-bowler.X.a(FIFO.o)
 .debug_pubtypes
                0x0000382e      0x1fb ../../../../../c-bowler/firmware/library/NR-Clib/development/c-bowler.X/dist/default/production/c-bowler.X.a(Bowler_Helper.o)
 .debug_pubtypes
                0x00003a29       0xdd ../../../../../c-bowler/firmware/library/NR-Clib/development/c-bowler.X/dist/default/production/c-bowler.X.a(Scheduler.o)
 .debug_pubtypes
                0x00003b06      0x19f ../../../../../c-bowler/firmware/library/NR-Clib/development/c-bowler.X/dist/default/production/c-bowler.X.a(Namespace_bcs_pid.o)
 .debug_pubtypes
                0x00003ca5      0x27b ../../../../../c-bowler/firmware/library/NR-Clib/development/c-bowler.X/dist/default/production/c-bowler.X.a(AbstractPID.o)
 .debug_pubtypes
                0x00003f20      0x1d3 ../../../../../c-bowler/firmware/library/NR-Clib/development/c-bowler.X/dist/default/production/c-bowler.X.a(usb_fifo.o)
 .debug_pubtypes
                0x000040f3      0x287 ../../../../../c-bowler/firmware/library/NR-Clib/development/c-bowler.X/dist/default/production/c-bowler.X.a(usb_device.o)
 .debug_pubtypes
                0x0000437a       0xc6 ../../../../../c-bowler/firmware/library/NR-Clib/development/c-bowler.X/dist/default/production/c-bowler.X.a(LED.o)
 .debug_pubtypes
                0x00004440      0x128 ../../../../../c-bowler/firmware/library/NR-Clib/development/c-bowler.X/dist/default/production/c-bowler.X.a(ADC.o)
 .debug_pubtypes
                0x00004568      0x18b ../../../../../c-bowler/firmware/library/NR-Clib/development/c-bowler.X/dist/default/production/c-bowler.X.a(HAL_P32.o)
 .debug_pubtypes
                0x000046f3       0xd0 ../../../../../c-bowler/firmware/library/NR-Clib/development/c-bowler.X/dist/default/production/c-bowler.X.a(Delay.o)
 .debug_pubtypes
                0x000047c3       0xe2 ../../../../../c-bowler/firmware/library/NR-Clib/development/c-bowler.X/dist/default/production/c-bowler.X.a(Bowler_USB_HAL.o)
 .debug_pubtypes
                0x000048a5      0x13b ../../../../../c-bowler/firmware/library/NR-Clib/development/c-bowler.X/dist/default/production/c-bowler.X.a(FlashStorage.o)
 .debug_pubtypes
                0x000049e0      0x175 ../../../../../c-bowler/firmware/library/NR-Clib/development/c-bowler.X/dist/default/production/c-bowler.X.a(Bowler_UART_HAL.o)
 .debug_pubtypes
                0x00004b55       0xc7 ../../../../../c-bowler/firmware/library/NR-Clib/development/c-bowler.X/dist/default/production/c-bowler.X.a(Tick.o)
 .debug_pubtypes
                0x00004c1c       0xe9 ../../../../../c-bowler/firmware/library/NR-Clib/development/c-bowler.X/dist/default/production/c-bowler.X.a(UART.o)
 .debug_pubtypes
                0x00004d05      0x1cd ../../../../../c-bowler/firmware/library/NR-Clib/development/c-bowler.X/dist/default/production/c-bowler.X.a(Namespace_bcs_rpc.o)
 .debug_pubtypes
                0x00004ed2      0x13f ../../../../../c-bowler/firmware/library/NR-Clib/development/c-bowler.X/dist/default/production/c-bowler.X.a(PidRpc.o)
 .debug_pubtypes
                0x00005011      0x192 ../../../../../c-bowler/firmware/library/NR-Clib/development/c-bowler.X/dist/default/production/c-bowler.X.a(PidHysteresis.o)
 .debug_pubtypes
                0x000051a3      0x1c1 ../../../../../c-bowler/firmware/library/NR-Clib/development/c-bowler.X/dist/default/production/c-bowler.X.a(PidAsync.o)
 .debug_pubtypes
                0x00005364      0x167 ../../../../../c-bowler/firmware/library/NR-Clib/development/c-bowler.X/dist/default/production/c-bowler.X.a(usb_callback.o)
 .debug_pubtypes
                0x000054cb      0x236 ../../../../../c-bowler/firmware/library/NR-Clib/development/c-bowler.X/dist/default/production/c-bowler.X.a(usb_function_cdc.o)
 .debug_pubtypes
                0x00005701      0x104 ../../../../../c-bowler/firmware/library/NR-Clib/development/c-bowler.X/dist/default/production/c-bowler.X.a(usb_descriptors.o)
 .debug_pubtypes
                0x00005805      0x103 ../../../../../c-bowler/firmware/library/NR-Clib/development/c-bowler.X/dist/default/production/c-bowler.X.a(PidVelocity.o)
 .debug_pubtypes
                0x00005908       0x34 /home/opt/microchip/xc32/v1.00/bin/../lib/gcc/pic32mx/4.5.1/libgcc.a(floatunsisf.o)

.debug_ranges   0x00000000     0x1500
 *(.debug_ranges)
 .debug_ranges  0x00000000       0x10 build/default/production/_ext/108654538/PinFunctions.o
 .debug_ranges  0x00000010       0x18 build/default/production/_ext/805493626/Debug_DyIO.o
 .debug_ranges  0x00000028       0x18 build/default/production/_ext/805493626/Namespace_bcs_io.o
 .debug_ranges  0x00000040       0xc8 build/default/production/_ext/805493626/Abstract_bcs_io.o
 .debug_ranges  0x00000108       0x88 build/default/production/_ext/805493626/Bcs_IO_AdvancedAsync.o
 .debug_ranges  0x00000190       0x30 build/default/production/_ext/1051272628/Abstract_bcs_io_setmode.o
 .debug_ranges  0x000001c0       0x18 build/default/production/_ext/1051272628/Namespace_bcs_io_setmode.o
 .debug_ranges  0x000001d8       0x30 build/default/production/_ext/1825615050/CartesianController.o
 .debug_ranges  0x00000208       0xb8 build/default/production/_ext/1825615050/PID.o
 .debug_ranges  0x000002c0       0x48 build/default/production/_ext/1978776677/UpstreamPackets.o
 .debug_ranges  0x00000308       0x18 build/default/production/_ext/1978776677/InitializationCallbacks.o
 .debug_ranges  0x00000320       0xb0 build/default/production/_ext/1978776677/DownStreamPackets.o
 .debug_ranges  0x000003d0       0x98 build/default/production/_ext/1978776677/AsyncManager.o
 .debug_ranges  0x00000468       0x50 build/default/production/_ext/990863823/AVRInterface.o
 .debug_ranges  0x000004b8       0x18 build/default/production/_ext/990863823/Switches.o
 .debug_ranges  0x000004d0       0x30 build/default/production/_ext/990863823/DyIODataTableManager.o
 .debug_ranges  0x00000500       0xd0 build/default/production/_ext/990863823/CoProcCom.o
 .debug_ranges  0x000005d0       0x68 build/default/production/_ext/990863823/ADC.o
 .debug_ranges  0x00000638       0xc0 build/default/production/_ext/990863823/Counter.o
 .debug_ranges  0x000006f8       0x40 build/default/production/_ext/990863823/EEPROMMannager.o
 .debug_ranges  0x00000738       0x10 build/default/production/_ext/990863823/SerialPassThrough.o
 .debug_ranges  0x00000748       0x38 build/default/production/_ext/990863823/SPI.o
 .debug_ranges  0x00000780       0xd8 build/default/production/_ext/990863823/PPMReader.o
 .debug_ranges  0x00000858       0x10 build/default/production/_ext/1020318379/Pin_State.o
 .debug_ranges  0x00000868       0x10 build/default/production/_ext/1020318379/ChannelConfig.o
 .debug_ranges  0x00000878       0x78 build/default/production/_ext/1020318379/ChannelValues.o
 .debug_ranges  0x000008f0       0x28 build/default/production/_ext/1020318379/ChannelMode.o
 .debug_ranges  0x00000918       0x28 build/default/production/_ext/1281821416/Namespace_bcs_safe.o
 .debug_ranges  0x00000940       0x50 build/default/production/_ext/321196743/Namespace_neuronrobotics_dyio.o
 .debug_ranges  0x00000990       0x28 build/default/production/_ext/321196743/Namespace_bcs_pid_dypid.o
 .debug_ranges  0x000009b8       0x10 build/default/production/_ext/1360937237/Main.o
 .debug_ranges  0x000009c8       0x20 build/default/production/_ext/1360937237/DyIOMain.o
 .debug_ranges  0x000009e8       0x60 ../../../../../c-bowler/firmware/library/NR-Clib/development/c-bowler.X/dist/default/production/c-bowler.X.a(BowlerPacketParser.o)
 .debug_ranges  0x00000a48       0x60 ../../../../../c-bowler/firmware/library/NR-Clib/development/c-bowler.X/dist/default/production/c-bowler.X.a(Namespace_bcs_core.o)
 .debug_ranges  0x00000aa8       0x50 ../../../../../c-bowler/firmware/library/NR-Clib/development/c-bowler.X/dist/default/production/c-bowler.X.a(Bowler_Server.o)
 .debug_ranges  0x00000af8       0xa0 ../../../../../c-bowler/firmware/library/NR-Clib/development/c-bowler.X/dist/default/production/c-bowler.X.a(Debug.o)
 .debug_ranges  0x00000b98       0x90 ../../../../../c-bowler/firmware/library/NR-Clib/development/c-bowler.X/dist/default/production/c-bowler.X.a(FIFO.o)
 .debug_ranges  0x00000c28       0xc0 ../../../../../c-bowler/firmware/library/NR-Clib/development/c-bowler.X/dist/default/production/c-bowler.X.a(Bowler_Helper.o)
 .debug_ranges  0x00000ce8       0x10 ../../../../../c-bowler/firmware/library/NR-Clib/development/c-bowler.X/dist/default/production/c-bowler.X.a(Scheduler.o)
 .debug_ranges  0x00000cf8       0x18 ../../../../../c-bowler/firmware/library/NR-Clib/development/c-bowler.X/dist/default/production/c-bowler.X.a(Namespace_bcs_pid.o)
 .debug_ranges  0x00000d10       0xe0 ../../../../../c-bowler/firmware/library/NR-Clib/development/c-bowler.X/dist/default/production/c-bowler.X.a(AbstractPID.o)
 .debug_ranges  0x00000df0       0x88 ../../../../../c-bowler/firmware/library/NR-Clib/development/c-bowler.X/dist/default/production/c-bowler.X.a(usb_fifo.o)
 .debug_ranges  0x00000e78       0xd8 ../../../../../c-bowler/firmware/library/NR-Clib/development/c-bowler.X/dist/default/production/c-bowler.X.a(usb_device.o)
 .debug_ranges  0x00000f50       0x30 ../../../../../c-bowler/firmware/library/NR-Clib/development/c-bowler.X/dist/default/production/c-bowler.X.a(LED.o)
 .debug_ranges  0x00000f80       0x20 ../../../../../c-bowler/firmware/library/NR-Clib/development/c-bowler.X/dist/default/production/c-bowler.X.a(ADC.o)
 .debug_ranges  0x00000fa0       0x68 ../../../../../c-bowler/firmware/library/NR-Clib/development/c-bowler.X/dist/default/production/c-bowler.X.a(HAL_P32.o)
 .debug_ranges  0x00001008       0x30 ../../../../../c-bowler/firmware/library/NR-Clib/development/c-bowler.X/dist/default/production/c-bowler.X.a(Delay.o)
 .debug_ranges  0x00001038       0x20 ../../../../../c-bowler/firmware/library/NR-Clib/development/c-bowler.X/dist/default/production/c-bowler.X.a(Bowler_USB_HAL.o)
 .debug_ranges  0x00001058       0x68 ../../../../../c-bowler/firmware/library/NR-Clib/development/c-bowler.X/dist/default/production/c-bowler.X.a(FlashStorage.o)
 .debug_ranges  0x000010c0       0x60 ../../../../../c-bowler/firmware/library/NR-Clib/development/c-bowler.X/dist/default/production/c-bowler.X.a(Bowler_UART_HAL.o)
 .debug_ranges  0x00001120       0x40 ../../../../../c-bowler/firmware/library/NR-Clib/development/c-bowler.X/dist/default/production/c-bowler.X.a(Tick.o)
 .debug_ranges  0x00001160       0x18 ../../../../../c-bowler/firmware/library/NR-Clib/development/c-bowler.X/dist/default/production/c-bowler.X.a(UART.o)
 .debug_ranges  0x00001178       0x20 ../../../../../c-bowler/firmware/library/NR-Clib/development/c-bowler.X/dist/default/production/c-bowler.X.a(Namespace_bcs_rpc.o)
 .debug_ranges  0x00001198       0x48 ../../../../../c-bowler/firmware/library/NR-Clib/development/c-bowler.X/dist/default/production/c-bowler.X.a(PidRpc.o)
 .debug_ranges  0x000011e0       0x68 ../../../../../c-bowler/firmware/library/NR-Clib/development/c-bowler.X/dist/default/production/c-bowler.X.a(PidHysteresis.o)
 .debug_ranges  0x00001248       0x40 ../../../../../c-bowler/firmware/library/NR-Clib/development/c-bowler.X/dist/default/production/c-bowler.X.a(PidAsync.o)
 .debug_ranges  0x00001288       0x58 ../../../../../c-bowler/firmware/library/NR-Clib/development/c-bowler.X/dist/default/production/c-bowler.X.a(usb_callback.o)
 .debug_ranges  0x000012e0       0x48 ../../../../../c-bowler/firmware/library/NR-Clib/development/c-bowler.X/dist/default/production/c-bowler.X.a(usb_function_cdc.o)
 .debug_ranges  0x00001328       0x20 ../../../../../c-bowler/firmware/library/NR-Clib/development/c-bowler.X/dist/default/production/c-bowler.X.a(usb_descriptors.o)
 .debug_ranges  0x00001348       0x20 ../../../../../c-bowler/firmware/library/NR-Clib/development/c-bowler.X/dist/default/production/c-bowler.X.a(PidVelocity.o)
 .debug_ranges  0x00001368       0x10 /home/opt/microchip/xc32/v1.00/bin/../lib/gcc/pic32mx/4.5.1/../../../../pic32mx/lib/libc.a(default-bootstrap-exception-handler.o)
 .debug_ranges  0x00001378       0x10 /home/opt/microchip/xc32/v1.00/bin/../lib/gcc/pic32mx/4.5.1/../../../../pic32mx/lib/libc.a(default-on-reset.o)
 .debug_ranges  0x00001388       0x10 /home/opt/microchip/xc32/v1.00/bin/../lib/gcc/pic32mx/4.5.1/../../../../pic32mx/lib/libc.a(default-on-bootstrap.o)
 .debug_ranges  0x00001398       0x10 /home/opt/microchip/xc32/v1.00/bin/../lib/gcc/pic32mx/4.5.1/../../../../pic32mx/lib/libmchp_peripheral_32MX440F128H.a(soft_reset_lib.o)
 .debug_ranges  0x000013a8       0x10 /home/opt/microchip/xc32/v1.00/bin/../lib/gcc/pic32mx/4.5.1/../../../../pic32mx/lib/libmchp_peripheral_32MX440F128H.a(int_enable_interrupts_lib.o)
 .debug_ranges  0x000013b8       0x10 /home/opt/microchip/xc32/v1.00/bin/../lib/gcc/pic32mx/4.5.1/../../../../pic32mx/lib/libmchp_peripheral_32MX440F128H.a(int_disable_interrupts_lib.o)
 .debug_ranges  0x000013c8       0x10 /home/opt/microchip/xc32/v1.00/bin/../lib/gcc/pic32mx/4.5.1/../../../../pic32mx/lib/libmchp_peripheral_32MX440F128H.a(int_enable_mv_int_lib.o)
 .debug_ranges  0x000013d8       0x50 /home/opt/microchip/xc32/v1.00/bin/../lib/gcc/pic32mx/4.5.1/../../../../pic32mx/lib/libmchp_peripheral_32MX440F128H.a(int_tbl_lib.o)
 .debug_ranges  0x00001428       0x10 /home/opt/microchip/xc32/v1.00/bin/../lib/gcc/pic32mx/4.5.1/../../../../pic32mx/lib/libmchp_peripheral_32MX440F128H.a(spi_getc_spi2_lib_legacy.o)
 .debug_ranges  0x00001438       0x10 /home/opt/microchip/xc32/v1.00/bin/../lib/gcc/pic32mx/4.5.1/../../../../pic32mx/lib/libmchp_peripheral_32MX440F128H.a(spi_open_spi2_lib_legacy.o)
 .debug_ranges  0x00001448       0x10 /home/opt/microchip/xc32/v1.00/bin/../lib/gcc/pic32mx/4.5.1/../../../../pic32mx/lib/libmchp_peripheral_32MX440F128H.a(nvm_erase_page_lib.o)
 .debug_ranges  0x00001458       0x10 /home/opt/microchip/xc32/v1.00/bin/../lib/gcc/pic32mx/4.5.1/../../../../pic32mx/lib/libmchp_peripheral_32MX440F128H.a(nvm_operation_lib.o)
 .debug_ranges  0x00001468       0x10 /home/opt/microchip/xc32/v1.00/bin/../lib/gcc/pic32mx/4.5.1/../../../../pic32mx/lib/libmchp_peripheral_32MX440F128H.a(nvm_write_word_lib.o)
 .debug_ranges  0x00001478       0x10 /home/opt/microchip/xc32/v1.00/bin/../lib/gcc/pic32mx/4.5.1/../../../../pic32mx/lib/libmchp_peripheral_32MX440F128H.a(port_set_pins_digital_out_lib.o)
 .debug_ranges  0x00001488       0x10 /home/opt/microchip/xc32/v1.00/bin/../lib/gcc/pic32mx/4.5.1/../../../../pic32mx/lib/libmchp_peripheral_32MX440F128H.a(port_clear_bits_lib.o)
 .debug_ranges  0x00001498       0x10 /home/opt/microchip/xc32/v1.00/bin/../lib/gcc/pic32mx/4.5.1/../../../../pic32mx/lib/libmchp_peripheral_32MX440F128H.a(port_set_bits_lib.o)
 .debug_ranges  0x000014a8       0x48 /home/opt/microchip/xc32/v1.00/bin/../lib/gcc/pic32mx/4.5.1/../../../../pic32mx/lib/libmchp_peripheral_32MX440F128H.a(uart_lib.o)
 .debug_ranges  0x000014f0       0x10 /home/opt/microchip/xc32/v1.00/bin/../lib/gcc/pic32mx/4.5.1/../../../../pic32mx/lib/libmchp_peripheral_32MX440F128H.a(int_restore_interrupts_lib.o)

.gnu.attributes
                0x00000000       0x10
 *(.gnu.attributes)
 .gnu.attributes
                0x00000000       0x10 build/default/production/_ext/108654538/PinFunctions.o
 .gnu.attributes
                0x00000010       0x10 build/default/production/_ext/805493626/Debug_DyIO.o
 .gnu.attributes
                0x00000020       0x10 build/default/production/_ext/805493626/Namespace_bcs_io.o
 .gnu.attributes
                0x00000030       0x10 build/default/production/_ext/805493626/Abstract_bcs_io.o
 .gnu.attributes
                0x00000040       0x10 build/default/production/_ext/805493626/Bcs_IO_AdvancedAsync.o
 .gnu.attributes
                0x00000050       0x10 build/default/production/_ext/1051272628/Abstract_bcs_io_setmode.o
 .gnu.attributes
                0x00000060       0x10 build/default/production/_ext/1051272628/Namespace_bcs_io_setmode.o
 .gnu.attributes
                0x00000070       0x10 build/default/production/_ext/1825615050/CartesianController.o
 .gnu.attributes
                0x00000080       0x10 build/default/production/_ext/1825615050/PID.o
 .gnu.attributes
                0x00000090       0x10 build/default/production/_ext/1978776677/UpstreamPackets.o
 .gnu.attributes
                0x000000a0       0x10 build/default/production/_ext/1978776677/InitializationCallbacks.o
 .gnu.attributes
                0x000000b0       0x10 build/default/production/_ext/1978776677/DownStreamPackets.o
 .gnu.attributes
                0x000000c0       0x10 build/default/production/_ext/1978776677/AsyncManager.o
 .gnu.attributes
                0x000000d0       0x10 build/default/production/_ext/2110062566/UartDMARx.o
 .gnu.attributes
                0x000000e0       0x10 build/default/production/_ext/990863823/AVRInterface.o
 .gnu.attributes
                0x000000f0       0x10 build/default/production/_ext/990863823/Switches.o
 .gnu.attributes
                0x00000100       0x10 build/default/production/_ext/990863823/DyIODataTableManager.o
 .gnu.attributes
                0x00000110       0x10 build/default/production/_ext/990863823/CoProcCom.o
 .gnu.attributes
                0x00000120       0x10 build/default/production/_ext/990863823/ADC.o
 .gnu.attributes
                0x00000130       0x10 build/default/production/_ext/990863823/Counter.o
 .gnu.attributes
                0x00000140       0x10 build/default/production/_ext/990863823/EEPROMMannager.o
 .gnu.attributes
                0x00000150       0x10 build/default/production/_ext/990863823/SerialPassThrough.o
 .gnu.attributes
                0x00000160       0x10 build/default/production/_ext/990863823/SPI.o
 .gnu.attributes
                0x00000170       0x10 build/default/production/_ext/990863823/PPMReader.o
 .gnu.attributes
                0x00000180       0x10 build/default/production/_ext/1020318379/Pin_State.o
 .gnu.attributes
                0x00000190       0x10 build/default/production/_ext/1020318379/ChannelConfig.o
 .gnu.attributes
                0x000001a0       0x10 build/default/production/_ext/1020318379/ChannelValues.o
 .gnu.attributes
                0x000001b0       0x10 build/default/production/_ext/1020318379/ChannelMode.o
 .gnu.attributes
                0x000001c0       0x10 build/default/production/_ext/1281821416/Abstract_bsc_safe.o
 .gnu.attributes
                0x000001d0       0x10 build/default/production/_ext/1281821416/Namespace_bcs_safe.o
 .gnu.attributes
                0x000001e0       0x10 build/default/production/_ext/321196743/Namespace_neuronrobotics_dyio.o
 .gnu.attributes
                0x000001f0       0x10 build/default/production/_ext/321196743/Namespace_bcs_pid_dypid.o
 .gnu.attributes
                0x00000200       0x10 build/default/production/_ext/1360937237/Main.o
 .gnu.attributes
                0x00000210       0x10 build/default/production/_ext/1360937237/DyIOMain.o
 .gnu.attributes
                0x00000220       0x10 ../../../../../c-bowler/firmware/library/NR-Clib/development/c-bowler.X/dist/default/production/c-bowler.X.a(BowlerPacketParser.o)
 .gnu.attributes
                0x00000230       0x10 ../../../../../c-bowler/firmware/library/NR-Clib/development/c-bowler.X/dist/default/production/c-bowler.X.a(Namespace_bcs_core.o)
 .gnu.attributes
                0x00000240       0x10 ../../../../../c-bowler/firmware/library/NR-Clib/development/c-bowler.X/dist/default/production/c-bowler.X.a(Bowler_Server.o)
 .gnu.attributes
                0x00000250       0x10 ../../../../../c-bowler/firmware/library/NR-Clib/development/c-bowler.X/dist/default/production/c-bowler.X.a(Debug.o)
 .gnu.attributes
                0x00000260       0x10 ../../../../../c-bowler/firmware/library/NR-Clib/development/c-bowler.X/dist/default/production/c-bowler.X.a(FIFO.o)
 .gnu.attributes
                0x00000270       0x10 ../../../../../c-bowler/firmware/library/NR-Clib/development/c-bowler.X/dist/default/production/c-bowler.X.a(Bowler_Helper.o)
 .gnu.attributes
                0x00000280       0x10 ../../../../../c-bowler/firmware/library/NR-Clib/development/c-bowler.X/dist/default/production/c-bowler.X.a(Scheduler.o)
 .gnu.attributes
                0x00000290       0x10 ../../../../../c-bowler/firmware/library/NR-Clib/development/c-bowler.X/dist/default/production/c-bowler.X.a(Namespace_bcs_pid.o)
 .gnu.attributes
                0x000002a0       0x10 ../../../../../c-bowler/firmware/library/NR-Clib/development/c-bowler.X/dist/default/production/c-bowler.X.a(AbstractPID.o)
 .gnu.attributes
                0x000002b0       0x10 ../../../../../c-bowler/firmware/library/NR-Clib/development/c-bowler.X/dist/default/production/c-bowler.X.a(usb_fifo.o)
 .gnu.attributes
                0x000002c0       0x10 ../../../../../c-bowler/firmware/library/NR-Clib/development/c-bowler.X/dist/default/production/c-bowler.X.a(usb_device.o)
 .gnu.attributes
                0x000002d0       0x10 ../../../../../c-bowler/firmware/library/NR-Clib/development/c-bowler.X/dist/default/production/c-bowler.X.a(LED.o)
 .gnu.attributes
                0x000002e0       0x10 ../../../../../c-bowler/firmware/library/NR-Clib/development/c-bowler.X/dist/default/production/c-bowler.X.a(ADC.o)
 .gnu.attributes
                0x000002f0       0x10 ../../../../../c-bowler/firmware/library/NR-Clib/development/c-bowler.X/dist/default/production/c-bowler.X.a(HAL_P32.o)
 .gnu.attributes
                0x00000300       0x10 ../../../../../c-bowler/firmware/library/NR-Clib/development/c-bowler.X/dist/default/production/c-bowler.X.a(Delay.o)
 .gnu.attributes
                0x00000310       0x10 ../../../../../c-bowler/firmware/library/NR-Clib/development/c-bowler.X/dist/default/production/c-bowler.X.a(Bowler_USB_HAL.o)
 .gnu.attributes
                0x00000320       0x10 ../../../../../c-bowler/firmware/library/NR-Clib/development/c-bowler.X/dist/default/production/c-bowler.X.a(FlashStorage.o)
 .gnu.attributes
                0x00000330       0x10 ../../../../../c-bowler/firmware/library/NR-Clib/development/c-bowler.X/dist/default/production/c-bowler.X.a(Bowler_UART_HAL.o)
 .gnu.attributes
                0x00000340       0x10 ../../../../../c-bowler/firmware/library/NR-Clib/development/c-bowler.X/dist/default/production/c-bowler.X.a(Tick.o)
 .gnu.attributes
                0x00000350       0x10 ../../../../../c-bowler/firmware/library/NR-Clib/development/c-bowler.X/dist/default/production/c-bowler.X.a(UART.o)
 .gnu.attributes
                0x00000360       0x10 ../../../../../c-bowler/firmware/library/NR-Clib/development/c-bowler.X/dist/default/production/c-bowler.X.a(Namespace_bcs_rpc.o)
 .gnu.attributes
                0x00000370       0x10 ../../../../../c-bowler/firmware/library/NR-Clib/development/c-bowler.X/dist/default/production/c-bowler.X.a(PidRpc.o)
 .gnu.attributes
                0x00000380       0x10 ../../../../../c-bowler/firmware/library/NR-Clib/development/c-bowler.X/dist/default/production/c-bowler.X.a(PidHysteresis.o)
 .gnu.attributes
                0x00000390       0x10 ../../../../../c-bowler/firmware/library/NR-Clib/development/c-bowler.X/dist/default/production/c-bowler.X.a(PidAsync.o)
 .gnu.attributes
                0x000003a0       0x10 ../../../../../c-bowler/firmware/library/NR-Clib/development/c-bowler.X/dist/default/production/c-bowler.X.a(usb_callback.o)
 .gnu.attributes
                0x000003b0       0x10 ../../../../../c-bowler/firmware/library/NR-Clib/development/c-bowler.X/dist/default/production/c-bowler.X.a(usb_function_cdc.o)
 .gnu.attributes
                0x000003c0       0x10 ../../../../../c-bowler/firmware/library/NR-Clib/development/c-bowler.X/dist/default/production/c-bowler.X.a(usb_descriptors.o)
 .gnu.attributes
                0x000003d0       0x10 ../../../../../c-bowler/firmware/library/NR-Clib/development/c-bowler.X/dist/default/production/c-bowler.X.a(PidVelocity.o)
 .gnu.attributes
                0x000003e0       0x10 /home/opt/microchip/xc32/v1.00/bin/../lib/gcc/pic32mx/4.5.1/libgcc.a(floatunsisf.o)
 .gnu.attributes
                0x000003f0       0x10 /home/opt/microchip/xc32/v1.00/bin/../lib/gcc/pic32mx/4.5.1/../../../../pic32mx/lib/libc.a(default-bootstrap-exception-handler.o)
 .gnu.attributes
                0x00000400       0x10 /home/opt/microchip/xc32/v1.00/bin/../lib/gcc/pic32mx/4.5.1/../../../../pic32mx/lib/libc.a(default-on-reset.o)
 .gnu.attributes
                0x00000410       0x10 /home/opt/microchip/xc32/v1.00/bin/../lib/gcc/pic32mx/4.5.1/../../../../pic32mx/lib/libc.a(default-on-bootstrap.o)
 .gnu.attributes
                0x00000420       0x10 /home/opt/microchip/xc32/v1.00/bin/../lib/gcc/pic32mx/4.5.1/../../../../pic32mx/lib/libmchp_peripheral_32MX440F128H.a(soft_reset_lib.o)
 .gnu.attributes
                0x00000430       0x10 /home/opt/microchip/xc32/v1.00/bin/../lib/gcc/pic32mx/4.5.1/../../../../pic32mx/lib/libmchp_peripheral_32MX440F128H.a(int_enable_interrupts_lib.o)
 .gnu.attributes
                0x00000440       0x10 /home/opt/microchip/xc32/v1.00/bin/../lib/gcc/pic32mx/4.5.1/../../../../pic32mx/lib/libmchp_peripheral_32MX440F128H.a(int_disable_interrupts_lib.o)
 .gnu.attributes
                0x00000450       0x10 /home/opt/microchip/xc32/v1.00/bin/../lib/gcc/pic32mx/4.5.1/../../../../pic32mx/lib/libmchp_peripheral_32MX440F128H.a(int_enable_mv_int_lib.o)
 .gnu.attributes
                0x00000460       0x10 /home/opt/microchip/xc32/v1.00/bin/../lib/gcc/pic32mx/4.5.1/../../../../pic32mx/lib/libmchp_peripheral_32MX440F128H.a(int_tbl_lib.o)
 .gnu.attributes
                0x00000470       0x10 /home/opt/microchip/xc32/v1.00/bin/../lib/gcc/pic32mx/4.5.1/../../../../pic32mx/lib/libmchp_peripheral_32MX440F128H.a(spi_getc_spi2_lib_legacy.o)
 .gnu.attributes
                0x00000480       0x10 /home/opt/microchip/xc32/v1.00/bin/../lib/gcc/pic32mx/4.5.1/../../../../pic32mx/lib/libmchp_peripheral_32MX440F128H.a(spi_open_spi2_lib_legacy.o)
 .gnu.attributes
                0x00000490       0x10 /home/opt/microchip/xc32/v1.00/bin/../lib/gcc/pic32mx/4.5.1/../../../../pic32mx/lib/libmchp_peripheral_32MX440F128H.a(spi_brg_tbl_lib_legacy.o)
 .gnu.attributes
                0x000004a0       0x10 /home/opt/microchip/xc32/v1.00/bin/../lib/gcc/pic32mx/4.5.1/../../../../pic32mx/lib/libmchp_peripheral_32MX440F128H.a(nvm_erase_page_lib.o)
 .gnu.attributes
                0x000004b0       0x10 /home/opt/microchip/xc32/v1.00/bin/../lib/gcc/pic32mx/4.5.1/../../../../pic32mx/lib/libmchp_peripheral_32MX440F128H.a(nvm_operation_lib.o)
 .gnu.attributes
                0x000004c0       0x10 /home/opt/microchip/xc32/v1.00/bin/../lib/gcc/pic32mx/4.5.1/../../../../pic32mx/lib/libmchp_peripheral_32MX440F128H.a(nvm_write_word_lib.o)
 .gnu.attributes
                0x000004d0       0x10 /home/opt/microchip/xc32/v1.00/bin/../lib/gcc/pic32mx/4.5.1/../../../../pic32mx/lib/libmchp_peripheral_32MX440F128H.a(port_set_pins_digital_out_lib.o)
 .gnu.attributes
                0x000004e0       0x10 /home/opt/microchip/xc32/v1.00/bin/../lib/gcc/pic32mx/4.5.1/../../../../pic32mx/lib/libmchp_peripheral_32MX440F128H.a(port_clear_bits_lib.o)
 .gnu.attributes
                0x000004f0       0x10 /home/opt/microchip/xc32/v1.00/bin/../lib/gcc/pic32mx/4.5.1/../../../../pic32mx/lib/libmchp_peripheral_32MX440F128H.a(port_set_bits_lib.o)
 .gnu.attributes
                0x00000500       0x10 /home/opt/microchip/xc32/v1.00/bin/../lib/gcc/pic32mx/4.5.1/../../../../pic32mx/lib/libmchp_peripheral_32MX440F128H.a(_ports_tbl_libp.o)
 .gnu.attributes
                0x00000510       0x10 /home/opt/microchip/xc32/v1.00/bin/../lib/gcc/pic32mx/4.5.1/../../../../pic32mx/lib/libmchp_peripheral_32MX440F128H.a(uart_lib.o)
 .gnu.attributes
                0x00000520       0x10 /home/opt/microchip/xc32/v1.00/bin/../lib/gcc/pic32mx/4.5.1/../../../../pic32mx/lib/libmchp_peripheral_32MX440F128H.a(int_restore_interrupts_lib.o)
OUTPUT(dist/default/production/DyIO.X.production.elf elf32-tradlittlemips)
LOAD stack
LOAD data_init

.stack          0xa00027b0      0x400
 .stack         0xa00027b0      0x400 stack

.bss.pidGroups  0xa00007f8      0x4a8
 .bss.pidGroups
                0xa00007f8      0x4a8 build/default/production/_ext/1825615050/PID.o

.bss.DATA       0xa0000ca0      0x330
 .bss.DATA      0xa0000ca0      0x330 build/default/production/_ext/108654538/PinFunctions.o

.bss.privateRXUSB
                0xa0000fd0      0x214
 .bss.privateRXUSB
                0xa0000fd0      0x214 ../../../../../c-bowler/firmware/library/NR-Clib/development/c-bowler.X/dist/default/production/c-bowler.X.a(HAL_P32.o)

.bss.privateRXUART
                0xa00011e4      0x214
 .bss.privateRXUART
                0xa00011e4      0x214 ../../../../../c-bowler/firmware/library/NR-Clib/development/c-bowler.X/dist/default/production/c-bowler.X.a(HAL_P32.o)

.bss.packetTemp
                0xa00013f8      0x218
 .bss.packetTemp
                0xa00013f8      0x10c build/default/production/_ext/1978776677/UpstreamPackets.o
 .bss.packetTemp
                0xa0001504      0x10c build/default/production/_ext/1978776677/DownStreamPackets.o

.bss.privateSerialRX
                0xa0001610      0x10c
 .bss.privateSerialRX
                0xa0001610      0x10c build/default/production/_ext/990863823/DyIODataTableManager.o

.bss.privateSerialTX
                0xa000171c      0x10c
 .bss.privateSerialTX
                0xa000171c      0x10c build/default/production/_ext/990863823/DyIODataTableManager.o

.bss.downstream
                0xa0001828      0x10c
 .bss.downstream
                0xa0001828      0x10c build/default/production/_ext/990863823/CoProcCom.o

.bss.privateRX  0xa0001934      0x10c
 .bss.privateRX
                0xa0001934      0x10c build/default/production/_ext/990863823/CoProcCom.o

.bss.asyncPacket
                0xa0001a40      0x10c
 .bss.asyncPacket
                0xa0001a40      0x10c build/default/production/_ext/990863823/CoProcCom.o

.bss.Packet     0xa0001b4c      0x10c
 .bss.Packet    0xa0001b4c      0x10c build/default/production/_ext/1360937237/DyIOMain.o

.bss.RxTmpBuffer
                0xa0001c58      0x10c
 .bss.RxTmpBuffer
                0xa0001c58      0x10c ../../../../../c-bowler/firmware/library/NR-Clib/development/c-bowler.X/dist/default/production/c-bowler.X.a(usb_fifo.o)

.bss.vel        0xa0001d64       0xc0
 .bss.vel       0xa0001d64       0xc0 build/default/production/_ext/1825615050/PID.o

.bss.down       0xa0001e24       0xa8
 .bss.down      0xa0001e24       0xa8 build/default/production/_ext/1978776677/DownStreamPackets.o

.bss.limits     0xa0001ecc       0xa0
 .bss.limits    0xa0001ecc       0xa0 build/default/production/_ext/1825615050/PID.o

.bss.pidEEPRomVal
                0xa0001f6c       0xa0
 .bss.pidEEPRomVal
                0xa0001f6c       0xa0 build/default/production/_ext/990863823/EEPROMMannager.o

.bss.TxBuffer   0xa0000378       0x44
 .bss.TxBuffer  0xa0000378       0x44 ../../../../../c-bowler/firmware/library/NR-Clib/development/c-bowler.X/dist/default/production/c-bowler.X.a(usb_fifo.o)

.data.configDescriptor1
                0xa00003bc       0x44
 .data.configDescriptor1
                0xa00003bc       0x44 ../../../../../c-bowler/firmware/library/NR-Clib/development/c-bowler.X/dist/default/production/c-bowler.X.a(usb_descriptors.o)
                0xa00003bc                configDescriptor1

.bss.force      0xa000200c       0x40
 .bss.force     0xa000200c       0x40 build/default/production/_ext/1825615050/PID.o

.data.sd001     0xa000204c       0x34
 .data.sd001    0xa000204c       0x34 ../../../../../c-bowler/firmware/library/NR-Clib/development/c-bowler.X/dist/default/production/c-bowler.X.a(usb_descriptors.o)
                0xa000204c                sd001

.data.sd002     0xa0002080       0x34
 .data.sd002    0xa0002080       0x34 ../../../../../c-bowler/firmware/library/NR-Clib/development/c-bowler.X/dist/default/production/c-bowler.X.a(usb_descriptors.o)
                0xa0002080                sd002

.data.sd003     0xa00020b4       0x34
 .data.sd003    0xa00020b4       0x34 ../../../../../c-bowler/firmware/library/NR-Clib/development/c-bowler.X/dist/default/production/c-bowler.X.a(usb_descriptors.o)
                0xa00020b4                sd003

.bss.dyPid      0xa00020e8       0x28
 .bss.dyPid     0xa00020e8       0x28 build/default/production/_ext/1825615050/PID.o

.data.bcsIo_gchm_g
                0xa0002110       0x1c
 .data.bcsIo_gchm_g
                0xa0002110       0x1c build/default/production/_ext/805493626/Namespace_bcs_io.o

.data.bcsIo_gacm_g
                0xa000212c       0x1c
 .data.bcsIo_gacm_g
                0xa000212c       0x1c build/default/production/_ext/805493626/Namespace_bcs_io.o

.data.bcsIo_gchv_g
                0xa0002148       0x1c
 .data.bcsIo_gchv_g
                0xa0002148       0x1c build/default/production/_ext/805493626/Namespace_bcs_io.o

.data.bcsIo_gacv_g
                0xa0002164       0x1c
 .data.bcsIo_gacv_g
                0xa0002164       0x1c build/default/production/_ext/805493626/Namespace_bcs_io.o

.data.bcsIo_asyn_g
                0xa0002180       0x1c
 .data.bcsIo_asyn_g
                0xa0002180       0x1c build/default/production/_ext/805493626/Namespace_bcs_io.o

.data.bcsIo_gchc_g
                0xa000219c       0x1c
 .data.bcsIo_gchc_g
                0xa000219c       0x1c build/default/production/_ext/805493626/Namespace_bcs_io.o

.data.bcsIo_gcml_g
                0xa00021b8       0x1c
 .data.bcsIo_gcml_g
                0xa00021b8       0x1c build/default/production/_ext/805493626/Namespace_bcs_io.o

.data.bcsIo_schv_p
                0xa00021d4       0x1c
 .data.bcsIo_schv_p
                0xa00021d4       0x1c build/default/production/_ext/805493626/Namespace_bcs_io.o

.data.bcsIo_sacv_p
                0xa00021f0       0x1c
 .data.bcsIo_sacv_p
                0xa00021f0       0x1c build/default/production/_ext/805493626/Namespace_bcs_io.o

.data.bcsIo_asyn_p
                0xa000220c       0x1c
 .data.bcsIo_asyn_p
                0xa000220c       0x1c build/default/production/_ext/805493626/Namespace_bcs_io.o

.data.bcsIo_cchn_c
                0xa0002228       0x1c
 .data.bcsIo_cchn_c
                0xa0002228       0x1c build/default/production/_ext/805493626/Namespace_bcs_io.o

.data.bcsIo_schv_c
                0xa0002244       0x1c
 .data.bcsIo_schv_c
                0xa0002244       0x1c build/default/production/_ext/805493626/Namespace_bcs_io.o

.data.bcsIo_asyn_c
                0xa0002260       0x1c
 .data.bcsIo_asyn_c
                0xa0002260       0x1c build/default/production/_ext/805493626/Namespace_bcs_io.o

.data.bcsIoSetmode_schm_p
                0xa000227c       0x1c
 .data.bcsIoSetmode_schm_p
                0xa000227c       0x1c build/default/production/_ext/1051272628/Namespace_bcs_io_setmode.o

.data.bcsIoSetmode_sacm_p
                0xa0002298       0x1c
 .data.bcsIoSetmode_sacm_p
                0xa0002298       0x1c build/default/production/_ext/1051272628/Namespace_bcs_io_setmode.o

.data.bcsSafe_safe_g
                0xa00022b4       0x1c
 .data.bcsSafe_safe_g
                0xa00022b4       0x1c build/default/production/_ext/1281821416/Namespace_bcs_safe.o

.data.bcsSafe_safe_p
                0xa00022d0       0x1c
 .data.bcsSafe_safe_p
                0xa00022d0       0x1c build/default/production/_ext/1281821416/Namespace_bcs_safe.o

.data.dyioNSName
                0xa00022ec       0x1c
 .data.dyioNSName
                0xa00022ec       0x1c build/default/production/_ext/321196743/Namespace_neuronrobotics_dyio.o
                0xa00022ec                dyioNSName

.data.neuronRoboticsDyIO__rev_g
                0xa0002308       0x1c
 .data.neuronRoboticsDyIO__rev_g
                0xa0002308       0x1c build/default/production/_ext/321196743/Namespace_neuronrobotics_dyio.o

.data.neuronRoboticsDyIO__pwr_g
                0xa0002324       0x1c
 .data.neuronRoboticsDyIO__pwr_g
                0xa0002324       0x1c build/default/production/_ext/321196743/Namespace_neuronrobotics_dyio.o

.data.neuronRoboticsDyIO_info_g
                0xa0002340       0x1c
 .data.neuronRoboticsDyIO_info_g
                0xa0002340       0x1c build/default/production/_ext/321196743/Namespace_neuronrobotics_dyio.o

.data.neuronRoboticsDyIO__mac_c
                0xa000235c       0x1c
 .data.neuronRoboticsDyIO__mac_c
                0xa000235c       0x1c build/default/production/_ext/321196743/Namespace_neuronrobotics_dyio.o

.data.neuronRoboticsDyIO__pwr_c
                0xa0002378       0x1c
 .data.neuronRoboticsDyIO__pwr_c
                0xa0002378       0x1c build/default/production/_ext/321196743/Namespace_neuronrobotics_dyio.o

.data.neuronRoboticsDyIO_info_c
                0xa0002394       0x1c
 .data.neuronRoboticsDyIO_info_c
                0xa0002394       0x1c build/default/production/_ext/321196743/Namespace_neuronrobotics_dyio.o

.data.bcsPidDypid_dpid_g
                0xa00023b0       0x1c
 .data.bcsPidDypid_dpid_g
                0xa00023b0       0x1c build/default/production/_ext/321196743/Namespace_bcs_pid_dypid.o

.data.bcsPidDypid_dpid_c
                0xa00023cc       0x1c
 .data.bcsPidDypid_dpid_c
                0xa00023cc       0x1c build/default/production/_ext/321196743/Namespace_bcs_pid_dypid.o

.data.bcsCore_png
                0xa00023e8       0x1c
 .data.bcsCore_png
                0xa00023e8       0x1c ../../../../../c-bowler/firmware/library/NR-Clib/development/c-bowler.X/dist/default/production/c-bowler.X.a(Namespace_bcs_core.o)

.data.bcsCore_nms
                0xa0002404       0x1c
 .data.bcsCore_nms
                0xa0002404       0x1c ../../../../../c-bowler/firmware/library/NR-Clib/development/c-bowler.X/dist/default/production/c-bowler.X.a(Namespace_bcs_core.o)

.data.bcsPid_APID
                0xa0002420       0x1c
 .data.bcsPid_APID
                0xa0002420       0x1c ../../../../../c-bowler/firmware/library/NR-Clib/development/c-bowler.X/dist/default/production/c-bowler.X.a(Namespace_bcs_pid.o)

.data.bcsPid__PID
                0xa000243c       0x1c
 .data.bcsPid__PID
                0xa000243c       0x1c ../../../../../c-bowler/firmware/library/NR-Clib/development/c-bowler.X/dist/default/production/c-bowler.X.a(Namespace_bcs_pid.o)

.data.bcsPid_CPID
                0xa0002458       0x1c
 .data.bcsPid_CPID
                0xa0002458       0x1c ../../../../../c-bowler/firmware/library/NR-Clib/development/c-bowler.X/dist/default/production/c-bowler.X.a(Namespace_bcs_pid.o)

.data.bcsPid_CPDV
                0xa0002474       0x1c
 .data.bcsPid_CPDV
                0xa0002474       0x1c ../../../../../c-bowler/firmware/library/NR-Clib/development/c-bowler.X/dist/default/production/c-bowler.X.a(Namespace_bcs_pid.o)

.data.bcsPid_GPDC
                0xa0002490       0x1c
 .data.bcsPid_GPDC
                0xa0002490       0x1c ../../../../../c-bowler/firmware/library/NR-Clib/development/c-bowler.X/dist/default/production/c-bowler.X.a(Namespace_bcs_pid.o)

.data.bcsPid_APID_p
                0xa00024ac       0x1c
 .data.bcsPid_APID_p
                0xa00024ac       0x1c ../../../../../c-bowler/firmware/library/NR-Clib/development/c-bowler.X/dist/default/production/c-bowler.X.a(Namespace_bcs_pid.o)

.data.bcsPid__PID_p
                0xa00024c8       0x1c
 .data.bcsPid__PID_p
                0xa00024c8       0x1c ../../../../../c-bowler/firmware/library/NR-Clib/development/c-bowler.X/dist/default/production/c-bowler.X.a(Namespace_bcs_pid.o)

.data.bcsPid__VPD
                0xa00024e4       0x1c
 .data.bcsPid__VPD
                0xa00024e4       0x1c ../../../../../c-bowler/firmware/library/NR-Clib/development/c-bowler.X/dist/default/production/c-bowler.X.a(Namespace_bcs_pid.o)

.data.bcsPid_RPID
                0xa0002500       0x1c
 .data.bcsPid_RPID
                0xa0002500       0x1c ../../../../../c-bowler/firmware/library/NR-Clib/development/c-bowler.X/dist/default/production/c-bowler.X.a(Namespace_bcs_pid.o)

.data.bcsPid_KPID
                0xa000251c       0x1c
 .data.bcsPid_KPID
                0xa000251c       0x1c ../../../../../c-bowler/firmware/library/NR-Clib/development/c-bowler.X/dist/default/production/c-bowler.X.a(Namespace_bcs_pid.o)

.data.bcsPid_CPID_c
                0xa0002538       0x1c
 .data.bcsPid_CPID_c
                0xa0002538       0x1c ../../../../../c-bowler/firmware/library/NR-Clib/development/c-bowler.X/dist/default/production/c-bowler.X.a(Namespace_bcs_pid.o)

.data.bcsPid_CPDV_c
                0xa0002554       0x1c
 .data.bcsPid_CPDV_c
                0xa0002554       0x1c ../../../../../c-bowler/firmware/library/NR-Clib/development/c-bowler.X/dist/default/production/c-bowler.X.a(Namespace_bcs_pid.o)

.data.bcsPid_ACAL
                0xa0002570       0x1c
 .data.bcsPid_ACAL
                0xa0002570       0x1c ../../../../../c-bowler/firmware/library/NR-Clib/development/c-bowler.X/dist/default/production/c-bowler.X.a(Namespace_bcs_pid.o)

.data.bcsRpc__RPC
                0xa000258c       0x1c
 .data.bcsRpc__RPC
                0xa000258c       0x1c ../../../../../c-bowler/firmware/library/NR-Clib/development/c-bowler.X/dist/default/production/c-bowler.X.a(Namespace_bcs_rpc.o)

.data.bcsRpc_ARGS
                0xa00025a8       0x1c
 .data.bcsRpc_ARGS
                0xa00025a8       0x1c ../../../../../c-bowler/firmware/library/NR-Clib/development/c-bowler.X/dist/default/production/c-bowler.X.a(Namespace_bcs_rpc.o)

.data.setModeNSName
                0xa00025c4       0x18
 .data.setModeNSName
                0xa00025c4       0x18 build/default/production/_ext/1051272628/Namespace_bcs_io_setmode.o
                0xa00025c4                setModeNSName

.bss.storeRx    0xa00025dc       0x18
 .bss.storeRx   0xa00025dc       0x18 build/default/production/_ext/990863823/DyIODataTableManager.o

.bss.storeTx    0xa00025f4       0x18
 .bss.storeTx   0xa00025f4       0x18 build/default/production/_ext/990863823/DyIODataTableManager.o

.bss.store      0xa000260c       0x18
 .bss.store     0xa000260c       0x18 build/default/production/_ext/990863823/CoProcCom.o

.bss.ppmStart   0xa0002624       0x18
 .bss.ppmStart  0xa0002624       0x18 build/default/production/_ext/990863823/PPMReader.o

.data.ppmDataTmp
                0xa000263c       0x18
 .data.ppmDataTmp
                0xa000263c       0x18 build/default/production/_ext/990863823/PPMReader.o

.data.dypidNSName
                0xa0002654       0x18
 .data.dypidNSName
                0xa0002654       0x18 build/default/production/_ext/321196743/Namespace_bcs_pid_dypid.o
                0xa0002654                dypidNSName

.bss.storeUSB   0xa000266c       0x18
 .bss.storeUSB  0xa000266c       0x18 ../../../../../c-bowler/firmware/library/NR-Clib/development/c-bowler.X/dist/default/production/c-bowler.X.a(HAL_P32.o)

.bss.storeUART  0xa0002684       0x18
 .bss.storeUART
                0xa0002684       0x18 ../../../../../c-bowler/firmware/library/NR-Clib/development/c-bowler.X/dist/default/production/c-bowler.X.a(HAL_P32.o)

.data.safeNSName
                0xa000269c       0x14
 .data.safeNSName
                0xa000269c       0x14 build/default/production/_ext/1281821416/Namespace_bcs_safe.o
                0xa000269c                safeNSName

.data.device_dsc
                0xa00026b0       0x14
 .data.device_dsc
                0xa00026b0       0x14 ../../../../../c-bowler/firmware/library/NR-Clib/development/c-bowler.X/dist/default/production/c-bowler.X.a(usb_descriptors.o)
                0xa00026b0                device_dsc

.data.ioNSName  0xa00026c4       0x10
 .data.ioNSName
                0xa00026c4       0x10 build/default/production/_ext/805493626/Namespace_bcs_io.o
                0xa00026c4                ioNSName

.data.bcsIo     0xa00026d4       0x10
 .data.bcsIo    0xa00026d4       0x10 build/default/production/_ext/805493626/Namespace_bcs_io.o

.data.bcsIoSetmode
                0xa00026e4       0x10
 .data.bcsIoSetmode
                0xa00026e4       0x10 build/default/production/_ext/1051272628/Namespace_bcs_io_setmode.o

.data.bcsSafe   0xa00026f4       0x10
 .data.bcsSafe  0xa00026f4       0x10 build/default/production/_ext/1281821416/Namespace_bcs_safe.o

.data.neuronRoboticsDyIO
                0xa0002704       0x10
 .data.neuronRoboticsDyIO
                0xa0002704       0x10 build/default/production/_ext/321196743/Namespace_neuronrobotics_dyio.o

.data.bcsPidDypid
                0xa0002714       0x10
 .data.bcsPidDypid
                0xa0002714       0x10 build/default/production/_ext/321196743/Namespace_bcs_pid_dypid.o

.data.bcsCore   0xa0002724       0x10
 .data.bcsCore  0xa0002724       0x10 ../../../../../c-bowler/firmware/library/NR-Clib/development/c-bowler.X/dist/default/production/c-bowler.X.a(Namespace_bcs_core.o)

.data.bcsPid    0xa0002734       0x10
 .data.bcsPid   0xa0002734       0x10 ../../../../../c-bowler/firmware/library/NR-Clib/development/c-bowler.X/dist/default/production/c-bowler.X.a(Namespace_bcs_pid.o)

.data.__compound_literal.4
                0xa0002744       0x10
 .data.__compound_literal.4
                0xa0002744       0x10 ../../../../../c-bowler/firmware/library/NR-Clib/development/c-bowler.X/dist/default/production/c-bowler.X.a(Namespace_bcs_pid.o)

.data.__compound_literal.19
                0xa0002754       0x10
 .data.__compound_literal.19
                0xa0002754       0x10 ../../../../../c-bowler/firmware/library/NR-Clib/development/c-bowler.X/dist/default/production/c-bowler.X.a(Namespace_bcs_pid.o)

.data.bcsRpc    0xa0002764       0x10
 .data.bcsRpc   0xa0002764       0x10 ../../../../../c-bowler/firmware/library/NR-Clib/development/c-bowler.X/dist/default/production/c-bowler.X.a(Namespace_bcs_rpc.o)

.data.USB_SD_Ptr
                0xa0002774       0x10
 .data.USB_SD_Ptr
                0xa0002774       0x10 ../../../../../c-bowler/firmware/library/NR-Clib/development/c-bowler.X/dist/default/production/c-bowler.X.a(usb_descriptors.o)
                0xa0002774                USB_SD_Ptr

.data.pinmap    0xa0002784        0xc
 .data.pinmap   0xa0002784        0xc build/default/production/_ext/990863823/Counter.o
                0xa0002784                pinmap

.mdebug.abi32%z1
                0x00000000        0x0
 .mdebug.abi32  0x00000000        0x0 /home/opt/microchip/xc32/v1.00/bin/../lib/gcc/pic32mx/4.5.1/../../../../pic32mx/lib/libmchp_peripheral_32MX440F128H.a(int_restore_interrupts_lib.o)

.bss%z2         0x00000000        0x0
 .bss           0x00000000        0x0 /home/opt/microchip/xc32/v1.00/bin/../lib/gcc/pic32mx/4.5.1/../../../../pic32mx/lib/libmchp_peripheral_32MX440F128H.a(int_restore_interrupts_lib.o)

.data%z3        0x00000000        0x0
 .data          0x00000000        0x0 /home/opt/microchip/xc32/v1.00/bin/../lib/gcc/pic32mx/4.5.1/../../../../pic32mx/lib/libmchp_peripheral_32MX440F128H.a(int_restore_interrupts_lib.o)

.mdebug.abi32%z4
                0x00000000        0x0
 .mdebug.abi32  0x00000000        0x0 /home/opt/microchip/xc32/v1.00/bin/../lib/gcc/pic32mx/4.5.1/../../../../pic32mx/lib/libmchp_peripheral_32MX440F128H.a(uart_lib.o)

.bss%z5         0x00000000        0x0
 .bss           0x00000000        0x0 /home/opt/microchip/xc32/v1.00/bin/../lib/gcc/pic32mx/4.5.1/../../../../pic32mx/lib/libmchp_peripheral_32MX440F128H.a(uart_lib.o)

.data%z6        0x00000000        0x0
 .data          0x00000000        0x0 /home/opt/microchip/xc32/v1.00/bin/../lib/gcc/pic32mx/4.5.1/../../../../pic32mx/lib/libmchp_peripheral_32MX440F128H.a(uart_lib.o)

.mdebug.abi32%z7
                0x00000000        0x0
 .mdebug.abi32  0x00000000        0x0 /home/opt/microchip/xc32/v1.00/bin/../lib/gcc/pic32mx/4.5.1/../../../../pic32mx/lib/libmchp_peripheral_32MX440F128H.a(_ports_tbl_libp.o)

.bss%z8         0x00000000        0x0
 .bss           0x00000000        0x0 /home/opt/microchip/xc32/v1.00/bin/../lib/gcc/pic32mx/4.5.1/../../../../pic32mx/lib/libmchp_peripheral_32MX440F128H.a(_ports_tbl_libp.o)

.data%z9        0x00000000        0x0
 .data          0x00000000        0x0 /home/opt/microchip/xc32/v1.00/bin/../lib/gcc/pic32mx/4.5.1/../../../../pic32mx/lib/libmchp_peripheral_32MX440F128H.a(_ports_tbl_libp.o)

.mdebug.abi32%z10
                0x00000000        0x0
 .mdebug.abi32  0x00000000        0x0 /home/opt/microchip/xc32/v1.00/bin/../lib/gcc/pic32mx/4.5.1/../../../../pic32mx/lib/libmchp_peripheral_32MX440F128H.a(port_set_bits_lib.o)

.bss%z11        0x00000000        0x0
 .bss           0x00000000        0x0 /home/opt/microchip/xc32/v1.00/bin/../lib/gcc/pic32mx/4.5.1/../../../../pic32mx/lib/libmchp_peripheral_32MX440F128H.a(port_set_bits_lib.o)

.data%z12       0x00000000        0x0
 .data          0x00000000        0x0 /home/opt/microchip/xc32/v1.00/bin/../lib/gcc/pic32mx/4.5.1/../../../../pic32mx/lib/libmchp_peripheral_32MX440F128H.a(port_set_bits_lib.o)

.mdebug.abi32%z13
                0x00000000        0x0
 .mdebug.abi32  0x00000000        0x0 /home/opt/microchip/xc32/v1.00/bin/../lib/gcc/pic32mx/4.5.1/../../../../pic32mx/lib/libmchp_peripheral_32MX440F128H.a(port_clear_bits_lib.o)

.bss%z14        0x00000000        0x0
 .bss           0x00000000        0x0 /home/opt/microchip/xc32/v1.00/bin/../lib/gcc/pic32mx/4.5.1/../../../../pic32mx/lib/libmchp_peripheral_32MX440F128H.a(port_clear_bits_lib.o)

.data%z15       0x00000000        0x0
 .data          0x00000000        0x0 /home/opt/microchip/xc32/v1.00/bin/../lib/gcc/pic32mx/4.5.1/../../../../pic32mx/lib/libmchp_peripheral_32MX440F128H.a(port_clear_bits_lib.o)

.mdebug.abi32%z16
                0x00000000        0x0
 .mdebug.abi32  0x00000000        0x0 /home/opt/microchip/xc32/v1.00/bin/../lib/gcc/pic32mx/4.5.1/../../../../pic32mx/lib/libmchp_peripheral_32MX440F128H.a(port_set_pins_digital_out_lib.o)

.bss%z17        0x00000000        0x0
 .bss           0x00000000        0x0 /home/opt/microchip/xc32/v1.00/bin/../lib/gcc/pic32mx/4.5.1/../../../../pic32mx/lib/libmchp_peripheral_32MX440F128H.a(port_set_pins_digital_out_lib.o)

.data%z18       0x00000000        0x0
 .data          0x00000000        0x0 /home/opt/microchip/xc32/v1.00/bin/../lib/gcc/pic32mx/4.5.1/../../../../pic32mx/lib/libmchp_peripheral_32MX440F128H.a(port_set_pins_digital_out_lib.o)

.mdebug.abi32%z19
                0x00000000        0x0
 .mdebug.abi32  0x00000000        0x0 /home/opt/microchip/xc32/v1.00/bin/../lib/gcc/pic32mx/4.5.1/../../../../pic32mx/lib/libmchp_peripheral_32MX440F128H.a(nvm_write_word_lib.o)

.bss%z20        0x00000000        0x0
 .bss           0x00000000        0x0 /home/opt/microchip/xc32/v1.00/bin/../lib/gcc/pic32mx/4.5.1/../../../../pic32mx/lib/libmchp_peripheral_32MX440F128H.a(nvm_write_word_lib.o)

.data%z21       0x00000000        0x0
 .data          0x00000000        0x0 /home/opt/microchip/xc32/v1.00/bin/../lib/gcc/pic32mx/4.5.1/../../../../pic32mx/lib/libmchp_peripheral_32MX440F128H.a(nvm_write_word_lib.o)

.mdebug.abi32%z22
                0x00000000        0x0
 .mdebug.abi32  0x00000000        0x0 /home/opt/microchip/xc32/v1.00/bin/../lib/gcc/pic32mx/4.5.1/../../../../pic32mx/lib/libmchp_peripheral_32MX440F128H.a(nvm_operation_lib.o)

.bss%z23        0x00000000        0x0
 .bss           0x00000000        0x0 /home/opt/microchip/xc32/v1.00/bin/../lib/gcc/pic32mx/4.5.1/../../../../pic32mx/lib/libmchp_peripheral_32MX440F128H.a(nvm_operation_lib.o)

.data%z24       0x00000000        0x0
 .data          0x00000000        0x0 /home/opt/microchip/xc32/v1.00/bin/../lib/gcc/pic32mx/4.5.1/../../../../pic32mx/lib/libmchp_peripheral_32MX440F128H.a(nvm_operation_lib.o)

.mdebug.abi32%z25
                0x00000000        0x0
 .mdebug.abi32  0x00000000        0x0 /home/opt/microchip/xc32/v1.00/bin/../lib/gcc/pic32mx/4.5.1/../../../../pic32mx/lib/libmchp_peripheral_32MX440F128H.a(nvm_erase_page_lib.o)

.bss%z26        0x00000000        0x0
 .bss           0x00000000        0x0 /home/opt/microchip/xc32/v1.00/bin/../lib/gcc/pic32mx/4.5.1/../../../../pic32mx/lib/libmchp_peripheral_32MX440F128H.a(nvm_erase_page_lib.o)

.data%z27       0x00000000        0x0
 .data          0x00000000        0x0 /home/opt/microchip/xc32/v1.00/bin/../lib/gcc/pic32mx/4.5.1/../../../../pic32mx/lib/libmchp_peripheral_32MX440F128H.a(nvm_erase_page_lib.o)

.mdebug.abi32%z28
                0x00000000        0x0
 .mdebug.abi32  0x00000000        0x0 /home/opt/microchip/xc32/v1.00/bin/../lib/gcc/pic32mx/4.5.1/../../../../pic32mx/lib/libmchp_peripheral_32MX440F128H.a(spi_brg_tbl_lib_legacy.o)

.bss%z29        0x00000000        0x0
 .bss           0x00000000        0x0 /home/opt/microchip/xc32/v1.00/bin/../lib/gcc/pic32mx/4.5.1/../../../../pic32mx/lib/libmchp_peripheral_32MX440F128H.a(spi_brg_tbl_lib_legacy.o)

.data%z30       0x00000000        0x0
 .data          0x00000000        0x0 /home/opt/microchip/xc32/v1.00/bin/../lib/gcc/pic32mx/4.5.1/../../../../pic32mx/lib/libmchp_peripheral_32MX440F128H.a(spi_brg_tbl_lib_legacy.o)

.mdebug.abi32%z31
                0x00000000        0x0
 .mdebug.abi32  0x00000000        0x0 /home/opt/microchip/xc32/v1.00/bin/../lib/gcc/pic32mx/4.5.1/../../../../pic32mx/lib/libmchp_peripheral_32MX440F128H.a(spi_open_spi2_lib_legacy.o)

.bss%z32        0x00000000        0x0
 .bss           0x00000000        0x0 /home/opt/microchip/xc32/v1.00/bin/../lib/gcc/pic32mx/4.5.1/../../../../pic32mx/lib/libmchp_peripheral_32MX440F128H.a(spi_open_spi2_lib_legacy.o)

.data%z33       0x00000000        0x0
 .data          0x00000000        0x0 /home/opt/microchip/xc32/v1.00/bin/../lib/gcc/pic32mx/4.5.1/../../../../pic32mx/lib/libmchp_peripheral_32MX440F128H.a(spi_open_spi2_lib_legacy.o)

.mdebug.abi32%z34
                0x00000000        0x0
 .mdebug.abi32  0x00000000        0x0 /home/opt/microchip/xc32/v1.00/bin/../lib/gcc/pic32mx/4.5.1/../../../../pic32mx/lib/libmchp_peripheral_32MX440F128H.a(spi_getc_spi2_lib_legacy.o)

.bss%z35        0x00000000        0x0
 .bss           0x00000000        0x0 /home/opt/microchip/xc32/v1.00/bin/../lib/gcc/pic32mx/4.5.1/../../../../pic32mx/lib/libmchp_peripheral_32MX440F128H.a(spi_getc_spi2_lib_legacy.o)

.data%z36       0x00000000        0x0
 .data          0x00000000        0x0 /home/opt/microchip/xc32/v1.00/bin/../lib/gcc/pic32mx/4.5.1/../../../../pic32mx/lib/libmchp_peripheral_32MX440F128H.a(spi_getc_spi2_lib_legacy.o)

.mdebug.abi32%z37
                0x00000000        0x0
 .mdebug.abi32  0x00000000        0x0 /home/opt/microchip/xc32/v1.00/bin/../lib/gcc/pic32mx/4.5.1/../../../../pic32mx/lib/libmchp_peripheral_32MX440F128H.a(int_tbl_lib.o)

.bss%z38        0x00000000        0x0
 .bss           0x00000000        0x0 /home/opt/microchip/xc32/v1.00/bin/../lib/gcc/pic32mx/4.5.1/../../../../pic32mx/lib/libmchp_peripheral_32MX440F128H.a(int_tbl_lib.o)

.data%z39       0x00000000        0x0
 .data          0x00000000        0x0 /home/opt/microchip/xc32/v1.00/bin/../lib/gcc/pic32mx/4.5.1/../../../../pic32mx/lib/libmchp_peripheral_32MX440F128H.a(int_tbl_lib.o)

.mdebug.abi32%z40
                0x00000000        0x0
 .mdebug.abi32  0x00000000        0x0 /home/opt/microchip/xc32/v1.00/bin/../lib/gcc/pic32mx/4.5.1/../../../../pic32mx/lib/libmchp_peripheral_32MX440F128H.a(int_enable_mv_int_lib.o)

.bss%z41        0x00000000        0x0
 .bss           0x00000000        0x0 /home/opt/microchip/xc32/v1.00/bin/../lib/gcc/pic32mx/4.5.1/../../../../pic32mx/lib/libmchp_peripheral_32MX440F128H.a(int_enable_mv_int_lib.o)

.data%z42       0x00000000        0x0
 .data          0x00000000        0x0 /home/opt/microchip/xc32/v1.00/bin/../lib/gcc/pic32mx/4.5.1/../../../../pic32mx/lib/libmchp_peripheral_32MX440F128H.a(int_enable_mv_int_lib.o)

.mdebug.abi32%z43
                0x00000000        0x0
 .mdebug.abi32  0x00000000        0x0 /home/opt/microchip/xc32/v1.00/bin/../lib/gcc/pic32mx/4.5.1/../../../../pic32mx/lib/libmchp_peripheral_32MX440F128H.a(int_disable_interrupts_lib.o)

.bss%z44        0x00000000        0x0
 .bss           0x00000000        0x0 /home/opt/microchip/xc32/v1.00/bin/../lib/gcc/pic32mx/4.5.1/../../../../pic32mx/lib/libmchp_peripheral_32MX440F128H.a(int_disable_interrupts_lib.o)

.data%z45       0x00000000        0x0
 .data          0x00000000        0x0 /home/opt/microchip/xc32/v1.00/bin/../lib/gcc/pic32mx/4.5.1/../../../../pic32mx/lib/libmchp_peripheral_32MX440F128H.a(int_disable_interrupts_lib.o)

.mdebug.abi32%z46
                0x00000000        0x0
 .mdebug.abi32  0x00000000        0x0 /home/opt/microchip/xc32/v1.00/bin/../lib/gcc/pic32mx/4.5.1/../../../../pic32mx/lib/libmchp_peripheral_32MX440F128H.a(int_enable_interrupts_lib.o)

.bss%z47        0x00000000        0x0
 .bss           0x00000000        0x0 /home/opt/microchip/xc32/v1.00/bin/../lib/gcc/pic32mx/4.5.1/../../../../pic32mx/lib/libmchp_peripheral_32MX440F128H.a(int_enable_interrupts_lib.o)

.data%z48       0x00000000        0x0
 .data          0x00000000        0x0 /home/opt/microchip/xc32/v1.00/bin/../lib/gcc/pic32mx/4.5.1/../../../../pic32mx/lib/libmchp_peripheral_32MX440F128H.a(int_enable_interrupts_lib.o)

.mdebug.abi32%z49
                0x00000000        0x0
 .mdebug.abi32  0x00000000        0x0 /home/opt/microchip/xc32/v1.00/bin/../lib/gcc/pic32mx/4.5.1/../../../../pic32mx/lib/libmchp_peripheral_32MX440F128H.a(soft_reset_lib.o)

.bss%z50        0x00000000        0x0
 .bss           0x00000000        0x0 /home/opt/microchip/xc32/v1.00/bin/../lib/gcc/pic32mx/4.5.1/../../../../pic32mx/lib/libmchp_peripheral_32MX440F128H.a(soft_reset_lib.o)

.data%z51       0x00000000        0x0
 .data          0x00000000        0x0 /home/opt/microchip/xc32/v1.00/bin/../lib/gcc/pic32mx/4.5.1/../../../../pic32mx/lib/libmchp_peripheral_32MX440F128H.a(soft_reset_lib.o)

.bss%z52        0x00000000        0x0
 .bss           0x00000000        0x0 /home/opt/microchip/xc32/v1.00/bin/../lib/gcc/pic32mx/4.5.1/../../../../pic32mx/lib/./proc/32MX440F128H/processor.o

.data%z53       0x00000000        0x0
 .data          0x00000000        0x0 /home/opt/microchip/xc32/v1.00/bin/../lib/gcc/pic32mx/4.5.1/../../../../pic32mx/lib/./proc/32MX440F128H/processor.o

.bss%z54        0x00000000        0x0
 .bss           0x00000000        0x0 /home/opt/microchip/xc32/v1.00/bin/../lib/gcc/pic32mx/4.5.1/../../../../pic32mx/lib/libm.a(fp32.o)

.data%z55       0x00000000        0x0
 .data          0x00000000        0x0 /home/opt/microchip/xc32/v1.00/bin/../lib/gcc/pic32mx/4.5.1/../../../../pic32mx/lib/libm.a(fp32.o)

.bss%z56        0x00000000        0x0
 .bss           0x00000000        0x0 /home/opt/microchip/xc32/v1.00/bin/../lib/gcc/pic32mx/4.5.1/../../../../pic32mx/lib/libc.a(default-nmi-handler.o)

.data%z57       0x00000000        0x0
 .data          0x00000000        0x0 /home/opt/microchip/xc32/v1.00/bin/../lib/gcc/pic32mx/4.5.1/../../../../pic32mx/lib/libc.a(default-nmi-handler.o)

.mdebug.abi32%z58
                0x00000000        0x0
 .mdebug.abi32  0x00000000        0x0 /home/opt/microchip/xc32/v1.00/bin/../lib/gcc/pic32mx/4.5.1/../../../../pic32mx/lib/libc.a(default-on-bootstrap.o)

.bss%z59        0x00000000        0x0
 .bss           0x00000000        0x0 /home/opt/microchip/xc32/v1.00/bin/../lib/gcc/pic32mx/4.5.1/../../../../pic32mx/lib/libc.a(default-on-bootstrap.o)

.data%z60       0x00000000        0x0
 .data          0x00000000        0x0 /home/opt/microchip/xc32/v1.00/bin/../lib/gcc/pic32mx/4.5.1/../../../../pic32mx/lib/libc.a(default-on-bootstrap.o)

.mdebug.abi32%z61
                0x00000000        0x0
 .mdebug.abi32  0x00000000        0x0 /home/opt/microchip/xc32/v1.00/bin/../lib/gcc/pic32mx/4.5.1/../../../../pic32mx/lib/libc.a(default-on-reset.o)

.bss%z62        0x00000000        0x0
 .bss           0x00000000        0x0 /home/opt/microchip/xc32/v1.00/bin/../lib/gcc/pic32mx/4.5.1/../../../../pic32mx/lib/libc.a(default-on-reset.o)

.data%z63       0x00000000        0x0
 .data          0x00000000        0x0 /home/opt/microchip/xc32/v1.00/bin/../lib/gcc/pic32mx/4.5.1/../../../../pic32mx/lib/libc.a(default-on-reset.o)

.mdebug.abi32%z64
                0x00000000        0x0
 .mdebug.abi32  0x00000000        0x0 /home/opt/microchip/xc32/v1.00/bin/../lib/gcc/pic32mx/4.5.1/../../../../pic32mx/lib/libc.a(default-bootstrap-exception-handler.o)

.bss%z65        0x00000000        0x0
 .bss           0x00000000        0x0 /home/opt/microchip/xc32/v1.00/bin/../lib/gcc/pic32mx/4.5.1/../../../../pic32mx/lib/libc.a(default-bootstrap-exception-handler.o)

.data%z66       0x00000000        0x0
 .data          0x00000000        0x0 /home/opt/microchip/xc32/v1.00/bin/../lib/gcc/pic32mx/4.5.1/../../../../pic32mx/lib/libc.a(default-bootstrap-exception-handler.o)

.bss%z67        0x00000000        0x0
 .bss           0x00000000        0x0 /home/opt/microchip/xc32/v1.00/bin/../lib/gcc/pic32mx/4.5.1/../../../../pic32mx/lib/libc.a(general-exception.o)

.data%z68       0x00000000        0x0
 .data          0x00000000        0x0 /home/opt/microchip/xc32/v1.00/bin/../lib/gcc/pic32mx/4.5.1/../../../../pic32mx/lib/libc.a(general-exception.o)

.bss%z69        0x00000000        0x0
 .bss           0x00000000        0x0 /home/opt/microchip/xc32/v1.00/bin/../lib/gcc/pic32mx/4.5.1/../../../../pic32mx/lib/libc.a(memcpy.o)

.data%z70       0x00000000        0x0
 .data          0x00000000        0x0 /home/opt/microchip/xc32/v1.00/bin/../lib/gcc/pic32mx/4.5.1/../../../../pic32mx/lib/libc.a(memcpy.o)

.mdebug.abi32%z71
                0x00000000        0x0
 .mdebug.abi32  0x00000000        0x0 /home/opt/microchip/xc32/v1.00/bin/../lib/gcc/pic32mx/4.5.1/libgcc.a(floatunsisf.o)

.bss%z72        0x00000000        0x0
 .bss           0x00000000        0x0 /home/opt/microchip/xc32/v1.00/bin/../lib/gcc/pic32mx/4.5.1/libgcc.a(floatunsisf.o)

.data%z73       0x00000000        0x0
 .data          0x00000000        0x0 /home/opt/microchip/xc32/v1.00/bin/../lib/gcc/pic32mx/4.5.1/libgcc.a(floatunsisf.o)

.mdebug.abi32%z74
                0x00000000        0x0
 .mdebug.abi32  0x00000000        0x0 ../../../../../c-bowler/firmware/library/NR-Clib/development/c-bowler.X/dist/default/production/c-bowler.X.a(PidVelocity.o)

.bss%z75        0x00000000        0x0
 .bss           0x00000000        0x0 ../../../../../c-bowler/firmware/library/NR-Clib/development/c-bowler.X/dist/default/production/c-bowler.X.a(PidVelocity.o)

.data%z76       0x00000000        0x0
 .data          0x00000000        0x0 ../../../../../c-bowler/firmware/library/NR-Clib/development/c-bowler.X/dist/default/production/c-bowler.X.a(PidVelocity.o)

.mdebug.abi32%z77
                0x00000000        0x0
 .mdebug.abi32  0x00000000        0x0 ../../../../../c-bowler/firmware/library/NR-Clib/development/c-bowler.X/dist/default/production/c-bowler.X.a(usb_descriptors.o)

.bss%z78        0x00000000        0x0
 .bss           0x00000000        0x0 ../../../../../c-bowler/firmware/library/NR-Clib/development/c-bowler.X/dist/default/production/c-bowler.X.a(usb_descriptors.o)

.data%z79       0x00000000        0x0
 .data          0x00000000        0x0 ../../../../../c-bowler/firmware/library/NR-Clib/development/c-bowler.X/dist/default/production/c-bowler.X.a(usb_descriptors.o)

.mdebug.abi32%z80
                0x00000000        0x0
 .mdebug.abi32  0x00000000        0x0 ../../../../../c-bowler/firmware/library/NR-Clib/development/c-bowler.X/dist/default/production/c-bowler.X.a(usb_function_cdc.o)

.bss%z81        0x00000000        0x0
 .bss           0x00000000        0x0 ../../../../../c-bowler/firmware/library/NR-Clib/development/c-bowler.X/dist/default/production/c-bowler.X.a(usb_function_cdc.o)

.data%z82       0x00000000        0x0
 .data          0x00000000        0x0 ../../../../../c-bowler/firmware/library/NR-Clib/development/c-bowler.X/dist/default/production/c-bowler.X.a(usb_function_cdc.o)

.mdebug.abi32%z83
                0x00000000        0x0
 .mdebug.abi32  0x00000000        0x0 ../../../../../c-bowler/firmware/library/NR-Clib/development/c-bowler.X/dist/default/production/c-bowler.X.a(usb_callback.o)

.bss%z84        0x00000000        0x0
 .bss           0x00000000        0x0 ../../../../../c-bowler/firmware/library/NR-Clib/development/c-bowler.X/dist/default/production/c-bowler.X.a(usb_callback.o)

.data%z85       0x00000000        0x0
 .data          0x00000000        0x0 ../../../../../c-bowler/firmware/library/NR-Clib/development/c-bowler.X/dist/default/production/c-bowler.X.a(usb_callback.o)

.mdebug.abi32%z86
                0x00000000        0x0
 .mdebug.abi32  0x00000000        0x0 ../../../../../c-bowler/firmware/library/NR-Clib/development/c-bowler.X/dist/default/production/c-bowler.X.a(PidAsync.o)

.bss%z87        0x00000000        0x0
 .bss           0x00000000        0x0 ../../../../../c-bowler/firmware/library/NR-Clib/development/c-bowler.X/dist/default/production/c-bowler.X.a(PidAsync.o)

.data%z88       0x00000000        0x0
 .data          0x00000000        0x0 ../../../../../c-bowler/firmware/library/NR-Clib/development/c-bowler.X/dist/default/production/c-bowler.X.a(PidAsync.o)

.mdebug.abi32%z89
                0x00000000        0x0
 .mdebug.abi32  0x00000000        0x0 ../../../../../c-bowler/firmware/library/NR-Clib/development/c-bowler.X/dist/default/production/c-bowler.X.a(PidHysteresis.o)

.bss%z90        0x00000000        0x0
 .bss           0x00000000        0x0 ../../../../../c-bowler/firmware/library/NR-Clib/development/c-bowler.X/dist/default/production/c-bowler.X.a(PidHysteresis.o)

.data%z91       0x00000000        0x0
 .data          0x00000000        0x0 ../../../../../c-bowler/firmware/library/NR-Clib/development/c-bowler.X/dist/default/production/c-bowler.X.a(PidHysteresis.o)

.mdebug.abi32%z92
                0x00000000        0x0
 .mdebug.abi32  0x00000000        0x0 ../../../../../c-bowler/firmware/library/NR-Clib/development/c-bowler.X/dist/default/production/c-bowler.X.a(PidRpc.o)

.bss%z93        0x00000000        0x0
 .bss           0x00000000        0x0 ../../../../../c-bowler/firmware/library/NR-Clib/development/c-bowler.X/dist/default/production/c-bowler.X.a(PidRpc.o)

.data%z94       0x00000000        0x0
 .data          0x00000000        0x0 ../../../../../c-bowler/firmware/library/NR-Clib/development/c-bowler.X/dist/default/production/c-bowler.X.a(PidRpc.o)

.mdebug.abi32%z95
                0x00000000        0x0
 .mdebug.abi32  0x00000000        0x0 ../../../../../c-bowler/firmware/library/NR-Clib/development/c-bowler.X/dist/default/production/c-bowler.X.a(Namespace_bcs_rpc.o)

.bss%z96        0x00000000        0x0
 .bss           0x00000000        0x0 ../../../../../c-bowler/firmware/library/NR-Clib/development/c-bowler.X/dist/default/production/c-bowler.X.a(Namespace_bcs_rpc.o)

.data%z97       0x00000000        0x0
 .data          0x00000000        0x0 ../../../../../c-bowler/firmware/library/NR-Clib/development/c-bowler.X/dist/default/production/c-bowler.X.a(Namespace_bcs_rpc.o)

.mdebug.abi32%z98
                0x00000000        0x0
 .mdebug.abi32  0x00000000        0x0 ../../../../../c-bowler/firmware/library/NR-Clib/development/c-bowler.X/dist/default/production/c-bowler.X.a(UART.o)

.bss%z99        0x00000000        0x0
 .bss           0x00000000        0x0 ../../../../../c-bowler/firmware/library/NR-Clib/development/c-bowler.X/dist/default/production/c-bowler.X.a(UART.o)

.data%z100      0x00000000        0x0
 .data          0x00000000        0x0 ../../../../../c-bowler/firmware/library/NR-Clib/development/c-bowler.X/dist/default/production/c-bowler.X.a(UART.o)

.mdebug.abi32%z101
                0x00000000        0x0
 .mdebug.abi32  0x00000000        0x0 ../../../../../c-bowler/firmware/library/NR-Clib/development/c-bowler.X/dist/default/production/c-bowler.X.a(Tick.o)

.bss%z102       0x00000000        0x0
 .bss           0x00000000        0x0 ../../../../../c-bowler/firmware/library/NR-Clib/development/c-bowler.X/dist/default/production/c-bowler.X.a(Tick.o)

.data%z103      0x00000000        0x0
 .data          0x00000000        0x0 ../../../../../c-bowler/firmware/library/NR-Clib/development/c-bowler.X/dist/default/production/c-bowler.X.a(Tick.o)

.mdebug.abi32%z104
                0x00000000        0x0
 .mdebug.abi32  0x00000000        0x0 ../../../../../c-bowler/firmware/library/NR-Clib/development/c-bowler.X/dist/default/production/c-bowler.X.a(Bowler_UART_HAL.o)

.bss%z105       0x00000000        0x0
 .bss           0x00000000        0x0 ../../../../../c-bowler/firmware/library/NR-Clib/development/c-bowler.X/dist/default/production/c-bowler.X.a(Bowler_UART_HAL.o)

.data%z106      0x00000000        0x0
 .data          0x00000000        0x0 ../../../../../c-bowler/firmware/library/NR-Clib/development/c-bowler.X/dist/default/production/c-bowler.X.a(Bowler_UART_HAL.o)

.mdebug.abi32%z107
                0x00000000        0x0
 .mdebug.abi32  0x00000000        0x0 ../../../../../c-bowler/firmware/library/NR-Clib/development/c-bowler.X/dist/default/production/c-bowler.X.a(FlashStorage.o)

.bss%z108       0x00000000        0x0
 .bss           0x00000000        0x0 ../../../../../c-bowler/firmware/library/NR-Clib/development/c-bowler.X/dist/default/production/c-bowler.X.a(FlashStorage.o)

.data%z109      0x00000000        0x0
 .data          0x00000000        0x0 ../../../../../c-bowler/firmware/library/NR-Clib/development/c-bowler.X/dist/default/production/c-bowler.X.a(FlashStorage.o)

.mdebug.abi32%z110
                0x00000000        0x0
 .mdebug.abi32  0x00000000        0x0 ../../../../../c-bowler/firmware/library/NR-Clib/development/c-bowler.X/dist/default/production/c-bowler.X.a(Bowler_USB_HAL.o)

.bss%z111       0x00000000        0x0
 .bss           0x00000000        0x0 ../../../../../c-bowler/firmware/library/NR-Clib/development/c-bowler.X/dist/default/production/c-bowler.X.a(Bowler_USB_HAL.o)

.data%z112      0x00000000        0x0
 .data          0x00000000        0x0 ../../../../../c-bowler/firmware/library/NR-Clib/development/c-bowler.X/dist/default/production/c-bowler.X.a(Bowler_USB_HAL.o)

.mdebug.abi32%z113
                0x00000000        0x0
 .mdebug.abi32  0x00000000        0x0 ../../../../../c-bowler/firmware/library/NR-Clib/development/c-bowler.X/dist/default/production/c-bowler.X.a(Delay.o)

.bss%z114       0x00000000        0x0
 .bss           0x00000000        0x0 ../../../../../c-bowler/firmware/library/NR-Clib/development/c-bowler.X/dist/default/production/c-bowler.X.a(Delay.o)

.data%z115      0x00000000        0x0
 .data          0x00000000        0x0 ../../../../../c-bowler/firmware/library/NR-Clib/development/c-bowler.X/dist/default/production/c-bowler.X.a(Delay.o)

.mdebug.abi32%z116
                0x00000000        0x0
 .mdebug.abi32  0x00000000        0x0 ../../../../../c-bowler/firmware/library/NR-Clib/development/c-bowler.X/dist/default/production/c-bowler.X.a(HAL_P32.o)

.bss%z117       0x00000000        0x0
 .bss           0x00000000        0x0 ../../../../../c-bowler/firmware/library/NR-Clib/development/c-bowler.X/dist/default/production/c-bowler.X.a(HAL_P32.o)

.data%z118      0x00000000        0x0
 .data          0x00000000        0x0 ../../../../../c-bowler/firmware/library/NR-Clib/development/c-bowler.X/dist/default/production/c-bowler.X.a(HAL_P32.o)

.mdebug.abi32%z119
                0x00000000        0x0
 .mdebug.abi32  0x00000000        0x0 ../../../../../c-bowler/firmware/library/NR-Clib/development/c-bowler.X/dist/default/production/c-bowler.X.a(ADC.o)

.bss%z120       0x00000000        0x0
 .bss           0x00000000        0x0 ../../../../../c-bowler/firmware/library/NR-Clib/development/c-bowler.X/dist/default/production/c-bowler.X.a(ADC.o)

.data%z121      0x00000000        0x0
 .data          0x00000000        0x0 ../../../../../c-bowler/firmware/library/NR-Clib/development/c-bowler.X/dist/default/production/c-bowler.X.a(ADC.o)

.mdebug.abi32%z122
                0x00000000        0x0
 .mdebug.abi32  0x00000000        0x0 ../../../../../c-bowler/firmware/library/NR-Clib/development/c-bowler.X/dist/default/production/c-bowler.X.a(LED.o)

.bss%z123       0x00000000        0x0
 .bss           0x00000000        0x0 ../../../../../c-bowler/firmware/library/NR-Clib/development/c-bowler.X/dist/default/production/c-bowler.X.a(LED.o)

.data%z124      0x00000000        0x0
 .data          0x00000000        0x0 ../../../../../c-bowler/firmware/library/NR-Clib/development/c-bowler.X/dist/default/production/c-bowler.X.a(LED.o)

.mdebug.abi32%z125
                0x00000000        0x0
 .mdebug.abi32  0x00000000        0x0 ../../../../../c-bowler/firmware/library/NR-Clib/development/c-bowler.X/dist/default/production/c-bowler.X.a(usb_device.o)

.bss%z126       0x00000000        0x0
 .bss           0x00000000        0x0 ../../../../../c-bowler/firmware/library/NR-Clib/development/c-bowler.X/dist/default/production/c-bowler.X.a(usb_device.o)

.data%z127      0x00000000        0x0
 .data          0x00000000        0x0 ../../../../../c-bowler/firmware/library/NR-Clib/development/c-bowler.X/dist/default/production/c-bowler.X.a(usb_device.o)

.mdebug.abi32%z128
                0x00000000        0x0
 .mdebug.abi32  0x00000000        0x0 ../../../../../c-bowler/firmware/library/NR-Clib/development/c-bowler.X/dist/default/production/c-bowler.X.a(usb_fifo.o)

.bss%z129       0x00000000        0x0
 .bss           0x00000000        0x0 ../../../../../c-bowler/firmware/library/NR-Clib/development/c-bowler.X/dist/default/production/c-bowler.X.a(usb_fifo.o)

.data%z130      0x00000000        0x0
 .data          0x00000000        0x0 ../../../../../c-bowler/firmware/library/NR-Clib/development/c-bowler.X/dist/default/production/c-bowler.X.a(usb_fifo.o)

.mdebug.abi32%z131
                0x00000000        0x0
 .mdebug.abi32  0x00000000        0x0 ../../../../../c-bowler/firmware/library/NR-Clib/development/c-bowler.X/dist/default/production/c-bowler.X.a(AbstractPID.o)

.bss%z132       0x00000000        0x0
 .bss           0x00000000        0x0 ../../../../../c-bowler/firmware/library/NR-Clib/development/c-bowler.X/dist/default/production/c-bowler.X.a(AbstractPID.o)

.data%z133      0x00000000        0x0
 .data          0x00000000        0x0 ../../../../../c-bowler/firmware/library/NR-Clib/development/c-bowler.X/dist/default/production/c-bowler.X.a(AbstractPID.o)

.mdebug.abi32%z134
                0x00000000        0x0
 .mdebug.abi32  0x00000000        0x0 ../../../../../c-bowler/firmware/library/NR-Clib/development/c-bowler.X/dist/default/production/c-bowler.X.a(Namespace_bcs_pid.o)

.bss%z135       0x00000000        0x0
 .bss           0x00000000        0x0 ../../../../../c-bowler/firmware/library/NR-Clib/development/c-bowler.X/dist/default/production/c-bowler.X.a(Namespace_bcs_pid.o)

.data%z136      0x00000000        0x0
 .data          0x00000000        0x0 ../../../../../c-bowler/firmware/library/NR-Clib/development/c-bowler.X/dist/default/production/c-bowler.X.a(Namespace_bcs_pid.o)

.mdebug.abi32%z137
                0x00000000        0x0
 .mdebug.abi32  0x00000000        0x0 ../../../../../c-bowler/firmware/library/NR-Clib/development/c-bowler.X/dist/default/production/c-bowler.X.a(Scheduler.o)

.bss%z138       0x00000000        0x0
 .bss           0x00000000        0x0 ../../../../../c-bowler/firmware/library/NR-Clib/development/c-bowler.X/dist/default/production/c-bowler.X.a(Scheduler.o)

.data%z139      0x00000000        0x0
 .data          0x00000000        0x0 ../../../../../c-bowler/firmware/library/NR-Clib/development/c-bowler.X/dist/default/production/c-bowler.X.a(Scheduler.o)

.mdebug.abi32%z140
                0x00000000        0x0
 .mdebug.abi32  0x00000000        0x0 ../../../../../c-bowler/firmware/library/NR-Clib/development/c-bowler.X/dist/default/production/c-bowler.X.a(Bowler_Helper.o)

.bss%z141       0x00000000        0x0
 .bss           0x00000000        0x0 ../../../../../c-bowler/firmware/library/NR-Clib/development/c-bowler.X/dist/default/production/c-bowler.X.a(Bowler_Helper.o)

.data%z142      0x00000000        0x0
 .data          0x00000000        0x0 ../../../../../c-bowler/firmware/library/NR-Clib/development/c-bowler.X/dist/default/production/c-bowler.X.a(Bowler_Helper.o)

.mdebug.abi32%z143
                0x00000000        0x0
 .mdebug.abi32  0x00000000        0x0 ../../../../../c-bowler/firmware/library/NR-Clib/development/c-bowler.X/dist/default/production/c-bowler.X.a(FIFO.o)

.bss%z144       0x00000000        0x0
 .bss           0x00000000        0x0 ../../../../../c-bowler/firmware/library/NR-Clib/development/c-bowler.X/dist/default/production/c-bowler.X.a(FIFO.o)

.data%z145      0x00000000        0x0
 .data          0x00000000        0x0 ../../../../../c-bowler/firmware/library/NR-Clib/development/c-bowler.X/dist/default/production/c-bowler.X.a(FIFO.o)

.mdebug.abi32%z146
                0x00000000        0x0
 .mdebug.abi32  0x00000000        0x0 ../../../../../c-bowler/firmware/library/NR-Clib/development/c-bowler.X/dist/default/production/c-bowler.X.a(Debug.o)

.bss%z147       0x00000000        0x0
 .bss           0x00000000        0x0 ../../../../../c-bowler/firmware/library/NR-Clib/development/c-bowler.X/dist/default/production/c-bowler.X.a(Debug.o)

.data%z148      0x00000000        0x0
 .data          0x00000000        0x0 ../../../../../c-bowler/firmware/library/NR-Clib/development/c-bowler.X/dist/default/production/c-bowler.X.a(Debug.o)

.mdebug.abi32%z149
                0x00000000        0x0
 .mdebug.abi32  0x00000000        0x0 ../../../../../c-bowler/firmware/library/NR-Clib/development/c-bowler.X/dist/default/production/c-bowler.X.a(Bowler_Server.o)

.bss%z150       0x00000000        0x0
 .bss           0x00000000        0x0 ../../../../../c-bowler/firmware/library/NR-Clib/development/c-bowler.X/dist/default/production/c-bowler.X.a(Bowler_Server.o)

.data%z151      0x00000000        0x0
 .data          0x00000000        0x0 ../../../../../c-bowler/firmware/library/NR-Clib/development/c-bowler.X/dist/default/production/c-bowler.X.a(Bowler_Server.o)

.mdebug.abi32%z152
                0x00000000        0x0
 .mdebug.abi32  0x00000000        0x0 ../../../../../c-bowler/firmware/library/NR-Clib/development/c-bowler.X/dist/default/production/c-bowler.X.a(Namespace_bcs_core.o)

.bss%z153       0x00000000        0x0
 .bss           0x00000000        0x0 ../../../../../c-bowler/firmware/library/NR-Clib/development/c-bowler.X/dist/default/production/c-bowler.X.a(Namespace_bcs_core.o)

.data%z154      0x00000000        0x0
 .data          0x00000000        0x0 ../../../../../c-bowler/firmware/library/NR-Clib/development/c-bowler.X/dist/default/production/c-bowler.X.a(Namespace_bcs_core.o)

.mdebug.abi32%z155
                0x00000000        0x0
 .mdebug.abi32  0x00000000        0x0 ../../../../../c-bowler/firmware/library/NR-Clib/development/c-bowler.X/dist/default/production/c-bowler.X.a(BowlerPacketParser.o)

.bss%z156       0x00000000        0x0
 .bss           0x00000000        0x0 ../../../../../c-bowler/firmware/library/NR-Clib/development/c-bowler.X/dist/default/production/c-bowler.X.a(BowlerPacketParser.o)

.data%z157      0x00000000        0x0
 .data          0x00000000        0x0 ../../../../../c-bowler/firmware/library/NR-Clib/development/c-bowler.X/dist/default/production/c-bowler.X.a(BowlerPacketParser.o)

.mdebug.abi32%z158
                0x00000000        0x0
 .mdebug.abi32  0x00000000        0x0 build/default/production/_ext/1360937237/DyIOMain.o

.bss%z159       0x00000000        0x0
 .bss           0x00000000        0x0 build/default/production/_ext/1360937237/DyIOMain.o

.data%z160      0x00000000        0x0
 .data          0x00000000        0x0 build/default/production/_ext/1360937237/DyIOMain.o

.mdebug.abi32%z161
                0x00000000        0x0
 .mdebug.abi32  0x00000000        0x0 build/default/production/_ext/1360937237/Main.o

.bss%z162       0x00000000        0x0
 .bss           0x00000000        0x0 build/default/production/_ext/1360937237/Main.o

.data%z163      0x00000000        0x0
 .data          0x00000000        0x0 build/default/production/_ext/1360937237/Main.o

.mdebug.abi32%z164
                0x00000000        0x0
 .mdebug.abi32  0x00000000        0x0 build/default/production/_ext/321196743/Namespace_bcs_pid_dypid.o

.bss%z165       0x00000000        0x0
 .bss           0x00000000        0x0 build/default/production/_ext/321196743/Namespace_bcs_pid_dypid.o

.data%z166      0x00000000        0x0
 .data          0x00000000        0x0 build/default/production/_ext/321196743/Namespace_bcs_pid_dypid.o

.mdebug.abi32%z167
                0x00000000        0x0
 .mdebug.abi32  0x00000000        0x0 build/default/production/_ext/321196743/Namespace_neuronrobotics_dyio.o

.bss%z168       0x00000000        0x0
 .bss           0x00000000        0x0 build/default/production/_ext/321196743/Namespace_neuronrobotics_dyio.o

.data%z169      0x00000000        0x0
 .data          0x00000000        0x0 build/default/production/_ext/321196743/Namespace_neuronrobotics_dyio.o

.mdebug.abi32%z170
                0x00000000        0x0
 .mdebug.abi32  0x00000000        0x0 build/default/production/_ext/1281821416/Namespace_bcs_safe.o

.bss%z171       0x00000000        0x0
 .bss           0x00000000        0x0 build/default/production/_ext/1281821416/Namespace_bcs_safe.o

.data%z172      0x00000000        0x0
 .data          0x00000000        0x0 build/default/production/_ext/1281821416/Namespace_bcs_safe.o

.mdebug.abi32%z173
                0x00000000        0x0
 .mdebug.abi32  0x00000000        0x0 build/default/production/_ext/1281821416/Abstract_bsc_safe.o

.bss%z174       0x00000000        0x0
 .bss           0x00000000        0x0 build/default/production/_ext/1281821416/Abstract_bsc_safe.o

.data%z175      0x00000000        0x0
 .data          0x00000000        0x0 build/default/production/_ext/1281821416/Abstract_bsc_safe.o

.mdebug.abi32%z176
                0x00000000        0x0
 .mdebug.abi32  0x00000000        0x0 build/default/production/_ext/1020318379/ChannelMode.o

.bss%z177       0x00000000        0x0
 .bss           0x00000000        0x0 build/default/production/_ext/1020318379/ChannelMode.o

.data%z178      0x00000000        0x0
 .data          0x00000000        0x0 build/default/production/_ext/1020318379/ChannelMode.o

.mdebug.abi32%z179
                0x00000000        0x0
 .mdebug.abi32  0x00000000        0x0 build/default/production/_ext/1020318379/ChannelValues.o

.bss%z180       0x00000000        0x0
 .bss           0x00000000        0x0 build/default/production/_ext/1020318379/ChannelValues.o

.data%z181      0x00000000        0x0
 .data          0x00000000        0x0 build/default/production/_ext/1020318379/ChannelValues.o

.mdebug.abi32%z182
                0x00000000        0x0
 .mdebug.abi32  0x00000000        0x0 build/default/production/_ext/1020318379/ChannelConfig.o

.bss%z183       0x00000000        0x0
 .bss           0x00000000        0x0 build/default/production/_ext/1020318379/ChannelConfig.o

.data%z184      0x00000000        0x0
 .data          0x00000000        0x0 build/default/production/_ext/1020318379/ChannelConfig.o

.mdebug.abi32%z185
                0x00000000        0x0
 .mdebug.abi32  0x00000000        0x0 build/default/production/_ext/1020318379/Pin_State.o

.bss%z186       0x00000000        0x0
 .bss           0x00000000        0x0 build/default/production/_ext/1020318379/Pin_State.o

.data%z187      0x00000000        0x0
 .data          0x00000000        0x0 build/default/production/_ext/1020318379/Pin_State.o

.mdebug.abi32%z188
                0x00000000        0x0
 .mdebug.abi32  0x00000000        0x0 build/default/production/_ext/990863823/PPMReader.o

.bss%z189       0x00000000        0x0
 .bss           0x00000000        0x0 build/default/production/_ext/990863823/PPMReader.o

.data%z190      0x00000000        0x0
 .data          0x00000000        0x0 build/default/production/_ext/990863823/PPMReader.o

.mdebug.abi32%z191
                0x00000000        0x0
 .mdebug.abi32  0x00000000        0x0 build/default/production/_ext/990863823/SPI.o

.bss%z192       0x00000000        0x0
 .bss           0x00000000        0x0 build/default/production/_ext/990863823/SPI.o

.data%z193      0x00000000        0x0
 .data          0x00000000        0x0 build/default/production/_ext/990863823/SPI.o

.mdebug.abi32%z194
                0x00000000        0x0
 .mdebug.abi32  0x00000000        0x0 build/default/production/_ext/990863823/SerialPassThrough.o

.bss%z195       0x00000000        0x0
 .bss           0x00000000        0x0 build/default/production/_ext/990863823/SerialPassThrough.o

.data%z196      0x00000000        0x0
 .data          0x00000000        0x0 build/default/production/_ext/990863823/SerialPassThrough.o

.mdebug.abi32%z197
                0x00000000        0x0
 .mdebug.abi32  0x00000000        0x0 build/default/production/_ext/990863823/EEPROMMannager.o

.bss%z198       0x00000000        0x0
 .bss           0x00000000        0x0 build/default/production/_ext/990863823/EEPROMMannager.o

.data%z199      0x00000000        0x0
 .data          0x00000000        0x0 build/default/production/_ext/990863823/EEPROMMannager.o

.mdebug.abi32%z200
                0x00000000        0x0
 .mdebug.abi32  0x00000000        0x0 build/default/production/_ext/990863823/Counter.o

.bss%z201       0x00000000        0x0
 .bss           0x00000000        0x0 build/default/production/_ext/990863823/Counter.o

.data%z202      0x00000000        0x0
 .data          0x00000000        0x0 build/default/production/_ext/990863823/Counter.o

.mdebug.abi32%z203
                0x00000000        0x0
 .mdebug.abi32  0x00000000        0x0 build/default/production/_ext/990863823/ADC.o

.bss%z204       0x00000000        0x0
 .bss           0x00000000        0x0 build/default/production/_ext/990863823/ADC.o

.data%z205      0x00000000        0x0
 .data          0x00000000        0x0 build/default/production/_ext/990863823/ADC.o

.mdebug.abi32%z206
                0x00000000        0x0
 .mdebug.abi32  0x00000000        0x0 build/default/production/_ext/990863823/CoProcCom.o

.bss%z207       0x00000000        0x0
 .bss           0x00000000        0x0 build/default/production/_ext/990863823/CoProcCom.o

.data%z208      0x00000000        0x0
 .data          0x00000000        0x0 build/default/production/_ext/990863823/CoProcCom.o

.mdebug.abi32%z209
                0x00000000        0x0
 .mdebug.abi32  0x00000000        0x0 build/default/production/_ext/990863823/DyIODataTableManager.o

.bss%z210       0x00000000        0x0
 .bss           0x00000000        0x0 build/default/production/_ext/990863823/DyIODataTableManager.o

.data%z211      0x00000000        0x0
 .data          0x00000000        0x0 build/default/production/_ext/990863823/DyIODataTableManager.o

.mdebug.abi32%z212
                0x00000000        0x0
 .mdebug.abi32  0x00000000        0x0 build/default/production/_ext/990863823/Switches.o

.bss%z213       0x00000000        0x0
 .bss           0x00000000        0x0 build/default/production/_ext/990863823/Switches.o

.data%z214      0x00000000        0x0
 .data          0x00000000        0x0 build/default/production/_ext/990863823/Switches.o

.mdebug.abi32%z215
                0x00000000        0x0
 .mdebug.abi32  0x00000000        0x0 build/default/production/_ext/990863823/AVRInterface.o

.bss%z216       0x00000000        0x0
 .bss           0x00000000        0x0 build/default/production/_ext/990863823/AVRInterface.o

.data%z217      0x00000000        0x0
 .data          0x00000000        0x0 build/default/production/_ext/990863823/AVRInterface.o

.mdebug.abi32%z218
                0x00000000        0x0
 .mdebug.abi32  0x00000000        0x0 build/default/production/_ext/2110062566/UartDMARx.o

.bss%z219       0x00000000        0x0
 .bss           0x00000000        0x0 build/default/production/_ext/2110062566/UartDMARx.o

.data%z220      0x00000000        0x0
 .data          0x00000000        0x0 build/default/production/_ext/2110062566/UartDMARx.o

.mdebug.abi32%z221
                0x00000000        0x0
 .mdebug.abi32  0x00000000        0x0 build/default/production/_ext/1978776677/AsyncManager.o

.bss%z222       0x00000000        0x0
 .bss           0x00000000        0x0 build/default/production/_ext/1978776677/AsyncManager.o

.data%z223      0x00000000        0x0
 .data          0x00000000        0x0 build/default/production/_ext/1978776677/AsyncManager.o

.mdebug.abi32%z224
                0x00000000        0x0
 .mdebug.abi32  0x00000000        0x0 build/default/production/_ext/1978776677/DownStreamPackets.o

.bss%z225       0x00000000        0x0
 .bss           0x00000000        0x0 build/default/production/_ext/1978776677/DownStreamPackets.o

.data%z226      0x00000000        0x0
 .data          0x00000000        0x0 build/default/production/_ext/1978776677/DownStreamPackets.o

.mdebug.abi32%z227
                0x00000000        0x0
 .mdebug.abi32  0x00000000        0x0 build/default/production/_ext/1978776677/InitializationCallbacks.o

.bss%z228       0x00000000        0x0
 .bss           0x00000000        0x0 build/default/production/_ext/1978776677/InitializationCallbacks.o

.data%z229      0x00000000        0x0
 .data          0x00000000        0x0 build/default/production/_ext/1978776677/InitializationCallbacks.o

.mdebug.abi32%z230
                0x00000000        0x0
 .mdebug.abi32  0x00000000        0x0 build/default/production/_ext/1978776677/UpstreamPackets.o

.bss%z231       0x00000000        0x0
 .bss           0x00000000        0x0 build/default/production/_ext/1978776677/UpstreamPackets.o

.data%z232      0x00000000        0x0
 .data          0x00000000        0x0 build/default/production/_ext/1978776677/UpstreamPackets.o

.mdebug.abi32%z233
                0x00000000        0x0
 .mdebug.abi32  0x00000000        0x0 build/default/production/_ext/1825615050/PID.o

.bss%z234       0x00000000        0x0
 .bss           0x00000000        0x0 build/default/production/_ext/1825615050/PID.o

.data%z235      0x00000000        0x0
 .data          0x00000000        0x0 build/default/production/_ext/1825615050/PID.o

.mdebug.abi32%z236
                0x00000000        0x0
 .mdebug.abi32  0x00000000        0x0 build/default/production/_ext/1825615050/CartesianController.o

.bss%z237       0x00000000        0x0
 .bss           0x00000000        0x0 build/default/production/_ext/1825615050/CartesianController.o

.data%z238      0x00000000        0x0
 .data          0x00000000        0x0 build/default/production/_ext/1825615050/CartesianController.o

.mdebug.abi32%z239
                0x00000000        0x0
 .mdebug.abi32  0x00000000        0x0 build/default/production/_ext/1051272628/Namespace_bcs_io_setmode.o

.bss%z240       0x00000000        0x0
 .bss           0x00000000        0x0 build/default/production/_ext/1051272628/Namespace_bcs_io_setmode.o

.data%z241      0x00000000        0x0
 .data          0x00000000        0x0 build/default/production/_ext/1051272628/Namespace_bcs_io_setmode.o

.mdebug.abi32%z242
                0x00000000        0x0
 .mdebug.abi32  0x00000000        0x0 build/default/production/_ext/1051272628/Abstract_bcs_io_setmode.o

.bss%z243       0x00000000        0x0
 .bss           0x00000000        0x0 build/default/production/_ext/1051272628/Abstract_bcs_io_setmode.o

.data%z244      0x00000000        0x0
 .data          0x00000000        0x0 build/default/production/_ext/1051272628/Abstract_bcs_io_setmode.o

.mdebug.abi32%z245
                0x00000000        0x0
 .mdebug.abi32  0x00000000        0x0 build/default/production/_ext/805493626/Bcs_IO_AdvancedAsync.o

.bss%z246       0x00000000        0x0
 .bss           0x00000000        0x0 build/default/production/_ext/805493626/Bcs_IO_AdvancedAsync.o

.data%z247      0x00000000        0x0
 .data          0x00000000        0x0 build/default/production/_ext/805493626/Bcs_IO_AdvancedAsync.o

.mdebug.abi32%z248
                0x00000000        0x0
 .mdebug.abi32  0x00000000        0x0 build/default/production/_ext/805493626/Abstract_bcs_io.o

.bss%z249       0x00000000        0x0
 .bss           0x00000000        0x0 build/default/production/_ext/805493626/Abstract_bcs_io.o

.data%z250      0x00000000        0x0
 .data          0x00000000        0x0 build/default/production/_ext/805493626/Abstract_bcs_io.o

.mdebug.abi32%z251
                0x00000000        0x0
 .mdebug.abi32  0x00000000        0x0 build/default/production/_ext/805493626/Namespace_bcs_io.o

.bss%z252       0x00000000        0x0
 .bss           0x00000000        0x0 build/default/production/_ext/805493626/Namespace_bcs_io.o

.data%z253      0x00000000        0x0
 .data          0x00000000        0x0 build/default/production/_ext/805493626/Namespace_bcs_io.o

.mdebug.abi32%z254
                0x00000000        0x0
 .mdebug.abi32  0x00000000        0x0 build/default/production/_ext/805493626/Debug_DyIO.o

.bss%z255       0x00000000        0x0
 .bss           0x00000000        0x0 build/default/production/_ext/805493626/Debug_DyIO.o

.data%z256      0x00000000        0x0
 .data          0x00000000        0x0 build/default/production/_ext/805493626/Debug_DyIO.o

.mdebug.abi32%z257
                0x00000000        0x0
 .mdebug.abi32  0x00000000        0x0 build/default/production/_ext/108654538/PinFunctions.o

.bss%z258       0x00000000        0x0
 .bss           0x00000000        0x0 build/default/production/_ext/108654538/PinFunctions.o

.data%z259      0x00000000        0x0
 .data          0x00000000        0x0 build/default/production/_ext/108654538/PinFunctions.o

.bss%z260       0x00000000        0x0
 .bss           0x00000000        0x0 /home/opt/microchip/xc32/v1.00/bin/../lib/gcc/pic32mx/4.5.1/../../../../pic32mx/lib/crt0.o

.data%z261      0x00000000        0x0
 .data          0x00000000        0x0 /home/opt/microchip/xc32/v1.00/bin/../lib/gcc/pic32mx/4.5.1/../../../../pic32mx/lib/crt0.o

.dinit          0x9d00007c     0x147c
 .dinit         0x9d00007c     0x147c data_init

.text           0x9d0014f8      0x8ec
 .text          0x9d0014f8      0x8ec /home/opt/microchip/xc32/v1.00/bin/../lib/gcc/pic32mx/4.5.1/../../../../pic32mx/lib/libm.a(fp32.o)
                0x9d0014f8                __subsf3
                0x9d0014f8                fpsub
                0x9d001500                fpadd
                0x9d001500                __addsf3
                0x9d00176c                __mulsf3
                0x9d00176c                fpmul
                0x9d001924                __divsf3
                0x9d001924                fpdiv
                0x9d001b50                sitofp
                0x9d001b50                __floatsisf
                0x9d001b50                litofp
                0x9d001bac                uitofp
                0x9d001bac                ultofp
                0x9d001bf8                __fixsfsi
                0x9d001bf8                fptoli
                0x9d001bf8                fptosi
                0x9d001c70                fptoui
                0x9d001c70                __fixunssfsi
                0x9d001c70                fptoul
                0x9d001ce4                __lesf2
                0x9d001ce4                __nesf2
                0x9d001ce4                __gtsf2
                0x9d001ce4                __eqsf2
                0x9d001ce4                __ltsf2
                0x9d001ce4                fpcmp
                0x9d001ce4                __gesf2
                0x9d001d78                fabsf
                0x9d001d78                fpfabs
                0x9d001d88                __negsf2
                0x9d001d98                fpnan
                0x9d001d98                nanf

.text.RunPPMCheck
                0x9d001de4      0x74c
 .text.RunPPMCheck
                0x9d001de4      0x74c build/default/production/_ext/990863823/PPMReader.o
                0x9d001de5                RunPPMCheck

.text.InitPID   0x9d002530      0x628
 .text.InitPID  0x9d002530      0x628 build/default/production/_ext/1825615050/PID.o
                0x9d002531                InitPID

.text.pushAsyncReady
                0x9d002b58      0x538
 .text.pushAsyncReady
                0x9d002b58      0x538 build/default/production/_ext/805493626/Bcs_IO_AdvancedAsync.o
                0x9d002b59                pushAsyncReady

.rodata         0x9d003090      0x528
 .rodata        0x9d003090      0x528 /home/opt/microchip/xc32/v1.00/bin/../lib/gcc/pic32mx/4.5.1/../../../../pic32mx/lib/libmchp_peripheral_32MX440F128H.a(int_tbl_lib.o)
                0x9d003090                __IntSrcTbl
                0x9d003390                __IntVectorTbl

.text.RunPDVel  0x9d0035b8      0x418
 .text.RunPDVel
                0x9d0035b8      0x418 ../../../../../c-bowler/firmware/library/NR-Clib/development/c-bowler.X/dist/default/production/c-bowler.X.a(PidVelocity.o)
                0x9d0035b9                RunPDVel

.text.pidHysterisis
                0x9d0039d0      0x3e4
 .text.pidHysterisis
                0x9d0039d0      0x3e4 ../../../../../c-bowler/firmware/library/NR-Clib/development/c-bowler.X/dist/default/production/c-bowler.X.a(PidHysteresis.o)
                0x9d0039d1                pidHysterisis

.text.runCounterGroup
                0x9d003db4      0x2e8
 .text.runCounterGroup
                0x9d003db4      0x2e8 build/default/production/_ext/990863823/Counter.o
                0x9d003db5                runCounterGroup

.text.ProcessAsyncData
                0x9d00409c      0x2e0
 .text.ProcessAsyncData
                0x9d00409c      0x2e0 build/default/production/_ext/1978776677/AsyncManager.o
                0x9d00409d                ProcessAsyncData

.text.pushPIDLimitEvent
                0x9d00437c      0x2d8
 .text.pushPIDLimitEvent
                0x9d00437c      0x2d8 ../../../../../c-bowler/firmware/library/NR-Clib/development/c-bowler.X/dist/default/production/c-bowler.X.a(PidAsync.o)
                0x9d00437d                pushPIDLimitEvent

.text._general_exception_handler
                0x9d004654      0x2c8
 .text._general_exception_handler
                0x9d004654      0x2c8 ../../../../../c-bowler/firmware/library/NR-Clib/development/c-bowler.X/dist/default/production/c-bowler.X.a(HAL_P32.o)
                0x9d004654                _general_exception_handler

.text.USBCtrlEPServiceComplete
                0x9d00491c      0x2b8
 .text.USBCtrlEPServiceComplete
                0x9d00491c      0x2b8 ../../../../../c-bowler/firmware/library/NR-Clib/development/c-bowler.X/dist/default/production/c-bowler.X.a(usb_device.o)
                0x9d00491d                USBCtrlEPServiceComplete

.rodata         0x9d004bd4      0x2ac
 .rodata        0x9d004bd4      0x2ac build/default/production/_ext/805493626/Abstract_bcs_io.o

.text.InitPins  0x9d004e80      0x2ac
 .text.InitPins
                0x9d004e80      0x2ac build/default/production/_ext/1020318379/Pin_State.o
                0x9d004e81                InitPins

.text.FlashSync
                0x9d00512c      0x28c
 .text.FlashSync
                0x9d00512c      0x28c ../../../../../c-bowler/firmware/library/NR-Clib/development/c-bowler.X/dist/default/production/c-bowler.X.a(FlashStorage.o)
                0x9d00512d                FlashSync

.text.printBowlerPacketDEBUG
                0x9d0053b8      0x280
 .text.printBowlerPacketDEBUG
                0x9d0053b8      0x280 ../../../../../c-bowler/firmware/library/NR-Clib/development/c-bowler.X/dist/default/production/c-bowler.X.a(Debug.o)
                0x9d0053b9                printBowlerPacketDEBUG

.text.ConfigPID
                0x9d005638      0x280
 .text.ConfigPID
                0x9d005638      0x280 ../../../../../c-bowler/firmware/library/NR-Clib/development/c-bowler.X/dist/default/production/c-bowler.X.a(PidRpc.o)
                0x9d005639                ConfigPID

.text.hardwareInit
                0x9d0058b8      0x264
 .text.hardwareInit
                0x9d0058b8      0x264 build/default/production/_ext/1978776677/InitializationCallbacks.o
                0x9d0058b9                hardwareInit

.text.SetPIDTimed
                0x9d005b1c      0x25c
 .text.SetPIDTimed
                0x9d005b1c      0x25c ../../../../../c-bowler/firmware/library/NR-Clib/development/c-bowler.X/dist/default/production/c-bowler.X.a(AbstractPID.o)
                0x9d005b1d                SetPIDTimed

.text.InitPinFunction
                0x9d005d78      0x250
 .text.InitPinFunction
                0x9d005d78      0x250 build/default/production/_ext/108654538/PinFunctions.o
                0x9d005d79                InitPinFunction

.rodata         0x9d005fc8      0x250
 .rodata        0x9d005fc8      0x250 ../../../../../c-bowler/firmware/library/NR-Clib/development/c-bowler.X/dist/default/production/c-bowler.X.a(HAL_P32.o)

.text.printPIDvals
                0x9d006218      0x238
 .text.printPIDvals
                0x9d006218      0x238 ../../../../../c-bowler/firmware/library/NR-Clib/development/c-bowler.X/dist/default/production/c-bowler.X.a(Debug.o)
                0x9d006219                printPIDvals

.text.printBufferState
                0x9d006450      0x238
 .text.printBufferState
                0x9d006450      0x238 ../../../../../c-bowler/firmware/library/NR-Clib/development/c-bowler.X/dist/default/production/c-bowler.X.a(usb_fifo.o)
                0x9d006451                printBufferState

.text.USBDeviceTasksLocal
                0x9d006688      0x22c
 .text.USBDeviceTasksLocal
                0x9d006688      0x22c ../../../../../c-bowler/firmware/library/NR-Clib/development/c-bowler.X/dist/default/production/c-bowler.X.a(usb_device.o)
                0x9d006689                USBDeviceTasksLocal

.text.neuronRoboticsDyIOProcessor_c
                0x9d0068b4      0x228
 .text.neuronRoboticsDyIOProcessor_c
                0x9d0068b4      0x228 build/default/production/_ext/321196743/Namespace_neuronrobotics_dyio.o
                0x9d0068b5                neuronRoboticsDyIOProcessor_c

.text.GetPIDGroup
                0x9d006adc      0x220
 .text.GetPIDGroup
                0x9d006adc      0x220 build/default/production/_ext/1825615050/PID.o
                0x9d006add                GetPIDGroup

.text.RunAbstractPIDCalc
                0x9d006cfc      0x21c
 .text.RunAbstractPIDCalc
                0x9d006cfc      0x21c ../../../../../c-bowler/firmware/library/NR-Clib/development/c-bowler.X/dist/default/production/c-bowler.X.a(AbstractPID.o)
                0x9d006cfd                RunAbstractPIDCalc

.text.USBCheckCDCRequest
                0x9d006f18      0x218
 .text.USBCheckCDCRequest
                0x9d006f18      0x218 ../../../../../c-bowler/firmware/library/NR-Clib/development/c-bowler.X/dist/default/production/c-bowler.X.a(usb_function_cdc.o)
                0x9d006f19                USBCheckCDCRequest

.text.INT4_ISR  0x9d007130      0x20c
 .text.INT4_ISR
                0x9d007130      0x20c build/default/production/_ext/990863823/Counter.o
                0x9d007130                INT4_ISR

.text.StartCounterInput
                0x9d00733c      0x1f8
 .text.StartCounterInput
                0x9d00733c      0x1f8 build/default/production/_ext/990863823/Counter.o
                0x9d00733d                StartCounterInput

.text.runCounterOutputStep
                0x9d007534      0x1e8
 .text.runCounterOutputStep
                0x9d007534      0x1e8 build/default/production/_ext/990863823/Counter.o
                0x9d007535                runCounterOutputStep

.text.GetConfigPID
                0x9d00771c      0x1e8
 .text.GetConfigPID
                0x9d00771c      0x1e8 ../../../../../c-bowler/firmware/library/NR-Clib/development/c-bowler.X/dist/default/production/c-bowler.X.a(PidRpc.o)
                0x9d00771d                GetConfigPID

.text.pidResetNoStop
                0x9d007904      0x1e4
 .text.pidResetNoStop
                0x9d007904      0x1e4 ../../../../../c-bowler/firmware/library/NR-Clib/development/c-bowler.X/dist/default/production/c-bowler.X.a(AbstractPID.o)
                0x9d007905                pidResetNoStop

.text.Process_Self_Packet
                0x9d007ae8      0x1d8
 .text.Process_Self_Packet
                0x9d007ae8      0x1d8 ../../../../../c-bowler/firmware/library/NR-Clib/development/c-bowler.X/dist/default/production/c-bowler.X.a(Bowler_Server.o)
                0x9d007ae9                Process_Self_Packet

.text.GetRawVoltageCode
                0x9d007cc0      0x1d0
 .text.GetRawVoltageCode
                0x9d007cc0      0x1d0 build/default/production/_ext/990863823/ADC.o
                0x9d007cc1                GetRawVoltageCode

.text.sendPacket
                0x9d007e90      0x1c0
 .text.sendPacket
                0x9d007e90      0x1c0 build/default/production/_ext/990863823/CoProcCom.o
                0x9d007e91                sendPacket

.text.setMode   0x9d008050      0x1b8
 .text.setMode  0x9d008050      0x1b8 build/default/production/_ext/1020318379/ChannelMode.o
                0x9d008051                setMode

.text.InitADCHardware
                0x9d008208      0x1b4
 .text.InitADCHardware
                0x9d008208      0x1b4 ../../../../../c-bowler/firmware/library/NR-Clib/development/c-bowler.X/dist/default/production/c-bowler.X.a(ADC.o)
                0x9d008209                InitADCHardware

.text.StartCounterOutput
                0x9d0083bc      0x1b0
 .text.StartCounterOutput
                0x9d0083bc      0x1b0 build/default/production/_ext/990863823/Counter.o
                0x9d0083bd                StartCounterOutput

.text.SendPacketToCoProc
                0x9d00856c      0x1a8
 .text.SendPacketToCoProc
                0x9d00856c      0x1a8 build/default/production/_ext/990863823/CoProcCom.o
                0x9d00856d                SendPacketToCoProc

.text._Timer3Handler
                0x9d008714      0x1a8
 .text._Timer3Handler
                0x9d008714      0x1a8 build/default/production/_ext/990863823/Counter.o
                0x9d008714                _Timer3Handler

.text.CheckSwitches
                0x9d0088bc      0x1a4
 .text.CheckSwitches
                0x9d0088bc      0x1a4 build/default/production/_ext/990863823/Switches.o
                0x9d0088bd                CheckSwitches

.rodata         0x9d008a60      0x4cc
 .rodata        0x9d008a60      0x1a4 build/default/production/_ext/990863823/CoProcCom.o
 .rodata        0x9d008c04      0x198 build/default/production/_ext/805493626/Bcs_IO_AdvancedAsync.o
 .rodata        0x9d008d9c      0x190 ../../../../../c-bowler/firmware/library/NR-Clib/development/c-bowler.X/dist/default/production/c-bowler.X.a(Debug.o)

.text.valadateRPC
                0x9d008f2c      0x184
 .text.valadateRPC
                0x9d008f2c      0x184 build/default/production/_ext/990863823/CoProcCom.o
                0x9d008f2d                valadateRPC

.text.My_U2_ISR
                0x9d0090b0      0x178
 .text.My_U2_ISR
                0x9d0090b0      0x178 build/default/production/_ext/990863823/CoProcCom.o
                0x9d0090b0                My_U2_ISR

.text.USBCtrlTrfRxService
                0x9d009228      0x16c
 .text.USBCtrlTrfRxService
                0x9d009228      0x16c ../../../../../c-bowler/firmware/library/NR-Clib/development/c-bowler.X/dist/default/production/c-bowler.X.a(usb_device.o)
                0x9d009229                USBCtrlTrfRxService

.text.ConfigureChannelFromPacket
                0x9d009394      0x168
 .text.ConfigureChannelFromPacket
                0x9d009394      0x168 build/default/production/_ext/805493626/Abstract_bcs_io.o
                0x9d009395                ConfigureChannelFromPacket

.rodata         0x9d0094fc      0x168
 .rodata        0x9d0094fc      0x168 build/default/production/_ext/1978776677/InitializationCallbacks.o

.text           0x9d009664      0x168
 .text          0x9d009664      0x168 /home/opt/microchip/xc32/v1.00/bin/../lib/gcc/pic32mx/4.5.1/../../../../pic32mx/lib/libc.a(memcpy.o)
                0x9d009664                memcpy

.rodata         0x9d0097cc      0x164
 .rodata        0x9d0097cc      0x164 build/default/production/_ext/1978776677/DownStreamPackets.o

.text.newByte   0x9d009930      0x164
 .text.newByte  0x9d009930      0x164 build/default/production/_ext/990863823/CoProcCom.o
                0x9d009931                newByte

.text._getBowlerPacket
                0x9d009a94      0x160
 .text._getBowlerPacket
                0x9d009a94      0x160 ../../../../../c-bowler/firmware/library/NR-Clib/development/c-bowler.X/dist/default/production/c-bowler.X.a(BowlerPacketParser.o)
                0x9d009a95                _getBowlerPacket

.text.startAdvancedAsyncDefault
                0x9d009bf4      0x158
 .text.startAdvancedAsyncDefault
                0x9d009bf4      0x158 build/default/production/_ext/805493626/Bcs_IO_AdvancedAsync.o
                0x9d009bf5                startAdvancedAsyncDefault

.rodata         0x9d009d4c      0x154
 .rodata        0x9d009d4c      0x154 build/default/production/_ext/1020318379/ChannelMode.o

.text.setOutputMine
                0x9d009ea0      0x150
 .text.setOutputMine
                0x9d009ea0      0x150 build/default/production/_ext/1825615050/PID.o
                0x9d009ea1                setOutputMine

.text.processPIDPost
                0x9d009ff0      0x150
 .text.processPIDPost
                0x9d009ff0      0x150 ../../../../../c-bowler/firmware/library/NR-Clib/development/c-bowler.X/dist/default/production/c-bowler.X.a(PidRpc.o)
                0x9d009ff1                processPIDPost

.text.USBStdFeatureReqHandler
                0x9d00a140      0x14c
 .text.USBStdFeatureReqHandler
                0x9d00a140      0x14c ../../../../../c-bowler/firmware/library/NR-Clib/development/c-bowler.X/dist/default/production/c-bowler.X.a(usb_device.o)
                0x9d00a141                USBStdFeatureReqHandler

.text.ClearCounter
                0x9d00a28c      0x148
 .text.ClearCounter
                0x9d00a28c      0x148 build/default/production/_ext/990863823/Counter.o
                0x9d00a28d                ClearCounter

.text.InitADC   0x9d00a3d4      0x144
 .text.InitADC  0x9d00a3d4      0x144 build/default/production/_ext/990863823/ADC.o
                0x9d00a3d5                InitADC

.text.neuronRoboticsDyIOAsyncEventCallback
                0x9d00a518      0x140
 .text.neuronRoboticsDyIOAsyncEventCallback
                0x9d00a518      0x140 build/default/production/_ext/321196743/Namespace_neuronrobotics_dyio.o
                0x9d00a519                neuronRoboticsDyIOAsyncEventCallback

.text.GetAllModes
                0x9d00a658      0x13c
 .text.GetAllModes
                0x9d00a658      0x13c build/default/production/_ext/1978776677/DownStreamPackets.o
                0x9d00a659                GetAllModes

.text.pushPID   0x9d00a794      0x13c
 .text.pushPID  0x9d00a794      0x13c ../../../../../c-bowler/firmware/library/NR-Clib/development/c-bowler.X/dist/default/production/c-bowler.X.a(PidAsync.o)
                0x9d00a795                pushPID

.text.printAsync
                0x9d00a8d0      0x134
 .text.printAsync
                0x9d00a8d0      0x134 build/default/production/_ext/805493626/Abstract_bcs_io.o
                0x9d00a8d1                printAsync

.text.USBDeviceInit
                0x9d00aa04      0x134
 .text.USBDeviceInit
                0x9d00aa04      0x134 ../../../../../c-bowler/firmware/library/NR-Clib/development/c-bowler.X/dist/default/production/c-bowler.X.a(usb_device.o)
                0x9d00aa05                USBDeviceInit

.text.USBCancelIO
                0x9d00ab38      0x134
 .text.USBCancelIO
                0x9d00ab38      0x134 ../../../../../c-bowler/firmware/library/NR-Clib/development/c-bowler.X/dist/default/production/c-bowler.X.a(usb_device.o)
                0x9d00ab39                USBCancelIO

.text.INT2_ISR  0x9d00ac6c      0x130
 .text.INT2_ISR
                0x9d00ac6c      0x130 build/default/production/_ext/990863823/Counter.o
                0x9d00ac6c                INT2_ISR

.text.INT3_ISR  0x9d00ad9c      0x130
 .text.INT3_ISR
                0x9d00ad9c      0x130 build/default/production/_ext/990863823/Counter.o
                0x9d00ad9c                INT3_ISR

.text.pinHasFunction
                0x9d00aecc      0x12c
 .text.pinHasFunction
                0x9d00aecc      0x12c build/default/production/_ext/805493626/Abstract_bcs_io.o
                0x9d00aecd                pinHasFunction

.text.CDCTxService
                0x9d00aff8      0x128
 .text.CDCTxService
                0x9d00aff8      0x128 ../../../../../c-bowler/firmware/library/NR-Clib/development/c-bowler.X/dist/default/production/c-bowler.X.a(usb_function_cdc.o)
                0x9d00aff9                CDCTxService

.text.SetAllCoProcValues
                0x9d00b120      0x124
 .text.SetAllCoProcValues
                0x9d00b120      0x124 build/default/production/_ext/1978776677/DownStreamPackets.o
                0x9d00b121                SetAllCoProcValues

.text.interpolate
                0x9d00b244      0x124
 .text.interpolate
                0x9d00b244      0x124 ../../../../../c-bowler/firmware/library/NR-Clib/development/c-bowler.X/dist/default/production/c-bowler.X.a(Bowler_Helper.o)
                0x9d00b245                interpolate

.text.GetEEPRomData
                0x9d00b368      0x120
 .text.GetEEPRomData
                0x9d00b368      0x120 build/default/production/_ext/1978776677/DownStreamPackets.o
                0x9d00b369                GetEEPRomData

.text.startUartCoProc
                0x9d00b488      0x120
 .text.startUartCoProc
                0x9d00b488      0x120 build/default/production/_ext/990863823/CoProcCom.o
                0x9d00b489                startUartCoProc

.text.RunPIDControl
                0x9d00b5a8      0x11c
 .text.RunPIDControl
                0x9d00b5a8      0x11c ../../../../../c-bowler/firmware/library/NR-Clib/development/c-bowler.X/dist/default/production/c-bowler.X.a(AbstractPID.o)
                0x9d00b5a9                RunPIDControl

.text.ConfigPPM
                0x9d00b6c4      0x118
 .text.ConfigPPM
                0x9d00b6c4      0x118 build/default/production/_ext/990863823/PPMReader.o
                0x9d00b6c5                ConfigPPM

.text._NVMOperation
                0x9d00b7dc      0x114
 .text._NVMOperation
                0x9d00b7dc      0x114 /home/opt/microchip/xc32/v1.00/bin/../lib/gcc/pic32mx/4.5.1/../../../../pic32mx/lib/libmchp_peripheral_32MX440F128H.a(nvm_operation_lib.o)
                0x9d00b7dc                _NVMOperation

.text.INT1_ISR  0x9d00b8f0      0x110
 .text.INT1_ISR
                0x9d00b8f0      0x110 build/default/production/_ext/990863823/Counter.o
                0x9d00b8f0                INT1_ISR

.rodata         0x9d00ba00      0x110
 .rodata        0x9d00ba00      0x110 ../../../../../c-bowler/firmware/library/NR-Clib/development/c-bowler.X/dist/default/production/c-bowler.X.a(PidHysteresis.o)

.text.SetChanelValueHW
                0x9d00bb10      0x108
 .text.SetChanelValueHW
                0x9d00bb10      0x108 build/default/production/_ext/1020318379/ChannelValues.o
                0x9d00bb11                SetChanelValueHW

.text.ConfigPPMFromArray
                0x9d00bc18      0x104
 .text.ConfigPPMFromArray
                0x9d00bc18      0x104 build/default/production/_ext/990863823/PPMReader.o
                0x9d00bc19                ConfigPPMFromArray

.text.SendPacketToSPIFromArray
                0x9d00bd1c      0x100
 .text.SendPacketToSPIFromArray
                0x9d00bd1c      0x100 build/default/production/_ext/990863823/SPI.o
                0x9d00bd1d                SendPacketToSPIFromArray

.text.GetChanelValueHW
                0x9d00be1c      0x100
 .text.GetChanelValueHW
                0x9d00be1c      0x100 build/default/production/_ext/1020318379/ChannelValues.o
                0x9d00be1d                GetChanelValueHW

.text.USBCheckStdRequest
                0x9d00bf1c      0x100
 .text.USBCheckStdRequest
                0x9d00bf1c      0x100 ../../../../../c-bowler/firmware/library/NR-Clib/development/c-bowler.X/dist/default/production/c-bowler.X.a(usb_device.o)
                0x9d00bf1d                USBCheckStdRequest

.text.processPIDCrit
                0x9d00c01c      0x100
 .text.processPIDCrit
                0x9d00c01c      0x100 ../../../../../c-bowler/firmware/library/NR-Clib/development/c-bowler.X/dist/default/production/c-bowler.X.a(PidRpc.o)
                0x9d00c01d                processPIDCrit

.text.checkLinkHomingStatus
                0x9d00c11c      0x100
 .text.checkLinkHomingStatus
                0x9d00c11c      0x100 ../../../../../c-bowler/firmware/library/NR-Clib/development/c-bowler.X/dist/default/production/c-bowler.X.a(PidHysteresis.o)
                0x9d00c11d                checkLinkHomingStatus

.text.initPIDChans
                0x9d00c21c       0xfc
 .text.initPIDChans
                0x9d00c21c       0xfc build/default/production/_ext/1825615050/PID.o
                0x9d00c21d                initPIDChans

.text.LoadPIDvals
                0x9d00c318       0xfc
 .text.LoadPIDvals
                0x9d00c318       0xfc build/default/production/_ext/990863823/EEPROMMannager.o
                0x9d00c319                LoadPIDvals

.text._USB1Interrupt
                0x9d00c414       0xfc
 .text._USB1Interrupt
                0x9d00c414       0xfc ../../../../../c-bowler/firmware/library/NR-Clib/development/c-bowler.X/dist/default/production/c-bowler.X.a(usb_device.o)
                0x9d00c414                _USB1Interrupt

.text.runPidHysterisisCalibration
                0x9d00c510       0xfc
 .text.runPidHysterisisCalibration
                0x9d00c510       0xfc ../../../../../c-bowler/firmware/library/NR-Clib/development/c-bowler.X/dist/default/production/c-bowler.X.a(PidHysteresis.o)
                0x9d00c511                runPidHysterisisCalibration

.text.neuronRoboticsDyIOProcessor_g
                0x9d00c60c       0xf8
 .text.neuronRoboticsDyIOProcessor_g
                0x9d00c60c       0xf8 build/default/production/_ext/321196743/Namespace_neuronrobotics_dyio.o
                0x9d00c60d                neuronRoboticsDyIOProcessor_g

.rodata         0x9d00c704       0xf8
 .rodata        0x9d00c704       0xf8 ../../../../../c-bowler/firmware/library/NR-Clib/development/c-bowler.X/dist/default/production/c-bowler.X.a(usb_fifo.o)

.text.USBPutArray
                0x9d00c7fc       0xf0
 .text.USBPutArray
                0x9d00c7fc       0xf0 ../../../../../c-bowler/firmware/library/NR-Clib/development/c-bowler.X/dist/default/production/c-bowler.X.a(usb_fifo.o)
                0x9d00c7fd                USBPutArray

.text.processPIDGet
                0x9d00c8ec       0xf0
 .text.processPIDGet
                0x9d00c8ec       0xf0 ../../../../../c-bowler/firmware/library/NR-Clib/development/c-bowler.X/dist/default/production/c-bowler.X.a(PidRpc.o)
                0x9d00c8ed                processPIDGet

.text.U1_ISR    0x9d00c9dc       0xec
 .text.U1_ISR   0x9d00c9dc       0xec ../../../../../c-bowler/firmware/library/NR-Clib/development/c-bowler.X/dist/default/production/c-bowler.X.a(Bowler_UART_HAL.o)
                0x9d00c9dc                U1_ISR

.text.configAdvancedAsync
                0x9d00cac8       0xe4
 .text.configAdvancedAsync
                0x9d00cac8       0xe4 build/default/production/_ext/805493626/Bcs_IO_AdvancedAsync.o
                0x9d00cac9                configAdvancedAsync

.text.process   0x9d00cbac       0xe4
 .text.process  0x9d00cbac       0xe4 ../../../../../c-bowler/firmware/library/NR-Clib/development/c-bowler.X/dist/default/production/c-bowler.X.a(Bowler_Server.o)
                0x9d00cbad                process

.text.USBStdGetStatusHandler
                0x9d00cc90       0xe4
 .text.USBStdGetStatusHandler
                0x9d00cc90       0xe4 ../../../../../c-bowler/firmware/library/NR-Clib/development/c-bowler.X/dist/default/production/c-bowler.X.a(usb_device.o)
                0x9d00cc91                USBStdGetStatusHandler

.text.USBCtrlTrfInHandler
                0x9d00cd74       0xe4
 .text.USBCtrlTrfInHandler
                0x9d00cd74       0xe4 ../../../../../c-bowler/firmware/library/NR-Clib/development/c-bowler.X/dist/default/production/c-bowler.X.a(usb_device.o)
                0x9d00cd75                USBCtrlTrfInHandler

.text.InitilizeBcsIo
                0x9d00ce58       0xe0
 .text.InitilizeBcsIo
                0x9d00ce58       0xe0 build/default/production/_ext/805493626/Abstract_bcs_io.o
                0x9d00ce59                InitilizeBcsIo

.text.CheckRev  0x9d00cf38       0xe0
 .text.CheckRev
                0x9d00cf38       0xe0 build/default/production/_ext/1978776677/DownStreamPackets.o
                0x9d00cf39                CheckRev

.text.WritePIDvalues
                0x9d00d018       0xe0
 .text.WritePIDvalues
                0x9d00d018       0xe0 build/default/production/_ext/990863823/EEPROMMannager.o
                0x9d00d019                WritePIDvalues

.text.USBCtrlTrfTxService
                0x9d00d0f8       0xdc
 .text.USBCtrlTrfTxService
                0x9d00d0f8       0xdc ../../../../../c-bowler/firmware/library/NR-Clib/development/c-bowler.X/dist/default/production/c-bowler.X.a(usb_device.o)
                0x9d00d0f9                USBCtrlTrfTxService

.text.StartPDVel
                0x9d00d1d4       0xdc
 .text.StartPDVel
                0x9d00d1d4       0xdc ../../../../../c-bowler/firmware/library/NR-Clib/development/c-bowler.X/dist/default/production/c-bowler.X.a(PidVelocity.o)
                0x9d00d1d5                StartPDVel

.text.USBStdGetDscHandler
                0x9d00d2b0       0xd8
 .text.USBStdGetDscHandler
                0x9d00d2b0       0xd8 ../../../../../c-bowler/firmware/library/NR-Clib/development/c-bowler.X/dist/default/production/c-bowler.X.a(usb_device.o)
                0x9d00d2b1                USBStdGetDscHandler

.text.pidReset  0x9d00d388       0xd4
 .text.pidReset
                0x9d00d388       0xd4 ../../../../../c-bowler/firmware/library/NR-Clib/development/c-bowler.X/dist/default/production/c-bowler.X.a(AbstractPID.o)
                0x9d00d389                pidReset

.text.USBTransferOnePacket
                0x9d00d45c       0xd4
 .text.USBTransferOnePacket
                0x9d00d45c       0xd4 ../../../../../c-bowler/firmware/library/NR-Clib/development/c-bowler.X/dist/default/production/c-bowler.X.a(usb_device.o)
                0x9d00d45d                USBTransferOnePacket

.text.SetChannelValueCoProc
                0x9d00d530       0xd0
 .text.SetChannelValueCoProc
                0x9d00d530       0xd0 build/default/production/_ext/1978776677/DownStreamPackets.o
                0x9d00d531                SetChannelValueCoProc

.text.SetEEPRomData
                0x9d00d600       0xd0
 .text.SetEEPRomData
                0x9d00d600       0xd0 build/default/production/_ext/1978776677/DownStreamPackets.o
                0x9d00d601                SetEEPRomData

.rodata         0x9d00d6d0       0xd0
 .rodata        0x9d00d6d0       0xd0 ../../../../../c-bowler/firmware/library/NR-Clib/development/c-bowler.X/dist/default/production/c-bowler.X.a(BowlerPacketParser.o)

.text.RunEvery  0x9d00d7a0       0xd0
 .text.RunEvery
                0x9d00d7a0       0xd0 ../../../../../c-bowler/firmware/library/NR-Clib/development/c-bowler.X/dist/default/production/c-bowler.X.a(Scheduler.o)
                0x9d00d7a1                RunEvery

.text.getBcsPidNamespace
                0x9d00d870       0xd0
 .text.getBcsPidNamespace
                0x9d00d870       0xd0 ../../../../../c-bowler/firmware/library/NR-Clib/development/c-bowler.X/dist/default/production/c-bowler.X.a(Namespace_bcs_pid.o)
                0x9d00d871                getBcsPidNamespace

.text.general_exception
                0x9d00d940       0xd0
 .text.general_exception
                0x9d00d940       0xd0 /home/opt/microchip/xc32/v1.00/bin/../lib/gcc/pic32mx/4.5.1/../../../../pic32mx/lib/libc.a(general-exception.o)
                0x9d00d940                _general_exception_context

.text.startPPM  0x9d00da10       0xcc
 .text.startPPM
                0x9d00da10       0xcc build/default/production/_ext/990863823/PPMReader.o
                0x9d00da11                startPPM

.text.runPPMEvent
                0x9d00dadc       0xc8
 .text.runPPMEvent
                0x9d00dadc       0xc8 build/default/production/_ext/990863823/PPMReader.o
                0x9d00dadd                runPPMEvent

.text.setPinsByGroup
                0x9d00dba4       0xc4
 .text.setPinsByGroup
                0x9d00dba4       0xc4 build/default/production/_ext/990863823/Counter.o
                0x9d00dba5                setPinsByGroup

.text.startHomingLink
                0x9d00dc68       0xc4
 .text.startHomingLink
                0x9d00dc68       0xc4 ../../../../../c-bowler/firmware/library/NR-Clib/development/c-bowler.X/dist/default/production/c-bowler.X.a(PidHysteresis.o)
                0x9d00dc69                startHomingLink

.text.UserInit  0x9d00dd2c       0xc0
 .text.UserInit
                0x9d00dd2c       0xc0 build/default/production/_ext/1978776677/InitializationCallbacks.o
                0x9d00dd2d                UserInit

.text.SetChanelValueFromPacket
                0x9d00ddec       0xbc
 .text.SetChanelValueFromPacket
                0x9d00ddec       0xbc build/default/production/_ext/805493626/Abstract_bcs_io.o
                0x9d00dded                SetChanelValueFromPacket

.text.setOutput
                0x9d00dea8       0xbc
 .text.setOutput
                0x9d00dea8       0xbc ../../../../../c-bowler/firmware/library/NR-Clib/development/c-bowler.X/dist/default/production/c-bowler.X.a(AbstractPID.o)
                0x9d00dea9                setOutput

.text.SetAllCoProcMode
                0x9d00df64       0xb8
 .text.SetAllCoProcMode
                0x9d00df64       0xb8 build/default/production/_ext/1978776677/DownStreamPackets.o
                0x9d00df65                SetAllCoProcMode

.text.SendPacketUARTCoProc
                0x9d00e01c       0xb4
 .text.SendPacketUARTCoProc
                0x9d00e01c       0xb4 build/default/production/_ext/990863823/CoProcCom.o
                0x9d00e01d                SendPacketUARTCoProc

.text._rpcArgs  0x9d00e0d0       0xb4
 .text._rpcArgs
                0x9d00e0d0       0xb4 ../../../../../c-bowler/firmware/library/NR-Clib/development/c-bowler.X/dist/default/production/c-bowler.X.a(Namespace_bcs_rpc.o)
                0x9d00e0d1                _rpcArgs

.text.LoadSerialTxData
                0x9d00e184       0xb0
 .text.LoadSerialTxData
                0x9d00e184       0xb0 build/default/production/_ext/990863823/DyIODataTableManager.o
                0x9d00e185                LoadSerialTxData

.text.InitAbsPIDWithPosition
                0x9d00e234       0xb0
 .text.InitAbsPIDWithPosition
                0x9d00e234       0xb0 ../../../../../c-bowler/firmware/library/NR-Clib/development/c-bowler.X/dist/default/production/c-bowler.X.a(AbstractPID.o)
                0x9d00e235                InitAbsPIDWithPosition

.text.get_bcsIoNamespace
                0x9d00e2e4       0xac
 .text.get_bcsIoNamespace
                0x9d00e2e4       0xac build/default/production/_ext/805493626/Namespace_bcs_io.o
                0x9d00e2e5                get_bcsIoNamespace

.text.SetAllChannelValueFromPacket
                0x9d00e390       0xac
 .text.SetAllChannelValueFromPacket
                0x9d00e390       0xac build/default/production/_ext/805493626/Abstract_bcs_io.o
                0x9d00e391                SetAllChannelValueFromPacket

.text.SetChannelMode
                0x9d00e43c       0xac
 .text.SetChannelMode
                0x9d00e43c       0xac build/default/production/_ext/1051272628/Abstract_bcs_io_setmode.o
                0x9d00e43d                SetChannelMode

.rodata         0x9d00e4e8       0xac
 .rodata        0x9d00e4e8       0xac build/default/production/_ext/1978776677/AsyncManager.o

.text.USBCtrlEPService
                0x9d00e594       0xac
 .text.USBCtrlEPService
                0x9d00e594       0xac ../../../../../c-bowler/firmware/library/NR-Clib/development/c-bowler.X/dist/default/production/c-bowler.X.a(usb_device.o)
                0x9d00e595                USBCtrlEPService

.text.USBStallEndpoint
                0x9d00e640       0xac
 .text.USBStallEndpoint
                0x9d00e640       0xac ../../../../../c-bowler/firmware/library/NR-Clib/development/c-bowler.X/dist/default/production/c-bowler.X.a(usb_device.o)
                0x9d00e641                USBStallEndpoint

.text.USBStdSetCfgHandler
                0x9d00e6ec       0xa8
 .text.USBStdSetCfgHandler
                0x9d00e6ec       0xa8 ../../../../../c-bowler/firmware/library/NR-Clib/development/c-bowler.X/dist/default/production/c-bowler.X.a(usb_device.o)
                0x9d00e6ed                USBStdSetCfgHandler

.text.getPositionMine
                0x9d00e794       0xa4
 .text.getPositionMine
                0x9d00e794       0xa4 build/default/production/_ext/1825615050/PID.o
                0x9d00e795                getPositionMine

.rodata         0x9d00e838       0xa4
 .rodata        0x9d00e838       0xa4 build/default/production/_ext/990863823/ADC.o

.text.SetCoProcMode
                0x9d00e8dc       0xa0
 .text.SetCoProcMode
                0x9d00e8dc       0xa0 build/default/production/_ext/1978776677/DownStreamPackets.o
                0x9d00e8dd                SetCoProcMode

.text.SetCounterOutput
                0x9d00e97c       0xa0
 .text.SetCounterOutput
                0x9d00e97c       0xa0 build/default/production/_ext/990863823/Counter.o
                0x9d00e97d                SetCounterOutput

.rodata         0x9d00ea1c      0x140
 .rodata        0x9d00ea1c       0xa0 ../../../../../c-bowler/firmware/library/NR-Clib/development/c-bowler.X/dist/default/production/c-bowler.X.a(Bowler_Server.o)
 .rodata        0x9d00eabc       0xa0 ../../../../../c-bowler/firmware/library/NR-Clib/development/c-bowler.X/dist/default/production/c-bowler.X.a(AbstractPID.o)

.text.USBDeviceAttach
                0x9d00eb5c       0xa0
 .text.USBDeviceAttach
                0x9d00eb5c       0xa0 ../../../../../c-bowler/firmware/library/NR-Clib/development/c-bowler.X/dist/default/production/c-bowler.X.a(usb_device.o)
                0x9d00eb5d                USBDeviceAttach

.text.Pic32_Bowler_HAL_Init
                0x9d00ebfc       0xa0
 .text.Pic32_Bowler_HAL_Init
                0x9d00ebfc       0xa0 ../../../../../c-bowler/firmware/library/NR-Clib/development/c-bowler.X/dist/default/production/c-bowler.X.a(HAL_P32.o)
                0x9d00ebfd                Pic32_Bowler_HAL_Init

.rodata         0x9d00ec9c       0xa0
 .rodata        0x9d00ec9c       0xa0 ../../../../../c-bowler/firmware/library/NR-Clib/development/c-bowler.X/dist/default/production/c-bowler.X.a(FlashStorage.o)

.text.updatePidAsync
                0x9d00ed3c       0xa0
 .text.updatePidAsync
                0x9d00ed3c       0xa0 ../../../../../c-bowler/firmware/library/NR-Clib/development/c-bowler.X/dist/default/production/c-bowler.X.a(PidAsync.o)
                0x9d00ed3d                updatePidAsync

.rodata         0x9d00eddc       0x9c
 .rodata        0x9d00eddc       0x9c build/default/production/_ext/990863823/Switches.o

.text.GetADC    0x9d00ee78       0x98
 .text.GetADC   0x9d00ee78       0x98 build/default/production/_ext/1978776677/DownStreamPackets.o
                0x9d00ee79                GetADC

.text.allign    0x9d00ef10       0x98
 .text.allign   0x9d00ef10       0x98 ../../../../../c-bowler/firmware/library/NR-Clib/development/c-bowler.X/dist/default/production/c-bowler.X.a(BowlerPacketParser.o)
                0x9d00ef11                allign

.text.Bowler_Server
                0x9d00efa8       0x98
 .text.Bowler_Server
                0x9d00efa8       0x98 ../../../../../c-bowler/firmware/library/NR-Clib/development/c-bowler.X/dist/default/production/c-bowler.X.a(Bowler_Server.o)
                0x9d00efa9                Bowler_Server

.rodata         0x9d00f040       0x94
 .rodata        0x9d00f040       0x94 build/default/production/_ext/1825615050/PID.o

.text.LoadEEstore
                0x9d00f0d4       0x94
 .text.LoadEEstore
                0x9d00f0d4       0x94 build/default/production/_ext/990863823/EEPROMMannager.o
                0x9d00f0d5                LoadEEstore

.text.StopSPI   0x9d00f168       0x94
 .text.StopSPI  0x9d00f168       0x94 build/default/production/_ext/990863823/SPI.o
                0x9d00f169                StopSPI

.rodata         0x9d00f1fc       0x90
 .rodata        0x9d00f1fc       0x90 build/default/production/_ext/805493626/Namespace_bcs_io.o

.text.populateGACV
                0x9d00f28c       0x90
 .text.populateGACV
                0x9d00f28c       0x90 build/default/production/_ext/805493626/Bcs_IO_AdvancedAsync.o
                0x9d00f28d                populateGACV

.text.GetPPMDataToPacket
                0x9d00f31c       0x90
 .text.GetPPMDataToPacket
                0x9d00f31c       0x90 build/default/production/_ext/990863823/PPMReader.o
                0x9d00f31d                GetPPMDataToPacket

.text._nms      0x9d00f3ac       0x90
 .text._nms     0x9d00f3ac       0x90 ../../../../../c-bowler/firmware/library/NR-Clib/development/c-bowler.X/dist/default/production/c-bowler.X.a(Namespace_bcs_core.o)
                0x9d00f3ad                _nms

.text.Timer1Handler
                0x9d00f43c       0x90
 .text.Timer1Handler
                0x9d00f43c       0x90 ../../../../../c-bowler/firmware/library/NR-Clib/development/c-bowler.X/dist/default/production/c-bowler.X.a(Tick.o)
                0x9d00f43c                Timer1Handler

.text.pushAllPIDPositions
                0x9d00f4cc       0x90
 .text.pushAllPIDPositions
                0x9d00f4cc       0x90 ../../../../../c-bowler/firmware/library/NR-Clib/development/c-bowler.X/dist/default/production/c-bowler.X.a(PidAsync.o)
                0x9d00f4cd                pushAllPIDPositions

.rodata         0x9d00f55c       0x90
 .rodata        0x9d00f55c       0x90 ../../../../../c-bowler/firmware/library/NR-Clib/development/c-bowler.X/dist/default/production/c-bowler.X.a(PidVelocity.o)

.text.GetConfigPDVelocity
                0x9d00f5ec       0x8c
 .text.GetConfigPDVelocity
                0x9d00f5ec       0x8c ../../../../../c-bowler/firmware/library/NR-Clib/development/c-bowler.X/dist/default/production/c-bowler.X.a(PidRpc.o)
                0x9d00f5ed                GetConfigPDVelocity

.text.channelToCounterGroup
                0x9d00f678       0x88
 .text.channelToCounterGroup
                0x9d00f678       0x88 build/default/production/_ext/990863823/Counter.o
                0x9d00f679                channelToCounterGroup

.text.SetChanVal
                0x9d00f700       0x88
 .text.SetChanVal
                0x9d00f700       0x88 build/default/production/_ext/1020318379/ChannelValues.o
                0x9d00f701                SetChanVal

.text.printByteArray
                0x9d00f788       0x88
 .text.printByteArray
                0x9d00f788       0x88 ../../../../../c-bowler/firmware/library/NR-Clib/development/c-bowler.X/dist/default/production/c-bowler.X.a(Debug.o)
                0x9d00f789                printByteArray

.text.waitForTxToBeFree
                0x9d00f810       0x88
 .text.waitForTxToBeFree
                0x9d00f810       0x88 ../../../../../c-bowler/firmware/library/NR-Clib/development/c-bowler.X/dist/default/production/c-bowler.X.a(usb_fifo.o)
                0x9d00f811                waitForTxToBeFree

.text.getAdcRaw
                0x9d00f898       0x88
 .text.getAdcRaw
                0x9d00f898       0x88 ../../../../../c-bowler/firmware/library/NR-Clib/development/c-bowler.X/dist/default/production/c-bowler.X.a(ADC.o)
                0x9d00f899                getAdcRaw

.text.configAdvancedAsyncTreshhold
                0x9d00f920       0x84
 .text.configAdvancedAsyncTreshhold
                0x9d00f920       0x84 build/default/production/_ext/805493626/Bcs_IO_AdvancedAsync.o
                0x9d00f921                configAdvancedAsyncTreshhold

.text.pushDummy
                0x9d00f9a4       0x84
 .text.pushDummy
                0x9d00f9a4       0x84 build/default/production/_ext/1978776677/UpstreamPackets.o
                0x9d00f9a5                pushDummy

.text.PushADCval
                0x9d00fa28       0x84
 .text.PushADCval
                0x9d00fa28       0x84 build/default/production/_ext/1978776677/UpstreamPackets.o
                0x9d00fa29                PushADCval

.text.GetSerialStream
                0x9d00faac       0x84
 .text.GetSerialStream
                0x9d00faac       0x84 build/default/production/_ext/1978776677/DownStreamPackets.o
                0x9d00faad                GetSerialStream

.text.GetLockCode
                0x9d00fb30       0x84
 .text.GetLockCode
                0x9d00fb30       0x84 build/default/production/_ext/1978776677/DownStreamPackets.o
                0x9d00fb31                GetLockCode

.text.GetName   0x9d00fbb4       0x84
 .text.GetName  0x9d00fbb4       0x84 build/default/production/_ext/1978776677/DownStreamPackets.o
                0x9d00fbb5                GetName

.text.IsRegulated
                0x9d00fc38       0x84
 .text.IsRegulated
                0x9d00fc38       0x84 build/default/production/_ext/990863823/Switches.o
                0x9d00fc39                IsRegulated

.rodata         0x9d00fcbc       0x84
 .rodata        0x9d00fcbc       0x84 ../../../../../c-bowler/firmware/library/NR-Clib/development/c-bowler.X/dist/default/production/c-bowler.X.a(FIFO.o)

.text.InitilizePidController
                0x9d00fd40       0x84
 .text.InitilizePidController
                0x9d00fd40       0x84 ../../../../../c-bowler/firmware/library/NR-Clib/development/c-bowler.X/dist/default/production/c-bowler.X.a(AbstractPID.o)
                0x9d00fd41                InitilizePidController

.text.USBCtrlTrfOutHandler
                0x9d00fdc4       0x84
 .text.USBCtrlTrfOutHandler
                0x9d00fdc4       0x84 ../../../../../c-bowler/firmware/library/NR-Clib/development/c-bowler.X/dist/default/production/c-bowler.X.a(usb_device.o)
                0x9d00fdc5                USBCtrlTrfOutHandler

.text.Pic32UARTSetBaud
                0x9d00fe48       0x84
 .text.Pic32UARTSetBaud
                0x9d00fe48       0x84 ../../../../../c-bowler/firmware/library/NR-Clib/development/c-bowler.X/dist/default/production/c-bowler.X.a(Bowler_UART_HAL.o)
                0x9d00fe49                Pic32UARTSetBaud

.text.ConfigPDVelovity
                0x9d00fecc       0x84
 .text.ConfigPDVelovity
                0x9d00fecc       0x84 ../../../../../c-bowler/firmware/library/NR-Clib/development/c-bowler.X/dist/default/production/c-bowler.X.a(PidRpc.o)
                0x9d00fecd                ConfigPDVelovity

.rodata         0x9d00ff50       0x80
 .rodata        0x9d00ff50       0x80 build/default/production/_ext/1051272628/Abstract_bcs_io_setmode.o

.text.PushCounterChange
                0x9d00ffd0       0x80
 .text.PushCounterChange
                0x9d00ffd0       0x80 build/default/production/_ext/1978776677/UpstreamPackets.o
                0x9d00ffd1                PushCounterChange

.text._rpc      0x9d010050       0x80
 .text._rpc     0x9d010050       0x80 ../../../../../c-bowler/firmware/library/NR-Clib/development/c-bowler.X/dist/default/production/c-bowler.X.a(Namespace_bcs_rpc.o)
                0x9d010051                _rpc

.rodata         0x9d0100d0       0x80
 .rodata        0x9d0100d0       0x80 /home/opt/microchip/xc32/v1.00/bin/../lib/gcc/pic32mx/4.5.1/../../../../pic32mx/lib/libmchp_peripheral_32MX440F128H.a(spi_brg_tbl_lib_legacy.o)
                0x9d0100d0                _SpiBrgConvTbl

.text.UARTEnable
                0x9d010150       0x80
 .text.UARTEnable
                0x9d010150       0x80 /home/opt/microchip/xc32/v1.00/bin/../lib/gcc/pic32mx/4.5.1/../../../../pic32mx/lib/libmchp_peripheral_32MX440F128H.a(uart_lib.o)
                0x9d010150                UARTEnable

.text.GetAllChanelValueFromPacket
                0x9d0101d0       0x7c
 .text.GetAllChanelValueFromPacket
                0x9d0101d0       0x7c build/default/production/_ext/805493626/Abstract_bcs_io.o
                0x9d0101d1                GetAllChanelValueFromPacket

.text.DownstreamPowerChange
                0x9d01024c       0x7c
 .text.DownstreamPowerChange
                0x9d01024c       0x7c build/default/production/_ext/1978776677/DownStreamPackets.o
                0x9d01024d                DownstreamPowerChange

.rodata         0x9d0102c8       0x7c
 .rodata        0x9d0102c8       0x7c build/default/production/_ext/990863823/SPI.o

.text.FifoAddPacket
                0x9d010344       0x7c
 .text.FifoAddPacket
                0x9d010344       0x7c ../../../../../c-bowler/firmware/library/NR-Clib/development/c-bowler.X/dist/default/production/c-bowler.X.a(FIFO.o)
                0x9d010345                FifoAddPacket

.text.calcCenter
                0x9d0103c0       0x7c
 .text.calcCenter
                0x9d0103c0       0x7c ../../../../../c-bowler/firmware/library/NR-Clib/development/c-bowler.X/dist/default/production/c-bowler.X.a(PidHysteresis.o)
                0x9d0103c1                calcCenter

.text.getsUSBUSART
                0x9d01043c       0x7c
 .text.getsUSBUSART
                0x9d01043c       0x7c ../../../../../c-bowler/firmware/library/NR-Clib/development/c-bowler.X/dist/default/production/c-bowler.X.a(usb_function_cdc.o)
                0x9d01043d                getsUSBUSART

.text.bcsIoAsyncEventCallback
                0x9d0104b8       0x78
 .text.bcsIoAsyncEventCallback
                0x9d0104b8       0x78 build/default/production/_ext/805493626/Namespace_bcs_io.o
                0x9d0104b9                bcsIoAsyncEventCallback

.text.printValues
                0x9d010530       0x78
 .text.printValues
                0x9d010530       0x78 build/default/production/_ext/805493626/Abstract_bcs_io.o
                0x9d010531                printValues

.text.configAdvancedAsyncDeadBand
                0x9d0105a8       0x78
 .text.configAdvancedAsyncDeadBand
                0x9d0105a8       0x78 build/default/production/_ext/805493626/Bcs_IO_AdvancedAsync.o
                0x9d0105a9                configAdvancedAsyncDeadBand

.text.PushDIval
                0x9d010620       0x78
 .text.PushDIval
                0x9d010620       0x78 build/default/production/_ext/1978776677/UpstreamPackets.o
                0x9d010621                PushDIval

.text.GetChannelValueCoProc
                0x9d010698       0x78
 .text.GetChannelValueCoProc
                0x9d010698       0x78 build/default/production/_ext/1978776677/DownStreamPackets.o
                0x9d010699                GetChannelValueCoProc

.text.SetName   0x9d010710       0x78
 .text.SetName  0x9d010710       0x78 build/default/production/_ext/1978776677/DownStreamPackets.o
                0x9d010711                SetName

.text.SetLockCode
                0x9d010788       0x78
 .text.SetLockCode
                0x9d010788       0x78 build/default/production/_ext/1978776677/DownStreamPackets.o
                0x9d010789                SetLockCode

.text.initCoProcCom
                0x9d010800       0x78
 .text.initCoProcCom
                0x9d010800       0x78 build/default/production/_ext/990863823/CoProcCom.o
                0x9d010801                initCoProcCom

.text.configPin23Int
                0x9d010878       0x78
 .text.configPin23Int
                0x9d010878       0x78 build/default/production/_ext/990863823/Counter.o
                0x9d010879                configPin23Int

.text.SetAllChanelValueHW
                0x9d0108f0       0x78
 .text.SetAllChanelValueHW
                0x9d0108f0       0x78 build/default/production/_ext/1020318379/ChannelValues.o
                0x9d0108f1                SetAllChanelValueHW

.text.FifoAddByte
                0x9d010968       0x78
 .text.FifoAddByte
                0x9d010968       0x78 ../../../../../c-bowler/firmware/library/NR-Clib/development/c-bowler.X/dist/default/production/c-bowler.X.a(FIFO.o)
                0x9d010969                FifoAddByte

.text.SoftReset
                0x9d0109e0       0x78
 .text.SoftReset
                0x9d0109e0       0x78 /home/opt/microchip/xc32/v1.00/bin/../lib/gcc/pic32mx/4.5.1/../../../../pic32mx/lib/libmchp_peripheral_32MX440F128H.a(soft_reset_lib.o)
                0x9d0109e0                SoftReset

.text.POWER     0x9d010a58       0x74
 .text.POWER    0x9d010a58       0x74 build/default/production/_ext/1978776677/UpstreamPackets.o
                0x9d010a59                POWER

.text.InitSPI   0x9d010acc       0x74
 .text.InitSPI  0x9d010acc       0x74 build/default/production/_ext/990863823/SPI.o
                0x9d010acd                InitSPI

.text.GetAllChanelValueHW
                0x9d010b40       0x74
 .text.GetAllChanelValueHW
                0x9d010b40       0x74 build/default/production/_ext/1020318379/ChannelValues.o
                0x9d010b41                GetAllChanelValueHW

.text.printFiFoState
                0x9d010bb4       0x74
 .text.printFiFoState
                0x9d010bb4       0x74 ../../../../../c-bowler/firmware/library/NR-Clib/development/c-bowler.X/dist/default/production/c-bowler.X.a(FIFO.o)
                0x9d010bb5                printFiFoState

.text.usb_Buffer_Update
                0x9d010c28       0x74
 .text.usb_Buffer_Update
                0x9d010c28       0x74 ../../../../../c-bowler/firmware/library/NR-Clib/development/c-bowler.X/dist/default/production/c-bowler.X.a(usb_fifo.o)
                0x9d010c29                usb_Buffer_Update

.text.GetChanelValueFromPacket
                0x9d010c9c       0x70
 .text.GetChanelValueFromPacket
                0x9d010c9c       0x70 build/default/production/_ext/805493626/Abstract_bcs_io.o
                0x9d010c9d                GetChanelValueFromPacket

.text.initCoProcUART
                0x9d010d0c       0x70
 .text.initCoProcUART
                0x9d010d0c       0x70 build/default/production/_ext/990863823/CoProcCom.o
                0x9d010d0d                initCoProcUART

.text.InitCounterPins
                0x9d010d7c       0x70
 .text.InitCounterPins
                0x9d010d7c       0x70 build/default/production/_ext/990863823/Counter.o
                0x9d010d7d                InitCounterPins

.text.printfDEBUG_FL
                0x9d010dec       0x70
 .text.printfDEBUG_FL
                0x9d010dec       0x70 ../../../../../c-bowler/firmware/library/NR-Clib/development/c-bowler.X/dist/default/production/c-bowler.X.a(Debug.o)
                0x9d010ded                printfDEBUG_FL

.text.USBPrepareForNextSetupTrf
                0x9d010e5c       0x70
 .text.USBPrepareForNextSetupTrf
                0x9d010e5c       0x70 ../../../../../c-bowler/firmware/library/NR-Clib/development/c-bowler.X/dist/default/production/c-bowler.X.a(usb_device.o)
                0x9d010e5d                USBPrepareForNextSetupTrf

.text.printAsyncType
                0x9d010ecc       0x6c
 .text.printAsyncType
                0x9d010ecc       0x6c build/default/production/_ext/805493626/Bcs_IO_AdvancedAsync.o
                0x9d010ecd                printAsyncType

.text.PushAllAsync
                0x9d010f38       0x6c
 .text.PushAllAsync
                0x9d010f38       0x6c build/default/production/_ext/1978776677/UpstreamPackets.o
                0x9d010f39                PushAllAsync

.text.setPIDConstants
                0x9d010fa4       0x6c
 .text.setPIDConstants
                0x9d010fa4       0x6c ../../../../../c-bowler/firmware/library/NR-Clib/development/c-bowler.X/dist/default/production/c-bowler.X.a(AbstractPID.o)
                0x9d010fa5                setPIDConstants

.text.printModes
                0x9d011010       0x68
 .text.printModes
                0x9d011010       0x68 build/default/production/_ext/805493626/Abstract_bcs_io.o
                0x9d011011                printModes

.text.Get_HAL_Byte_Count
                0x9d011078       0x68
 .text.Get_HAL_Byte_Count
                0x9d011078       0x68 ../../../../../c-bowler/firmware/library/NR-Clib/development/c-bowler.X/dist/default/production/c-bowler.X.a(HAL_P32.o)
                0x9d011079                Get_HAL_Byte_Count

.text.USBStallHandler
                0x9d0110e0       0x64
 .text.USBStallHandler
                0x9d0110e0       0x64 ../../../../../c-bowler/firmware/library/NR-Clib/development/c-bowler.X/dist/default/production/c-bowler.X.a(usb_device.o)
                0x9d0110e1                USBStallHandler

.text.checkCalibration
                0x9d011144       0x64
 .text.checkCalibration
                0x9d011144       0x64 ../../../../../c-bowler/firmware/library/NR-Clib/development/c-bowler.X/dist/default/production/c-bowler.X.a(PidHysteresis.o)
                0x9d011145                checkCalibration

.text.isPIDArrivedAtSetpoint
                0x9d0111a8       0x60
 .text.isPIDArrivedAtSetpoint
                0x9d0111a8       0x60 ../../../../../c-bowler/firmware/library/NR-Clib/development/c-bowler.X/dist/default/production/c-bowler.X.a(AbstractPID.o)
                0x9d0111a9                isPIDArrivedAtSetpoint

.text.TickInit  0x9d011208       0x60
 .text.TickInit
                0x9d011208       0x60 ../../../../../c-bowler/firmware/library/NR-Clib/development/c-bowler.X/dist/default/production/c-bowler.X.a(Tick.o)
                0x9d011209                TickInit

.text.putrsUSBUSART
                0x9d011268       0x60
 .text.putrsUSBUSART
                0x9d011268       0x60 ../../../../../c-bowler/firmware/library/NR-Clib/development/c-bowler.X/dist/default/production/c-bowler.X.a(usb_function_cdc.o)
                0x9d011269                putrsUSBUSART

.text.OpenSPI2  0x9d0112c8       0x60
 .text.OpenSPI2
                0x9d0112c8       0x60 /home/opt/microchip/xc32/v1.00/bin/../lib/gcc/pic32mx/4.5.1/../../../../pic32mx/lib/libmchp_peripheral_32MX440F128H.a(spi_open_spi2_lib_legacy.o)
                0x9d0112c8                OpenSPI2

.text.resetPositionMine
                0x9d011328       0x5c
 .text.resetPositionMine
                0x9d011328       0x5c build/default/production/_ext/1825615050/PID.o
                0x9d011329                resetPositionMine

.text.ConfigureChannelHW
                0x9d011384       0x5c
 .text.ConfigureChannelHW
                0x9d011384       0x5c build/default/production/_ext/1020318379/ChannelValues.o
                0x9d011385                ConfigureChannelHW

.text.get_neuronRoboticsDyIONamespace
                0x9d0113e0       0x5c
 .text.get_neuronRoboticsDyIONamespace
                0x9d0113e0       0x5c build/default/production/_ext/321196743/Namespace_neuronrobotics_dyio.o
                0x9d0113e1                get_neuronRoboticsDyIONamespace

.text.bcsPidDypidProcessor_c
                0x9d01143c       0x5c
 .text.bcsPidDypidProcessor_c
                0x9d01143c       0x5c build/default/production/_ext/321196743/Namespace_bcs_pid_dypid.o
                0x9d01143d                bcsPidDypidProcessor_c

.text.buttonCheck
                0x9d011498       0x5c
 .text.buttonCheck
                0x9d011498       0x5c build/default/production/_ext/1360937237/DyIOMain.o
                0x9d011499                buttonCheck

.text.putsUSBUSART
                0x9d0114f4       0x5c
 .text.putsUSBUSART
                0x9d0114f4       0x5c ../../../../../c-bowler/firmware/library/NR-Clib/development/c-bowler.X/dist/default/production/c-bowler.X.a(usb_function_cdc.o)
                0x9d0114f5                putsUSBUSART

.text.UARTSetDataRate
                0x9d011550       0x5c
 .text.UARTSetDataRate
                0x9d011550       0x5c /home/opt/microchip/xc32/v1.00/bin/../lib/gcc/pic32mx/4.5.1/../../../../pic32mx/lib/libmchp_peripheral_32MX440F128H.a(uart_lib.o)
                0x9d011550                UARTSetDataRate

.text.configAdvancedAsyncNotEqual
                0x9d0115ac       0x58
 .text.configAdvancedAsyncNotEqual
                0x9d0115ac       0x58 build/default/production/_ext/805493626/Bcs_IO_AdvancedAsync.o
                0x9d0115ad                configAdvancedAsyncNotEqual

.text.configAdvancedAsyncAutoSample
                0x9d011604       0x58
 .text.configAdvancedAsyncAutoSample
                0x9d011604       0x58 build/default/production/_ext/805493626/Bcs_IO_AdvancedAsync.o
                0x9d011605                configAdvancedAsyncAutoSample

.text.GetDigitalValFromAsync
                0x9d01165c       0x58
 .text.GetDigitalValFromAsync
                0x9d01165c       0x58 build/default/production/_ext/805493626/Bcs_IO_AdvancedAsync.o
                0x9d01165d                GetDigitalValFromAsync

.text.LoadDefaultValues
                0x9d0116b4       0x58
 .text.LoadDefaultValues
                0x9d0116b4       0x58 build/default/production/_ext/1978776677/DownStreamPackets.o
                0x9d0116b5                LoadDefaultValues

.text.PushCoProcAsync
                0x9d01170c       0x58
 .text.PushCoProcAsync
                0x9d01170c       0x58 build/default/production/_ext/990863823/CoProcCom.o
                0x9d01170d                PushCoProcAsync

.rodata         0x9d011764       0x58
 .rodata        0x9d011764       0x58 build/default/production/_ext/990863823/Counter.o

.text.printfDEBUG_INT
                0x9d0117bc       0x58
 .text.printfDEBUG_INT
                0x9d0117bc       0x58 ../../../../../c-bowler/firmware/library/NR-Clib/development/c-bowler.X/dist/default/production/c-bowler.X.a(Debug.o)
                0x9d0117bd                printfDEBUG_INT

.text.FifoGetByteStream
                0x9d011814       0x58
 .text.FifoGetByteStream
                0x9d011814       0x58 ../../../../../c-bowler/firmware/library/NR-Clib/development/c-bowler.X/dist/default/production/c-bowler.X.a(FIFO.o)
                0x9d011815                FifoGetByteStream

.rodata         0x9d01186c       0x58
 .rodata        0x9d01186c       0x58 ../../../../../c-bowler/firmware/library/NR-Clib/development/c-bowler.X/dist/default/production/c-bowler.X.a(Bowler_Helper.o)

.text.USBCtrlTrfSetupHandler
                0x9d0118c4       0x58
 .text.USBCtrlTrfSetupHandler
                0x9d0118c4       0x58 ../../../../../c-bowler/firmware/library/NR-Clib/development/c-bowler.X/dist/default/production/c-bowler.X.a(usb_device.o)
                0x9d0118c5                USBCtrlTrfSetupHandler

.text.CDCInitEP
                0x9d01191c       0x58
 .text.CDCInitEP
                0x9d01191c       0x58 ../../../../../c-bowler/firmware/library/NR-Clib/development/c-bowler.X/dist/default/production/c-bowler.X.a(usb_function_cdc.o)
                0x9d01191d                CDCInitEP

.text.INTEnable
                0x9d011974       0x58
 .text.INTEnable
                0x9d011974       0x58 /home/opt/microchip/xc32/v1.00/bin/../lib/gcc/pic32mx/4.5.1/../../../../pic32mx/lib/libmchp_peripheral_32MX440F128H.a(int_tbl_lib.o)
                0x9d011974                INTEnable

.text.ConfigDyPID
                0x9d0119cc       0x54
 .text.ConfigDyPID
                0x9d0119cc       0x54 build/default/production/_ext/1825615050/PID.o
                0x9d0119cd                ConfigDyPID

.text.InitPinStates
                0x9d011a20       0x54
 .text.InitPinStates
                0x9d011a20       0x54 build/default/production/_ext/1020318379/ChannelMode.o
                0x9d011a21                InitPinStates

.rodata         0x9d011a74       0x54
 .rodata        0x9d011a74       0x54 build/default/production/_ext/1360937237/DyIOMain.o

.text.GetPICUSBFifo
                0x9d011ac8       0x54
 .text.GetPICUSBFifo
                0x9d011ac8       0x54 ../../../../../c-bowler/firmware/library/NR-Clib/development/c-bowler.X/dist/default/production/c-bowler.X.a(usb_fifo.o)
                0x9d011ac9                GetPICUSBFifo

.text.USBConfigureEndpoint
                0x9d011b1c       0x54
 .text.USBConfigureEndpoint
                0x9d011b1c       0x54 ../../../../../c-bowler/firmware/library/NR-Clib/development/c-bowler.X/dist/default/production/c-bowler.X.a(usb_device.o)
                0x9d011b1d                USBConfigureEndpoint

.text.Get_HAL_Packet
                0x9d011b70       0x54
 .text.Get_HAL_Packet
                0x9d011b70       0x54 ../../../../../c-bowler/firmware/library/NR-Clib/development/c-bowler.X/dist/default/production/c-bowler.X.a(HAL_P32.o)
                0x9d011b71                Get_HAL_Packet

.text.getFunctionList
                0x9d011bc4       0x50
 .text.getFunctionList
                0x9d011bc4       0x50 build/default/production/_ext/805493626/Abstract_bcs_io.o
                0x9d011bc5                getFunctionList

.text.UpstreamPushPowerChange
                0x9d011c14       0x50
 .text.UpstreamPushPowerChange
                0x9d011c14       0x50 build/default/production/_ext/1978776677/UpstreamPackets.o
                0x9d011c15                UpstreamPushPowerChange

.text.setCoProcBrownOutMode
                0x9d011c64       0x50
 .text.setCoProcBrownOutMode
                0x9d011c64       0x50 build/default/production/_ext/1978776677/DownStreamPackets.o
                0x9d011c65                setCoProcBrownOutMode

.rodata         0x9d011cb4       0x50
 .rodata        0x9d011cb4       0x50 build/default/production/_ext/1020318379/Pin_State.o

.text.bcsSafeProcessor_p
                0x9d011d04       0x50
 .text.bcsSafeProcessor_p
                0x9d011d04       0x50 build/default/production/_ext/1281821416/Namespace_bcs_safe.o
                0x9d011d05                bcsSafeProcessor_p

.text.bcsSafeProcessor_g
                0x9d011d54       0x50
 .text.bcsSafeProcessor_g
                0x9d011d54       0x50 build/default/production/_ext/1281821416/Namespace_bcs_safe.o
                0x9d011d55                bcsSafeProcessor_g

.text.FifoReadByteStream
                0x9d011da4       0x50
 .text.FifoReadByteStream
                0x9d011da4       0x50 ../../../../../c-bowler/firmware/library/NR-Clib/development/c-bowler.X/dist/default/production/c-bowler.X.a(FIFO.o)
                0x9d011da5                FifoReadByteStream

.text.SetPICUSBFifo
                0x9d011df4       0x50
 .text.SetPICUSBFifo
                0x9d011df4       0x50 ../../../../../c-bowler/firmware/library/NR-Clib/development/c-bowler.X/dist/default/production/c-bowler.X.a(usb_fifo.o)
                0x9d011df5                SetPICUSBFifo

.text.usb_CDC_Serial_Init
                0x9d011e44       0x50
 .text.usb_CDC_Serial_Init
                0x9d011e44       0x50 ../../../../../c-bowler/firmware/library/NR-Clib/development/c-bowler.X/dist/default/production/c-bowler.X.a(usb_fifo.o)
                0x9d011e45                usb_CDC_Serial_Init

.text.FlashLoad
                0x9d011e94       0x50
 .text.FlashLoad
                0x9d011e94       0x50 ../../../../../c-bowler/firmware/library/NR-Clib/development/c-bowler.X/dist/default/production/c-bowler.X.a(FlashStorage.o)
                0x9d011e95                FlashLoad

.text.putUSBUSART
                0x9d011ee4       0x50
 .text.putUSBUSART
                0x9d011ee4       0x50 ../../../../../c-bowler/firmware/library/NR-Clib/development/c-bowler.X/dist/default/production/c-bowler.X.a(usb_function_cdc.o)
                0x9d011ee5                putUSBUSART

.text.GetChannelMode
                0x9d011f34       0x4c
 .text.GetChannelMode
                0x9d011f34       0x4c build/default/production/_ext/805493626/Abstract_bcs_io.o
                0x9d011f35                GetChannelMode

.text.clearPPM  0x9d011f80       0x4c
 .text.clearPPM
                0x9d011f80       0x4c build/default/production/_ext/990863823/PPMReader.o
                0x9d011f81                clearPPM

.text.MyServer  0x9d011fcc       0x4c
 .text.MyServer
                0x9d011fcc       0x4c build/default/production/_ext/1360937237/DyIOMain.o
                0x9d011fcd                MyServer

.text.ultoaMINE
                0x9d012018       0x4c
 .text.ultoaMINE
                0x9d012018       0x4c ../../../../../c-bowler/firmware/library/NR-Clib/development/c-bowler.X/dist/default/production/c-bowler.X.a(Debug.o)
                0x9d012019                ultoaMINE

.text.USBGetArray
                0x9d012064       0x4c
 .text.USBGetArray
                0x9d012064       0x4c ../../../../../c-bowler/firmware/library/NR-Clib/development/c-bowler.X/dist/default/production/c-bowler.X.a(usb_fifo.o)
                0x9d012065                USBGetArray

.text.AbstractSetChannelMode
                0x9d0120b0       0x48
 .text.AbstractSetChannelMode
                0x9d0120b0       0x48 build/default/production/_ext/1051272628/Abstract_bcs_io_setmode.o
                0x9d0120b1                AbstractSetChannelMode

.rodata         0x9d0120f8       0x90
 .rodata        0x9d0120f8       0x48 build/default/production/_ext/990863823/AVRInterface.o
 .rodata        0x9d012140       0x48 build/default/production/_ext/990863823/EEPROMMannager.o

.text.runDyIOMain
                0x9d012188       0x48
 .text.runDyIOMain
                0x9d012188       0x48 build/default/production/_ext/1360937237/DyIOMain.o
                0x9d012189                runDyIOMain

.text.READY     0x9d0121d0       0x48
 .text.READY    0x9d0121d0       0x48 ../../../../../c-bowler/firmware/library/NR-Clib/development/c-bowler.X/dist/default/production/c-bowler.X.a(Bowler_Helper.o)
                0x9d0121d1                READY

.text.ERR       0x9d012218       0x48
 .text.ERR      0x9d012218       0x48 ../../../../../c-bowler/firmware/library/NR-Clib/development/c-bowler.X/dist/default/production/c-bowler.X.a(Bowler_Helper.o)
                0x9d012219                ERR

.rodata         0x9d012260       0x48
 .rodata        0x9d012260       0x48 ../../../../../c-bowler/firmware/library/NR-Clib/development/c-bowler.X/dist/default/production/c-bowler.X.a(Namespace_bcs_pid.o)

.text.incrementHistoresis
                0x9d0122a8       0x48
 .text.incrementHistoresis
                0x9d0122a8       0x48 ../../../../../c-bowler/firmware/library/NR-Clib/development/c-bowler.X/dist/default/production/c-bowler.X.a(PidHysteresis.o)
                0x9d0122a9                incrementHistoresis

.text.decrementHistoresis
                0x9d0122f0       0x48
 .text.decrementHistoresis
                0x9d0122f0       0x48 ../../../../../c-bowler/firmware/library/NR-Clib/development/c-bowler.X/dist/default/production/c-bowler.X.a(PidHysteresis.o)
                0x9d0122f1                decrementHistoresis

.text           0x9d012338       0x48
 .text          0x9d012338       0x48 /home/opt/microchip/xc32/v1.00/bin/../lib/gcc/pic32mx/4.5.1/libgcc.a(floatunsisf.o)
                0x9d012338                __floatunsisf

.rodata         0x9d012380       0x48
 .rodata        0x9d012380       0x48 /home/opt/microchip/xc32/v1.00/bin/../lib/gcc/pic32mx/4.5.1/../../../../pic32mx/lib/libmchp_peripheral_32MX440F128H.a(_ports_tbl_libp.o)
                0x9d012380                PortRegTbl

.text.printMode
                0x9d0123c8       0x44
 .text.printMode
                0x9d0123c8       0x44 build/default/production/_ext/805493626/Debug_DyIO.o
                0x9d0123c9                printMode

.text.GetAllChannelModeFromPacket
                0x9d01240c       0x44
 .text.GetAllChannelModeFromPacket
                0x9d01240c       0x44 build/default/production/_ext/805493626/Abstract_bcs_io.o
                0x9d01240d                GetAllChannelModeFromPacket

.text.initAdvancedAsync
                0x9d012450       0x44
 .text.initAdvancedAsync
                0x9d012450       0x44 build/default/production/_ext/805493626/Bcs_IO_AdvancedAsync.o
                0x9d012451                initAdvancedAsync

.text.LoadGACM  0x9d012494       0x44
 .text.LoadGACM
                0x9d012494       0x44 build/default/production/_ext/1978776677/DownStreamPackets.o
                0x9d012495                LoadGACM

.text.SyncModes
                0x9d0124d8       0x44
 .text.SyncModes
                0x9d0124d8       0x44 build/default/production/_ext/1978776677/DownStreamPackets.o
                0x9d0124d9                SyncModes

.text.getDyIOVoltage
                0x9d01251c       0x44
 .text.getDyIOVoltage
                0x9d01251c       0x44 build/default/production/_ext/990863823/ADC.o
                0x9d01251d                getDyIOVoltage

.text.SendPacketToSPI
                0x9d012560       0x44
 .text.SendPacketToSPI
                0x9d012560       0x44 build/default/production/_ext/990863823/SPI.o
                0x9d012561                SendPacketToSPI

.text.GetPPMDataToArray
                0x9d0125a4       0x44
 .text.GetPPMDataToArray
                0x9d0125a4       0x44 build/default/production/_ext/990863823/PPMReader.o
                0x9d0125a5                GetPPMDataToArray

.text.addRpcToNamespace
                0x9d0125e8       0x44
 .text.addRpcToNamespace
                0x9d0125e8       0x44 ../../../../../c-bowler/firmware/library/NR-Clib/development/c-bowler.X/dist/default/production/c-bowler.X.a(Namespace_bcs_core.o)
                0x9d0125e9                addRpcToNamespace

.text.LoadCorePacket
                0x9d01262c       0x44
 .text.LoadCorePacket
                0x9d01262c       0x44 ../../../../../c-bowler/firmware/library/NR-Clib/development/c-bowler.X/dist/default/production/c-bowler.X.a(Bowler_Helper.o)
                0x9d01262d                LoadCorePacket

.text.flush     0x9d012670       0x44
 .text.flush    0x9d012670       0x44 ../../../../../c-bowler/firmware/library/NR-Clib/development/c-bowler.X/dist/default/production/c-bowler.X.a(usb_fifo.o)
                0x9d012671                flush

.text.InitLEDS  0x9d0126b4       0x44
 .text.InitLEDS
                0x9d0126b4       0x44 ../../../../../c-bowler/firmware/library/NR-Clib/development/c-bowler.X/dist/default/production/c-bowler.X.a(LED.o)
                0x9d0126b5                InitLEDS

.text.GetBowlerPacket_arch
                0x9d0126f8       0x44
 .text.GetBowlerPacket_arch
                0x9d0126f8       0x44 ../../../../../c-bowler/firmware/library/NR-Clib/development/c-bowler.X/dist/default/production/c-bowler.X.a(HAL_P32.o)
                0x9d0126f9                GetBowlerPacket_arch

.text.FlashGetMac
                0x9d01273c       0x44
 .text.FlashGetMac
                0x9d01273c       0x44 ../../../../../c-bowler/firmware/library/NR-Clib/development/c-bowler.X/dist/default/production/c-bowler.X.a(FlashStorage.o)
                0x9d01273d                FlashGetMac

.rodata         0x9d012780       0x44
 .rodata        0x9d012780       0x44 ../../../../../c-bowler/firmware/library/NR-Clib/development/c-bowler.X/dist/default/production/c-bowler.X.a(usb_function_cdc.o)

.text.printConfigurations
                0x9d0127c4       0x40
 .text.printConfigurations
                0x9d0127c4       0x40 build/default/production/_ext/805493626/Abstract_bcs_io.o
                0x9d0127c5                printConfigurations

.text.pushPPMPacket
                0x9d012804       0x40
 .text.pushPPMPacket
                0x9d012804       0x40 build/default/production/_ext/1978776677/UpstreamPackets.o
                0x9d012805                pushPPMPacket

.text.dealWithAsyncPacket
                0x9d012844       0x40
 .text.dealWithAsyncPacket
                0x9d012844       0x40 build/default/production/_ext/1978776677/AsyncManager.o
                0x9d012845                dealWithAsyncPacket

.text.addNamespaceToList
                0x9d012884       0x40
 .text.addNamespaceToList
                0x9d012884       0x40 ../../../../../c-bowler/firmware/library/NR-Clib/development/c-bowler.X/dist/default/production/c-bowler.X.a(Namespace_bcs_core.o)
                0x9d012885                addNamespaceToList

.text.FifoGetPacket
                0x9d0128c4       0x40
 .text.FifoGetPacket
                0x9d0128c4       0x40 ../../../../../c-bowler/firmware/library/NR-Clib/development/c-bowler.X/dist/default/production/c-bowler.X.a(FIFO.o)
                0x9d0128c5                FifoGetPacket

.text.PORTSetPinsDigitalOut
                0x9d012904       0x40
 .text.PORTSetPinsDigitalOut
                0x9d012904       0x40 /home/opt/microchip/xc32/v1.00/bin/../lib/gcc/pic32mx/4.5.1/../../../../pic32mx/lib/libmchp_peripheral_32MX440F128H.a(port_set_pins_digital_out_lib.o)
                0x9d012904                PORTSetPinsDigitalOut

.text.UARTGetDataRate
                0x9d012944       0x40
 .text.UARTGetDataRate
                0x9d012944       0x40 /home/opt/microchip/xc32/v1.00/bin/../lib/gcc/pic32mx/4.5.1/../../../../pic32mx/lib/libmchp_peripheral_32MX440F128H.a(uart_lib.o)
                0x9d012944                UARTGetDataRate

.text.IsAsync   0x9d012984       0x3c
 .text.IsAsync  0x9d012984       0x3c build/default/production/_ext/805493626/Bcs_IO_AdvancedAsync.o
                0x9d012985                IsAsync

.text.setAsync  0x9d0129c0       0x3c
 .text.setAsync
                0x9d0129c0       0x3c build/default/production/_ext/805493626/Bcs_IO_AdvancedAsync.o
                0x9d0129c1                setAsync

.text.isAnalog  0x9d0129fc       0x3c
 .text.isAnalog
                0x9d0129fc       0x3c build/default/production/_ext/1978776677/AsyncManager.o
                0x9d0129fd                isAnalog

.rodata         0x9d012a38       0x3c
 .rodata        0x9d012a38       0x3c build/default/production/_ext/321196743/Namespace_neuronrobotics_dyio.o

.text.setColor  0x9d012a74       0x3c
 .text.setColor
                0x9d012a74       0x3c ../../../../../c-bowler/firmware/library/NR-Clib/development/c-bowler.X/dist/default/production/c-bowler.X.a(Debug.o)
                0x9d012a75                setColor

.text.getByte   0x9d012ab0       0x3c
 .text.getByte  0x9d012ab0       0x3c ../../../../../c-bowler/firmware/library/NR-Clib/development/c-bowler.X/dist/default/production/c-bowler.X.a(FIFO.o)
                0x9d012ab1                getByte

.text.bound     0x9d012aec       0x3c
 .text.bound    0x9d012aec       0x3c ../../../../../c-bowler/firmware/library/NR-Clib/development/c-bowler.X/dist/default/production/c-bowler.X.a(Bowler_Helper.o)
                0x9d012aed                bound

.text.isPIDInterpolating
                0x9d012b28       0x3c
 .text.isPIDInterpolating
                0x9d012b28       0x3c ../../../../../c-bowler/firmware/library/NR-Clib/development/c-bowler.X/dist/default/production/c-bowler.X.a(AbstractPID.o)
                0x9d012b29                isPIDInterpolating

.text.TickGetMS
                0x9d012b64       0x3c
 .text.TickGetMS
                0x9d012b64       0x3c ../../../../../c-bowler/firmware/library/NR-Clib/development/c-bowler.X/dist/default/production/c-bowler.X.a(Tick.o)
                0x9d012b65                TickGetMS

.text.Write32UART2
                0x9d012ba0       0x3c
 .text.Write32UART2
                0x9d012ba0       0x3c ../../../../../c-bowler/firmware/library/NR-Clib/development/c-bowler.X/dist/default/production/c-bowler.X.a(UART.o)
                0x9d012ba1                Write32UART2

.text.Write32UART1
                0x9d012bdc       0x3c
 .text.Write32UART1
                0x9d012bdc       0x3c ../../../../../c-bowler/firmware/library/NR-Clib/development/c-bowler.X/dist/default/production/c-bowler.X.a(UART.o)
                0x9d012bdd                Write32UART1

.text.INTSetVectorPriority
                0x9d012c18       0x3c
 .text.INTSetVectorPriority
                0x9d012c18       0x3c /home/opt/microchip/xc32/v1.00/bin/../lib/gcc/pic32mx/4.5.1/../../../../pic32mx/lib/libmchp_peripheral_32MX440F128H.a(int_tbl_lib.o)
                0x9d012c18                INTSetVectorPriority

.text.INTSetVectorSubPriority
                0x9d012c54       0x3c
 .text.INTSetVectorSubPriority
                0x9d012c54       0x3c /home/opt/microchip/xc32/v1.00/bin/../lib/gcc/pic32mx/4.5.1/../../../../pic32mx/lib/libmchp_peripheral_32MX440F128H.a(int_tbl_lib.o)
                0x9d012c54                INTSetVectorSubPriority

.text.UARTConfigure
                0x9d012c90       0x3c
 .text.UARTConfigure
                0x9d012c90       0x3c /home/opt/microchip/xc32/v1.00/bin/../lib/gcc/pic32mx/4.5.1/../../../../pic32mx/lib/libmchp_peripheral_32MX440F128H.a(uart_lib.o)
                0x9d012c90                UARTConfigure

.text.UARTSetAddress
                0x9d012ccc       0x3c
 .text.UARTSetAddress
                0x9d012ccc       0x3c /home/opt/microchip/xc32/v1.00/bin/../lib/gcc/pic32mx/4.5.1/../../../../pic32mx/lib/libmchp_peripheral_32MX440F128H.a(uart_lib.o)
                0x9d012ccc                UARTSetAddress

.text.ReleaseAVRReset
                0x9d012d08       0x38
 .text.ReleaseAVRReset
                0x9d012d08       0x38 build/default/production/_ext/990863823/AVRInterface.o
                0x9d012d09                ReleaseAVRReset

.text.writeAVRTempFlashPageLowByte
                0x9d012d40       0x38
 .text.writeAVRTempFlashPageLowByte
                0x9d012d40       0x38 build/default/production/_ext/990863823/AVRInterface.o
                0x9d012d41                writeAVRTempFlashPageLowByte

.text.writeAVRTempFlashPageHighByte
                0x9d012d78       0x38
 .text.writeAVRTempFlashPageHighByte
                0x9d012d78       0x38 build/default/production/_ext/990863823/AVRInterface.o
                0x9d012d79                writeAVRTempFlashPageHighByte

.text.GetCounterOutput
                0x9d012db0       0x38
 .text.GetCounterOutput
                0x9d012db0       0x38 build/default/production/_ext/990863823/Counter.o
                0x9d012db1                GetCounterOutput

.rodata         0x9d012de8       0x38
 .rodata        0x9d012de8       0x38 ../../../../../c-bowler/firmware/library/NR-Clib/development/c-bowler.X/dist/default/production/c-bowler.X.a(Namespace_bcs_core.o)

.text.getBcsCoreNamespace
                0x9d012e20       0x38
 .text.getBcsCoreNamespace
                0x9d012e20       0x38 ../../../../../c-bowler/firmware/library/NR-Clib/development/c-bowler.X/dist/default/production/c-bowler.X.a(Namespace_bcs_core.o)
                0x9d012e21                getBcsCoreNamespace

.text.InitByteFifo
                0x9d012e58       0x38
 .text.InitByteFifo
                0x9d012e58       0x38 ../../../../../c-bowler/firmware/library/NR-Clib/development/c-bowler.X/dist/default/production/c-bowler.X.a(FIFO.o)
                0x9d012e59                InitByteFifo

.text.GetPIDPosition
                0x9d012e90       0x38
 .text.GetPIDPosition
                0x9d012e90       0x38 ../../../../../c-bowler/firmware/library/NR-Clib/development/c-bowler.X/dist/default/production/c-bowler.X.a(AbstractPID.o)
                0x9d012e91                GetPIDPosition

.text.RunPIDComs
                0x9d012ec8       0x38
 .text.RunPIDComs
                0x9d012ec8       0x38 ../../../../../c-bowler/firmware/library/NR-Clib/development/c-bowler.X/dist/default/production/c-bowler.X.a(AbstractPID.o)
                0x9d012ec9                RunPIDComs

.text.USBEnableEndpoint
                0x9d012f00       0x38
 .text.USBEnableEndpoint
                0x9d012f00       0x38 ../../../../../c-bowler/firmware/library/NR-Clib/development/c-bowler.X/dist/default/production/c-bowler.X.a(usb_device.o)
                0x9d012f01                USBEnableEndpoint

.text.FlashSetMac
                0x9d012f38       0x38
 .text.FlashSetMac
                0x9d012f38       0x38 ../../../../../c-bowler/firmware/library/NR-Clib/development/c-bowler.X/dist/default/production/c-bowler.X.a(FlashStorage.o)
                0x9d012f39                FlashSetMac

.text.getBcsRpcNamespace
                0x9d012f70       0x38
 .text.getBcsRpcNamespace
                0x9d012f70       0x38 ../../../../../c-bowler/firmware/library/NR-Clib/development/c-bowler.X/dist/default/production/c-bowler.X.a(Namespace_bcs_rpc.o)
                0x9d012f71                getBcsRpcNamespace

.text.UARTWatchForAddress
                0x9d012fa8       0x38
 .text.UARTWatchForAddress
                0x9d012fa8       0x38 /home/opt/microchip/xc32/v1.00/bin/../lib/gcc/pic32mx/4.5.1/../../../../pic32mx/lib/libmchp_peripheral_32MX440F128H.a(uart_lib.o)
                0x9d012fa8                UARTWatchForAddress

.text.getBcsIoDataTable
                0x9d012fe0       0x34
 .text.getBcsIoDataTable
                0x9d012fe0       0x34 build/default/production/_ext/805493626/Abstract_bcs_io.o
                0x9d012fe1                getBcsIoDataTable

.text.SetAllChannelModes
                0x9d013014       0x34
 .text.SetAllChannelModes
                0x9d013014       0x34 build/default/production/_ext/1051272628/Abstract_bcs_io_setmode.o
                0x9d013015                SetAllChannelModes

.text.get_bcsIoSetmodeNamespace
                0x9d013048       0x34
 .text.get_bcsIoSetmodeNamespace
                0x9d013048       0x34 build/default/production/_ext/1051272628/Namespace_bcs_io_setmode.o
                0x9d013049                get_bcsIoSetmodeNamespace

.text.SyncDataTable
                0x9d01307c       0x34
 .text.SyncDataTable
                0x9d01307c       0x34 build/default/production/_ext/990863823/DyIODataTableManager.o
                0x9d01307d                SyncDataTable

.text.SetCounterInput
                0x9d0130b0       0x34
 .text.SetCounterInput
                0x9d0130b0       0x34 build/default/production/_ext/990863823/Counter.o
                0x9d0130b1                SetCounterInput

.text.GetByteSPI
                0x9d0130e4       0x34
 .text.GetByteSPI
                0x9d0130e4       0x34 build/default/production/_ext/990863823/SPI.o
                0x9d0130e5                GetByteSPI

.text.get_bcsSafeNamespace
                0x9d013118       0x34
 .text.get_bcsSafeNamespace
                0x9d013118       0x34 build/default/production/_ext/1281821416/Namespace_bcs_safe.o
                0x9d013119                get_bcsSafeNamespace

.text.bcsPidDypidProcessor_g
                0x9d01314c       0x34
 .text.bcsPidDypidProcessor_g
                0x9d01314c       0x34 build/default/production/_ext/321196743/Namespace_bcs_pid_dypid.o
                0x9d01314d                bcsPidDypidProcessor_g

.text.bcsPidDypidAsyncEventCallback
                0x9d013180       0x34
 .text.bcsPidDypidAsyncEventCallback
                0x9d013180       0x34 build/default/production/_ext/321196743/Namespace_bcs_pid_dypid.o
                0x9d013181                bcsPidDypidAsyncEventCallback

.text.get_bcsPidDypidNamespace
                0x9d0131b4       0x34
 .text.get_bcsPidDypidNamespace
                0x9d0131b4       0x34 build/default/production/_ext/321196743/Namespace_bcs_pid_dypid.o
                0x9d0131b5                get_bcsPidDypidNamespace

.text.InitPacketFifo
                0x9d0131e8       0x34
 .text.InitPacketFifo
                0x9d0131e8       0x34 ../../../../../c-bowler/firmware/library/NR-Clib/development/c-bowler.X/dist/default/production/c-bowler.X.a(FIFO.o)
                0x9d0131e9                InitPacketFifo

.text.FlashSetFwRev
                0x9d01321c       0x34
 .text.FlashSetFwRev
                0x9d01321c       0x34 ../../../../../c-bowler/firmware/library/NR-Clib/development/c-bowler.X/dist/default/production/c-bowler.X.a(FlashStorage.o)
                0x9d01321d                FlashSetFwRev

.text.FlashSetBlRev
                0x9d013250       0x34
 .text.FlashSetBlRev
                0x9d013250       0x34 ../../../../../c-bowler/firmware/library/NR-Clib/development/c-bowler.X/dist/default/production/c-bowler.X.a(FlashStorage.o)
                0x9d013251                FlashSetBlRev

.text.getUpperPidHistoresis
                0x9d013284       0x34
 .text.getUpperPidHistoresis
                0x9d013284       0x34 ../../../../../c-bowler/firmware/library/NR-Clib/development/c-bowler.X/dist/default/production/c-bowler.X.a(PidHysteresis.o)
                0x9d013285                getUpperPidHistoresis

.text.getLowerPidHistoresis
                0x9d0132b8       0x34
 .text.getLowerPidHistoresis
                0x9d0132b8       0x34 ../../../../../c-bowler/firmware/library/NR-Clib/development/c-bowler.X/dist/default/production/c-bowler.X.a(PidHysteresis.o)
                0x9d0132b9                getLowerPidHistoresis

.text.getPidStop
                0x9d0132ec       0x34
 .text.getPidStop
                0x9d0132ec       0x34 ../../../../../c-bowler/firmware/library/NR-Clib/development/c-bowler.X/dist/default/production/c-bowler.X.a(PidHysteresis.o)
                0x9d0132ed                getPidStop

.text.INTEnableSystemMultiVectoredInt
                0x9d013320       0x34
 .text.INTEnableSystemMultiVectoredInt
                0x9d013320       0x34 /home/opt/microchip/xc32/v1.00/bin/../lib/gcc/pic32mx/4.5.1/../../../../pic32mx/lib/libmchp_peripheral_32MX440F128H.a(int_enable_mv_int_lib.o)
                0x9d013320                INTEnableSystemMultiVectoredInt

.text.NVMWriteWord
                0x9d013354       0x34
 .text.NVMWriteWord
                0x9d013354       0x34 /home/opt/microchip/xc32/v1.00/bin/../lib/gcc/pic32mx/4.5.1/../../../../pic32mx/lib/libmchp_peripheral_32MX440F128H.a(nvm_write_word_lib.o)
                0x9d013354                NVMWriteWord

.text.GetIOChannelCountFromPacket
                0x9d013388       0x30
 .text.GetIOChannelCountFromPacket
                0x9d013388       0x30 build/default/production/_ext/805493626/Abstract_bcs_io.o
                0x9d013389                GetIOChannelCountFromPacket

.text.onPidConfigureMine
                0x9d0133b8       0x30
 .text.onPidConfigureMine
                0x9d0133b8       0x30 build/default/production/_ext/1825615050/PID.o
                0x9d0133b9                onPidConfigureMine

.text.HoldAVRReset
                0x9d0133e8       0x30
 .text.HoldAVRReset
                0x9d0133e8       0x30 build/default/production/_ext/990863823/AVRInterface.o
                0x9d0133e9                HoldAVRReset

.text.InitializeDyIODataTableManager
                0x9d013418       0x30
 .text.InitializeDyIODataTableManager
                0x9d013418       0x30 build/default/production/_ext/990863823/DyIODataTableManager.o
                0x9d013419                InitializeDyIODataTableManager

.text._png      0x9d013448       0x30
 .text._png     0x9d013448       0x30 ../../../../../c-bowler/firmware/library/NR-Clib/development/c-bowler.X/dist/default/production/c-bowler.X.a(Namespace_bcs_core.o)
                0x9d013449                _png

.text.USBCBSendResume
                0x9d013478       0x30
 .text.USBCBSendResume
                0x9d013478       0x30 ../../../../../c-bowler/firmware/library/NR-Clib/development/c-bowler.X/dist/default/production/c-bowler.X.a(usb_callback.o)
                0x9d013479                USBCBSendResume

.text.INTGetVectorPriority
                0x9d0134a8       0x30
 .text.INTGetVectorPriority
                0x9d0134a8       0x30 /home/opt/microchip/xc32/v1.00/bin/../lib/gcc/pic32mx/4.5.1/../../../../pic32mx/lib/libmchp_peripheral_32MX440F128H.a(int_tbl_lib.o)
                0x9d0134a8                INTGetVectorPriority

.text.INTGetVectorSubPriority
                0x9d0134d8       0x30
 .text.INTGetVectorSubPriority
                0x9d0134d8       0x30 /home/opt/microchip/xc32/v1.00/bin/../lib/gcc/pic32mx/4.5.1/../../../../pic32mx/lib/libmchp_peripheral_32MX440F128H.a(int_tbl_lib.o)
                0x9d0134d8                INTGetVectorSubPriority

.text.AbstractSetAllChannelMode
                0x9d013508       0x2c
 .text.AbstractSetAllChannelMode
                0x9d013508       0x2c build/default/production/_ext/1051272628/Abstract_bcs_io_setmode.o
                0x9d013509                AbstractSetAllChannelMode

.rodata         0x9d013534       0x2c
 .rodata        0x9d013534       0x2c build/default/production/_ext/1978776677/UpstreamPackets.o

.text.GetSerialRxData
                0x9d013560       0x2c
 .text.GetSerialRxData
                0x9d013560       0x2c build/default/production/_ext/990863823/DyIODataTableManager.o
                0x9d013561                GetSerialRxData

.text.GetCounterByGroup
                0x9d01358c       0x2c
 .text.GetCounterByGroup
                0x9d01358c       0x2c build/default/production/_ext/990863823/Counter.o
                0x9d01358d                GetCounterByGroup

.text.getRpcByID
                0x9d0135b8       0x2c
 .text.getRpcByID
                0x9d0135b8       0x2c ../../../../../c-bowler/firmware/library/NR-Clib/development/c-bowler.X/dist/default/production/c-bowler.X.a(Namespace_bcs_core.o)
                0x9d0135b9                getRpcByID

.text.getNamespaceAtIndex
                0x9d0135e4       0x2c
 .text.getNamespaceAtIndex
                0x9d0135e4       0x2c ../../../../../c-bowler/firmware/library/NR-Clib/development/c-bowler.X/dist/default/production/c-bowler.X.a(Namespace_bcs_core.o)
                0x9d0135e5                getNamespaceAtIndex

.text.sendToStreamMine
                0x9d013610       0x2c
 .text.sendToStreamMine
                0x9d013610       0x2c ../../../../../c-bowler/firmware/library/NR-Clib/development/c-bowler.X/dist/default/production/c-bowler.X.a(Debug.o)
                0x9d013611                sendToStreamMine

.text.getPidGroupDataTable
                0x9d01363c       0x2c
 .text.getPidGroupDataTable
                0x9d01363c       0x2c ../../../../../c-bowler/firmware/library/NR-Clib/development/c-bowler.X/dist/default/production/c-bowler.X.a(AbstractPID.o)
                0x9d01363d                getPidGroupDataTable

.text.GetPIDCalibrateionState
                0x9d013668       0x2c
 .text.GetPIDCalibrateionState
                0x9d013668       0x2c ../../../../../c-bowler/firmware/library/NR-Clib/development/c-bowler.X/dist/default/production/c-bowler.X.a(AbstractPID.o)
                0x9d013669                GetPIDCalibrateionState

.text.USBWakeFromSuspend
                0x9d013694       0x2c
 .text.USBWakeFromSuspend
                0x9d013694       0x2c ../../../../../c-bowler/firmware/library/NR-Clib/development/c-bowler.X/dist/default/production/c-bowler.X.a(usb_device.o)
                0x9d013695                USBWakeFromSuspend

.text.Send_HAL_Packet
                0x9d0136c0       0x2c
 .text.Send_HAL_Packet
                0x9d0136c0       0x2c ../../../../../c-bowler/firmware/library/NR-Clib/development/c-bowler.X/dist/default/production/c-bowler.X.a(HAL_P32.o)
                0x9d0136c1                Send_HAL_Packet

.text.DelayMs   0x9d0136ec       0x2c
 .text.DelayMs  0x9d0136ec       0x2c ../../../../../c-bowler/firmware/library/NR-Clib/development/c-bowler.X/dist/default/production/c-bowler.X.a(Delay.o)
                0x9d0136ed                DelayMs

.text.SetFlashData
                0x9d013718       0x2c
 .text.SetFlashData
                0x9d013718       0x2c ../../../../../c-bowler/firmware/library/NR-Clib/development/c-bowler.X/dist/default/production/c-bowler.X.a(FlashStorage.o)
                0x9d013719                SetFlashData

.text.newByteUartHal
                0x9d013744       0x2c
 .text.newByteUartHal
                0x9d013744       0x2c ../../../../../c-bowler/firmware/library/NR-Clib/development/c-bowler.X/dist/default/production/c-bowler.X.a(Bowler_UART_HAL.o)
                0x9d013745                newByteUartHal

.text.ProcessPIDPacket
                0x9d013770       0x2c
 .text.ProcessPIDPacket
                0x9d013770       0x2c ../../../../../c-bowler/firmware/library/NR-Clib/development/c-bowler.X/dist/default/production/c-bowler.X.a(PidRpc.o)
                0x9d013771                ProcessPIDPacket

.text.WriteUSBSerialNumber
                0x9d01379c       0x2c
 .text.WriteUSBSerialNumber
                0x9d01379c       0x2c ../../../../../c-bowler/firmware/library/NR-Clib/development/c-bowler.X/dist/default/production/c-bowler.X.a(usb_descriptors.o)
                0x9d01379d                WriteUSBSerialNumber

.text.WriteUSBDeviceString
                0x9d0137c8       0x2c
 .text.WriteUSBDeviceString
                0x9d0137c8       0x2c ../../../../../c-bowler/firmware/library/NR-Clib/development/c-bowler.X/dist/default/production/c-bowler.X.a(usb_descriptors.o)
                0x9d0137c9                WriteUSBDeviceString

.text.RunVel    0x9d0137f4       0x2c
 .text.RunVel   0x9d0137f4       0x2c ../../../../../c-bowler/firmware/library/NR-Clib/development/c-bowler.X/dist/default/production/c-bowler.X.a(PidVelocity.o)
                0x9d0137f5                RunVel

.text.INTClearFlag
                0x9d013820       0x2c
 .text.INTClearFlag
                0x9d013820       0x2c /home/opt/microchip/xc32/v1.00/bin/../lib/gcc/pic32mx/4.5.1/../../../../pic32mx/lib/libmchp_peripheral_32MX440F128H.a(int_tbl_lib.o)
                0x9d013820                INTClearFlag

.text.INTSetFlag
                0x9d01384c       0x2c
 .text.INTSetFlag
                0x9d01384c       0x2c /home/opt/microchip/xc32/v1.00/bin/../lib/gcc/pic32mx/4.5.1/../../../../pic32mx/lib/libmchp_peripheral_32MX440F128H.a(int_tbl_lib.o)
                0x9d01384c                INTSetFlag

.text.INTGetFlag
                0x9d013878       0x2c
 .text.INTGetFlag
                0x9d013878       0x2c /home/opt/microchip/xc32/v1.00/bin/../lib/gcc/pic32mx/4.5.1/../../../../pic32mx/lib/libmchp_peripheral_32MX440F128H.a(int_tbl_lib.o)
                0x9d013878                INTGetFlag

.text.INTGetEnable
                0x9d0138a4       0x2c
 .text.INTGetEnable
                0x9d0138a4       0x2c /home/opt/microchip/xc32/v1.00/bin/../lib/gcc/pic32mx/4.5.1/../../../../pic32mx/lib/libmchp_peripheral_32MX440F128H.a(int_tbl_lib.o)
                0x9d0138a4                INTGetEnable

.text.NVMErasePage
                0x9d0138d0       0x2c
 .text.NVMErasePage
                0x9d0138d0       0x2c /home/opt/microchip/xc32/v1.00/bin/../lib/gcc/pic32mx/4.5.1/../../../../pic32mx/lib/libmchp_peripheral_32MX440F128H.a(nvm_erase_page_lib.o)
                0x9d0138d0                NVMErasePage

.text.GetChannelModeFromPacket
                0x9d0138fc       0x28
 .text.GetChannelModeFromPacket
                0x9d0138fc       0x28 build/default/production/_ext/805493626/Abstract_bcs_io.o
                0x9d0138fd                GetChannelModeFromPacket

.text.GetAsyncFromPacket
                0x9d013924       0x28
 .text.GetAsyncFromPacket
                0x9d013924       0x28 build/default/production/_ext/805493626/Abstract_bcs_io.o
                0x9d013925                GetAsyncFromPacket

.text.SetAsyncFromPacket
                0x9d01394c       0x28
 .text.SetAsyncFromPacket
                0x9d01394c       0x28 build/default/production/_ext/805493626/Abstract_bcs_io.o
                0x9d01394d                SetAsyncFromPacket

.text.GetValFromAsync
                0x9d013974       0x28
 .text.GetValFromAsync
                0x9d013974       0x28 build/default/production/_ext/805493626/Bcs_IO_AdvancedAsync.o
                0x9d013975                GetValFromAsync

.text.GetConfigDyPID
                0x9d01399c       0x28
 .text.GetConfigDyPID
                0x9d01399c       0x28 build/default/production/_ext/1825615050/PID.o
                0x9d01399d                GetConfigDyPID

.text.trigerPIDLimit
                0x9d0139c4       0x28
 .text.trigerPIDLimit
                0x9d0139c4       0x28 build/default/production/_ext/1825615050/PID.o
                0x9d0139c5                trigerPIDLimit

.text.getCmd    0x9d0139ec       0x28
 .text.getCmd   0x9d0139ec       0x28 build/default/production/_ext/990863823/AVRInterface.o
                0x9d0139ed                getCmd

.text.PowerCycleAVR
                0x9d013a14       0x28
 .text.PowerCycleAVR
                0x9d013a14       0x28 build/default/production/_ext/990863823/AVRInterface.o
                0x9d013a15                PowerCycleAVR

.text.getLastPacketTime
                0x9d013a3c       0x28
 .text.getLastPacketTime
                0x9d013a3c       0x28 ../../../../../c-bowler/firmware/library/NR-Clib/development/c-bowler.X/dist/default/production/c-bowler.X.a(Bowler_Server.o)
                0x9d013a3d                getLastPacketTime

.text.okToprint
                0x9d013a64       0x28
 .text.okToprint
                0x9d013a64       0x28 ../../../../../c-bowler/firmware/library/NR-Clib/development/c-bowler.X/dist/default/production/c-bowler.X.a(Debug.o)
                0x9d013a65                okToprint

.text.printfDEBUG
                0x9d013a8c       0x28
 .text.printfDEBUG
                0x9d013a8c       0x28 ../../../../../c-bowler/firmware/library/NR-Clib/development/c-bowler.X/dist/default/production/c-bowler.X.a(Debug.o)
                0x9d013a8d                printfDEBUG

.text.CheckAddress
                0x9d013ab4       0x28
 .text.CheckAddress
                0x9d013ab4       0x28 ../../../../../c-bowler/firmware/library/NR-Clib/development/c-bowler.X/dist/default/production/c-bowler.X.a(Bowler_Helper.o)
                0x9d013ab5                CheckAddress

.text.getPidVelocityDataTable
                0x9d013adc       0x28
 .text.getPidVelocityDataTable
                0x9d013adc       0x28 ../../../../../c-bowler/firmware/library/NR-Clib/development/c-bowler.X/dist/default/production/c-bowler.X.a(AbstractPID.o)
                0x9d013add                getPidVelocityDataTable

.text.USBSuspend
                0x9d013b04       0x28
 .text.USBSuspend
                0x9d013b04       0x28 ../../../../../c-bowler/firmware/library/NR-Clib/development/c-bowler.X/dist/default/production/c-bowler.X.a(usb_device.o)
                0x9d013b05                USBSuspend

.text.FlashSetName
                0x9d013b2c       0x28
 .text.FlashSetName
                0x9d013b2c       0x28 ../../../../../c-bowler/firmware/library/NR-Clib/development/c-bowler.X/dist/default/production/c-bowler.X.a(FlashStorage.o)
                0x9d013b2d                FlashSetName

.text.USER_USB_CALLBACK_EVENT_HANDLER
                0x9d013b54       0x28
 .text.USER_USB_CALLBACK_EVENT_HANDLER
                0x9d013b54       0x28 ../../../../../c-bowler/firmware/library/NR-Clib/development/c-bowler.X/dist/default/production/c-bowler.X.a(usb_callback.o)
                0x9d013b55                USER_USB_CALLBACK_EVENT_HANDLER

.text.PORTClearBits
                0x9d013b7c       0x28
 .text.PORTClearBits
                0x9d013b7c       0x28 /home/opt/microchip/xc32/v1.00/bin/../lib/gcc/pic32mx/4.5.1/../../../../pic32mx/lib/libmchp_peripheral_32MX440F128H.a(port_clear_bits_lib.o)
                0x9d013b7c                PORTClearBits

.text.PORTSetBits
                0x9d013ba4       0x28
 .text.PORTSetBits
                0x9d013ba4       0x28 /home/opt/microchip/xc32/v1.00/bin/../lib/gcc/pic32mx/4.5.1/../../../../pic32mx/lib/libmchp_peripheral_32MX440F128H.a(port_set_bits_lib.o)
                0x9d013ba4                PORTSetBits

.text.UARTSetFifoMode
                0x9d013bcc       0x28
 .text.UARTSetFifoMode
                0x9d013bcc       0x28 /home/opt/microchip/xc32/v1.00/bin/../lib/gcc/pic32mx/4.5.1/../../../../pic32mx/lib/libmchp_peripheral_32MX440F128H.a(uart_lib.o)
                0x9d013bcc                UARTSetFifoMode

.text.UARTSetLineControl
                0x9d013bf4       0x28
 .text.UARTSetLineControl
                0x9d013bf4       0x28 /home/opt/microchip/xc32/v1.00/bin/../lib/gcc/pic32mx/4.5.1/../../../../pic32mx/lib/libmchp_peripheral_32MX440F128H.a(uart_lib.o)
                0x9d013bf4                UARTSetLineControl

.text.SendToSerialPassThrough
                0x9d013c1c       0x24
 .text.SendToSerialPassThrough
                0x9d013c1c       0x24 build/default/production/_ext/990863823/SerialPassThrough.o
                0x9d013c1d                SendToSerialPassThrough

.text.FixPacket
                0x9d013c40       0x24
 .text.FixPacket
                0x9d013c40       0x24 ../../../../../c-bowler/firmware/library/NR-Clib/development/c-bowler.X/dist/default/production/c-bowler.X.a(BowlerPacketParser.o)
                0x9d013c41                FixPacket

.text.PutBowlerPacket
                0x9d013c64       0x24
 .text.PutBowlerPacket
                0x9d013c64       0x24 ../../../../../c-bowler/firmware/library/NR-Clib/development/c-bowler.X/dist/default/production/c-bowler.X.a(BowlerPacketParser.o)
                0x9d013c65                PutBowlerPacket

.text.RunNamespaceAsync
                0x9d013c88       0x24
 .text.RunNamespaceAsync
                0x9d013c88       0x24 ../../../../../c-bowler/firmware/library/NR-Clib/development/c-bowler.X/dist/default/production/c-bowler.X.a(Namespace_bcs_core.o)
                0x9d013c89                RunNamespaceAsync

.text.calcByteCount
                0x9d013cac       0x24
 .text.calcByteCount
                0x9d013cac       0x24 ../../../../../c-bowler/firmware/library/NR-Clib/development/c-bowler.X/dist/default/production/c-bowler.X.a(FIFO.o)
                0x9d013cad                calcByteCount

.text.FifoGetPacketCount
                0x9d013cd0       0x24
 .text.FifoGetPacketCount
                0x9d013cd0       0x24 ../../../../../c-bowler/firmware/library/NR-Clib/development/c-bowler.X/dist/default/production/c-bowler.X.a(FIFO.o)
                0x9d013cd1                FifoGetPacketCount

.text.SetPIDCalibrateionState
                0x9d013cf4       0x24
 .text.SetPIDCalibrateionState
                0x9d013cf4       0x24 ../../../../../c-bowler/firmware/library/NR-Clib/development/c-bowler.X/dist/default/production/c-bowler.X.a(AbstractPID.o)
                0x9d013cf5                SetPIDCalibrateionState

.text.ClearPID  0x9d013d18       0x24
 .text.ClearPID
                0x9d013d18       0x24 ../../../../../c-bowler/firmware/library/NR-Clib/development/c-bowler.X/dist/default/production/c-bowler.X.a(AbstractPID.o)
                0x9d013d19                ClearPID

.text.SetColor  0x9d013d3c       0x24
 .text.SetColor
                0x9d013d3c       0x24 ../../../../../c-bowler/firmware/library/NR-Clib/development/c-bowler.X/dist/default/production/c-bowler.X.a(LED.o)
                0x9d013d3d                SetColor

.text.FlashGetName
                0x9d013d60       0x24
 .text.FlashGetName
                0x9d013d60       0x24 ../../../../../c-bowler/firmware/library/NR-Clib/development/c-bowler.X/dist/default/production/c-bowler.X.a(FlashStorage.o)
                0x9d013d61                FlashGetName

.text.Pic32UARTGetArray
                0x9d013d84       0x24
 .text.Pic32UARTGetArray
                0x9d013d84       0x24 ../../../../../c-bowler/firmware/library/NR-Clib/development/c-bowler.X/dist/default/production/c-bowler.X.a(Bowler_UART_HAL.o)
                0x9d013d85                Pic32UARTGetArray

.text.Pic32UARTPutArray
                0x9d013da8       0x24
 .text.Pic32UARTPutArray
                0x9d013da8       0x24 ../../../../../c-bowler/firmware/library/NR-Clib/development/c-bowler.X/dist/default/production/c-bowler.X.a(Bowler_UART_HAL.o)
                0x9d013da9                Pic32UARTPutArray

.rodata         0x9d013dcc       0x24
 .rodata        0x9d013dcc       0x24 ../../../../../c-bowler/firmware/library/NR-Clib/development/c-bowler.X/dist/default/production/c-bowler.X.a(PidRpc.o)

.text.SetValFromAsync
                0x9d013df0       0x20
 .text.SetValFromAsync
                0x9d013df0       0x20 build/default/production/_ext/805493626/Bcs_IO_AdvancedAsync.o
                0x9d013df1                SetValFromAsync

.text.writeLowFuse
                0x9d013e10       0x20
 .text.writeLowFuse
                0x9d013e10       0x20 build/default/production/_ext/990863823/AVRInterface.o
                0x9d013e11                writeLowFuse

.text.writeHighFuse
                0x9d013e30       0x20
 .text.writeHighFuse
                0x9d013e30       0x20 build/default/production/_ext/990863823/AVRInterface.o
                0x9d013e31                writeHighFuse

.text.writeExtendedFuse
                0x9d013e50       0x20
 .text.writeExtendedFuse
                0x9d013e50       0x20 build/default/production/_ext/990863823/AVRInterface.o
                0x9d013e51                writeExtendedFuse

.text.GetRail1Voltage
                0x9d013e70       0x20
 .text.GetRail1Voltage
                0x9d013e70       0x20 build/default/production/_ext/990863823/ADC.o
                0x9d013e71                GetRail1Voltage

.text.GetRail0Voltage
                0x9d013e90       0x20
 .text.GetRail0Voltage
                0x9d013e90       0x20 build/default/production/_ext/990863823/ADC.o
                0x9d013e91                GetRail0Voltage

.text.GetRawVoltagePostFuse
                0x9d013eb0       0x20
 .text.GetRawVoltagePostFuse
                0x9d013eb0       0x20 build/default/production/_ext/990863823/ADC.o
                0x9d013eb1                GetRawVoltagePostFuse

.text.GetRawVoltage
                0x9d013ed0       0x20
 .text.GetRawVoltage
                0x9d013ed0       0x20 build/default/production/_ext/990863823/ADC.o
                0x9d013ed1                GetRawVoltage

.text.setEEBrownOutDetect
                0x9d013ef0       0x20
 .text.setEEBrownOutDetect
                0x9d013ef0       0x20 build/default/production/_ext/990863823/EEPROMMannager.o
                0x9d013ef1                setEEBrownOutDetect

.text.getEEBrownOutDetect
                0x9d013f10       0x20
 .text.getEEBrownOutDetect
                0x9d013f10       0x20 build/default/production/_ext/990863823/EEPROMMannager.o
                0x9d013f11                getEEBrownOutDetect

.rodata         0x9d013f30       0x20
 .rodata        0x9d013f30       0x20 build/default/production/_ext/1020318379/ChannelValues.o

.text.getNumberOfRpcs
                0x9d013f50       0x20
 .text.getNumberOfRpcs
                0x9d013f50       0x20 ../../../../../c-bowler/firmware/library/NR-Clib/development/c-bowler.X/dist/default/production/c-bowler.X.a(Namespace_bcs_core.o)
                0x9d013f51                getNumberOfRpcs

.text.Bowler_Init
                0x9d013f70       0x20
 .text.Bowler_Init
                0x9d013f70       0x20 ../../../../../c-bowler/firmware/library/NR-Clib/development/c-bowler.X/dist/default/production/c-bowler.X.a(Bowler_Server.o)
                0x9d013f71                Bowler_Init

.text.sendToStreamLocal
                0x9d013f90       0x20
 .text.sendToStreamLocal
                0x9d013f90       0x20 ../../../../../c-bowler/firmware/library/NR-Clib/development/c-bowler.X/dist/default/production/c-bowler.X.a(Debug.o)
                0x9d013f91                sendToStreamLocal

.text.printfDEBUG_BYTE
                0x9d013fb0       0x20
 .text.printfDEBUG_BYTE
                0x9d013fb0       0x20 ../../../../../c-bowler/firmware/library/NR-Clib/development/c-bowler.X/dist/default/production/c-bowler.X.a(Debug.o)
                0x9d013fb1                printfDEBUG_BYTE

.text.printfDEBUG_NNL
                0x9d013fd0       0x20
 .text.printfDEBUG_NNL
                0x9d013fd0       0x20 ../../../../../c-bowler/firmware/library/NR-Clib/development/c-bowler.X/dist/default/production/c-bowler.X.a(Debug.o)
                0x9d013fd1                printfDEBUG_NNL

.text.get32bit  0x9d013ff0       0x20
 .text.get32bit
                0x9d013ff0       0x20 ../../../../../c-bowler/firmware/library/NR-Clib/development/c-bowler.X/dist/default/production/c-bowler.X.a(Bowler_Helper.o)
                0x9d013ff1                get32bit

.text.getAdcVoltage
                0x9d014010       0x20
 .text.getAdcVoltage
                0x9d014010       0x20 ../../../../../c-bowler/firmware/library/NR-Clib/development/c-bowler.X/dist/default/production/c-bowler.X.a(ADC.o)
                0x9d014011                getAdcVoltage

.text.DelayPreServo
                0x9d014030       0x20
 .text.DelayPreServo
                0x9d014030       0x20 ../../../../../c-bowler/firmware/library/NR-Clib/development/c-bowler.X/dist/default/production/c-bowler.X.a(Delay.o)
                0x9d014031                DelayPreServo

.text.FlashGetBlRev
                0x9d014050       0x20
 .text.FlashGetBlRev
                0x9d014050       0x20 ../../../../../c-bowler/firmware/library/NR-Clib/development/c-bowler.X/dist/default/production/c-bowler.X.a(FlashStorage.o)
                0x9d014051                FlashGetBlRev

.text.FlashGetFwRev
                0x9d014070       0x20
 .text.FlashGetFwRev
                0x9d014070       0x20 ../../../../../c-bowler/firmware/library/NR-Clib/development/c-bowler.X/dist/default/production/c-bowler.X.a(FlashStorage.o)
                0x9d014071                FlashGetFwRev

.text.MyTickConvertToMilliseconds
                0x9d014090       0x20
 .text.MyTickConvertToMilliseconds
                0x9d014090       0x20 ../../../../../c-bowler/firmware/library/NR-Clib/development/c-bowler.X/dist/default/production/c-bowler.X.a(Tick.o)
                0x9d014091                MyTickConvertToMilliseconds

.text.getcSPI2  0x9d0140b0       0x20
 .text.getcSPI2
                0x9d0140b0       0x20 /home/opt/microchip/xc32/v1.00/bin/../lib/gcc/pic32mx/4.5.1/../../../../pic32mx/lib/libmchp_peripheral_32MX440F128H.a(spi_getc_spi2_lib_legacy.o)
                0x9d0140b0                getcSPI2

.text.InitilizeBcsIoSetmode
                0x9d0140d0       0x1c
 .text.InitilizeBcsIoSetmode
                0x9d0140d0       0x1c build/default/production/_ext/1051272628/Abstract_bcs_io_setmode.o
                0x9d0140d1                InitilizeBcsIoSetmode

.text.fail      0x9d0140ec       0x1c
 .text.fail     0x9d0140ec       0x1c build/default/production/_ext/1825615050/PID.o
                0x9d0140ed                fail

.text.addCoProcByte
                0x9d014108       0x1c
 .text.addCoProcByte
                0x9d014108       0x1c build/default/production/_ext/990863823/CoProcCom.o
                0x9d014109                addCoProcByte

.text.uartErrorCheck
                0x9d014124       0x1c
 .text.uartErrorCheck
                0x9d014124       0x1c build/default/production/_ext/990863823/CoProcCom.o
                0x9d014125                uartErrorCheck

.text.RunCounter
                0x9d014140       0x1c
 .text.RunCounter
                0x9d014140       0x1c build/default/production/_ext/990863823/Counter.o
                0x9d014141                RunCounter

.text.GetCounterByChannel
                0x9d01415c       0x1c
 .text.GetCounterByChannel
                0x9d01415c       0x1c build/default/production/_ext/990863823/Counter.o
                0x9d01415d                GetCounterByChannel

.rodata         0x9d014178       0x1c
 .rodata        0x9d014178       0x1c build/default/production/_ext/990863823/PPMReader.o

.text.getNumberOfNamespaces
                0x9d014194       0x1c
 .text.getNumberOfNamespaces
                0x9d014194       0x1c ../../../../../c-bowler/firmware/library/NR-Clib/development/c-bowler.X/dist/default/production/c-bowler.X.a(Namespace_bcs_core.o)
                0x9d014195                getNumberOfNamespaces

.text.Bowler_Server_Static
                0x9d0141b0       0x1c
 .text.Bowler_Server_Static
                0x9d0141b0       0x1c ../../../../../c-bowler/firmware/library/NR-Clib/development/c-bowler.X/dist/default/production/c-bowler.X.a(Bowler_Server.o)
                0x9d0141b1                Bowler_Server_Static

.text.sendStr   0x9d0141cc       0x1c
 .text.sendStr  0x9d0141cc       0x1c ../../../../../c-bowler/firmware/library/NR-Clib/development/c-bowler.X/dist/default/production/c-bowler.X.a(Debug.o)
                0x9d0141cd                sendStr

.text.clearByteFifo
                0x9d0141e8       0x1c
 .text.clearByteFifo
                0x9d0141e8       0x1c ../../../../../c-bowler/firmware/library/NR-Clib/development/c-bowler.X/dist/default/production/c-bowler.X.a(FIFO.o)
                0x9d0141e9                clearByteFifo

.text.GetRPCValue
                0x9d014204       0x1c
 .text.GetRPCValue
                0x9d014204       0x1c ../../../../../c-bowler/firmware/library/NR-Clib/development/c-bowler.X/dist/default/production/c-bowler.X.a(Bowler_Helper.o)
                0x9d014205                GetRPCValue

.text.copyPacket
                0x9d014220       0x1c
 .text.copyPacket
                0x9d014220       0x1c ../../../../../c-bowler/firmware/library/NR-Clib/development/c-bowler.X/dist/default/production/c-bowler.X.a(Bowler_Helper.o)
                0x9d014221                copyPacket

.text.GetNumUSBBytes
                0x9d01423c       0x1c
 .text.GetNumUSBBytes
                0x9d01423c       0x1c ../../../../../c-bowler/firmware/library/NR-Clib/development/c-bowler.X/dist/default/production/c-bowler.X.a(usb_fifo.o)
                0x9d01423d                GetNumUSBBytes

.text.USBDeviceDetach
                0x9d014258       0x1c
 .text.USBDeviceDetach
                0x9d014258       0x1c ../../../../../c-bowler/firmware/library/NR-Clib/development/c-bowler.X/dist/default/production/c-bowler.X.a(usb_device.o)
                0x9d014259                USBDeviceDetach

.text.SetGreen  0x9d014274       0x1c
 .text.SetGreen
                0x9d014274       0x1c ../../../../../c-bowler/firmware/library/NR-Clib/development/c-bowler.X/dist/default/production/c-bowler.X.a(LED.o)
                0x9d014275                SetGreen

.text.SetRed    0x9d014290       0x1c
 .text.SetRed   0x9d014290       0x1c ../../../../../c-bowler/firmware/library/NR-Clib/development/c-bowler.X/dist/default/production/c-bowler.X.a(LED.o)
                0x9d014291                SetRed

.text.SetBlue   0x9d0142ac       0x1c
 .text.SetBlue  0x9d0142ac       0x1c ../../../../../c-bowler/firmware/library/NR-Clib/development/c-bowler.X/dist/default/production/c-bowler.X.a(LED.o)
                0x9d0142ad                SetBlue

.text.Delay1us  0x9d0142c8       0x1c
 .text.Delay1us
                0x9d0142c8       0x1c ../../../../../c-bowler/firmware/library/NR-Clib/development/c-bowler.X/dist/default/production/c-bowler.X.a(Delay.o)
                0x9d0142c9                Delay1us

.text.processRunAutoCal
                0x9d0142e4       0x1c
 .text.processRunAutoCal
                0x9d0142e4       0x1c ../../../../../c-bowler/firmware/library/NR-Clib/development/c-bowler.X/dist/default/production/c-bowler.X.a(PidHysteresis.o)
                0x9d0142e5                processRunAutoCal

.text.INTRestoreInterrupts
                0x9d014300       0x1c
 .text.INTRestoreInterrupts
                0x9d014300       0x1c /home/opt/microchip/xc32/v1.00/bin/../lib/gcc/pic32mx/4.5.1/../../../../pic32mx/lib/libmchp_peripheral_32MX440F128H.a(int_restore_interrupts_lib.o)
                0x9d014300                INTRestoreInterrupts

.text.getPacket
                0x9d01431c       0x18
 .text.getPacket
                0x9d01431c       0x18 build/default/production/_ext/990863823/CoProcCom.o
                0x9d01431d                getPacket

.text.getStream
                0x9d014334       0x18
 .text.getStream
                0x9d014334       0x18 ../../../../../c-bowler/firmware/library/NR-Clib/development/c-bowler.X/dist/default/production/c-bowler.X.a(BowlerPacketParser.o)
                0x9d014335                getStream

.text.getRpcByIndex
                0x9d01434c       0x18
 .text.getRpcByIndex
                0x9d01434c       0x18 ../../../../../c-bowler/firmware/library/NR-Clib/development/c-bowler.X/dist/default/production/c-bowler.X.a(Namespace_bcs_core.o)
                0x9d01434d                getRpcByIndex

.text.CalcCRC   0x9d014364       0x18
 .text.CalcCRC  0x9d014364       0x18 ../../../../../c-bowler/firmware/library/NR-Clib/development/c-bowler.X/dist/default/production/c-bowler.X.a(Bowler_Helper.o)
                0x9d014365                CalcCRC

.text.Bytes2Int32
                0x9d01437c       0x18
 .text.Bytes2Int32
                0x9d01437c       0x18 ../../../../../c-bowler/firmware/library/NR-Clib/development/c-bowler.X/dist/default/production/c-bowler.X.a(Bowler_Helper.o)
                0x9d01437d                Bytes2Int32

.text.set32bit  0x9d014394       0x18
 .text.set32bit
                0x9d014394       0x18 ../../../../../c-bowler/firmware/library/NR-Clib/development/c-bowler.X/dist/default/production/c-bowler.X.a(Bowler_Helper.o)
                0x9d014395                set32bit

.text.SetControllerMath
                0x9d0143ac       0x18
 .text.SetControllerMath
                0x9d0143ac       0x18 ../../../../../c-bowler/firmware/library/NR-Clib/development/c-bowler.X/dist/default/production/c-bowler.X.a(AbstractPID.o)
                0x9d0143ad                SetControllerMath

.text.InitAbsPID
                0x9d0143c4       0x18
 .text.InitAbsPID
                0x9d0143c4       0x18 ../../../../../c-bowler/firmware/library/NR-Clib/development/c-bowler.X/dist/default/production/c-bowler.X.a(AbstractPID.o)
                0x9d0143c5                InitAbsPID

.text.RunPID    0x9d0143dc       0x18
 .text.RunPID   0x9d0143dc       0x18 ../../../../../c-bowler/firmware/library/NR-Clib/development/c-bowler.X/dist/default/production/c-bowler.X.a(AbstractPID.o)
                0x9d0143dd                RunPID

.text.Delay10us
                0x9d0143f4       0x18
 .text.Delay10us
                0x9d0143f4       0x18 ../../../../../c-bowler/firmware/library/NR-Clib/development/c-bowler.X/dist/default/production/c-bowler.X.a(Delay.o)
                0x9d0143f5                Delay10us

.text.FlashSwitchMemoryToBootloader
                0x9d01440c       0x18
 .text.FlashSwitchMemoryToBootloader
                0x9d01440c       0x18 ../../../../../c-bowler/firmware/library/NR-Clib/development/c-bowler.X/dist/default/production/c-bowler.X.a(FlashStorage.o)
                0x9d01440d                FlashSwitchMemoryToBootloader

.text.CalcBaud  0x9d014424       0x18
 .text.CalcBaud
                0x9d014424       0x18 ../../../../../c-bowler/firmware/library/NR-Clib/development/c-bowler.X/dist/default/production/c-bowler.X.a(Bowler_UART_HAL.o)
                0x9d014425                CalcBaud

.text.TickGet   0x9d01443c       0x18
 .text.TickGet  0x9d01443c       0x18 ../../../../../c-bowler/firmware/library/NR-Clib/development/c-bowler.X/dist/default/production/c-bowler.X.a(Tick.o)
                0x9d01443d                TickGet

.rodata         0x9d014454       0x18
 .rodata        0x9d014454       0x18 ../../../../../c-bowler/firmware/library/NR-Clib/development/c-bowler.X/dist/default/production/c-bowler.X.a(PidAsync.o)

.text.USBUSARTRxIsReady
                0x9d01446c       0x18
 .text.USBUSARTRxIsReady
                0x9d01446c       0x18 ../../../../../c-bowler/firmware/library/NR-Clib/development/c-bowler.X/dist/default/production/c-bowler.X.a(usb_function_cdc.o)
                0x9d01446d                USBUSARTRxIsReady

.text           0x9d014484       0x18
 .text          0x9d014484       0x18 /home/opt/microchip/xc32/v1.00/bin/../lib/gcc/pic32mx/4.5.1/../../../../pic32mx/lib/libc.a(default-nmi-handler.o)
                0x9d014484                _nmi_handler

.text.getPinsScheduler
                0x9d01449c       0x14
 .text.getPinsScheduler
                0x9d01449c       0x14 build/default/production/_ext/805493626/Abstract_bcs_io.o
                0x9d01449d                getPinsScheduler

.text.setAsyncLocal
                0x9d0144b0       0x14
 .text.setAsyncLocal
                0x9d0144b0       0x14 build/default/production/_ext/805493626/Bcs_IO_AdvancedAsync.o
                0x9d0144b1                setAsyncLocal

.text.checkPIDLimitEventsMine
                0x9d0144c4       0x14
 .text.checkPIDLimitEventsMine
                0x9d0144c4       0x14 build/default/production/_ext/1825615050/PID.o
                0x9d0144c5                checkPIDLimitEventsMine

.text.clearToSend
                0x9d0144d8       0x14
 .text.clearToSend
                0x9d0144d8       0x14 build/default/production/_ext/990863823/CoProcCom.o
                0x9d0144d9                clearToSend

.text.calc      0x9d0144ec       0x14
 .text.calc     0x9d0144ec       0x14 build/default/production/_ext/990863823/ADC.o
                0x9d0144ed                calc

.text.getCounterIntChannnel
                0x9d014500       0x14
 .text.getCounterIntChannnel
                0x9d014500       0x14 build/default/production/_ext/990863823/Counter.o
                0x9d014501                getCounterIntChannnel

.text.getCounterDirChannnel
                0x9d014514       0x14
 .text.getCounterDirChannnel
                0x9d014514       0x14 build/default/production/_ext/990863823/Counter.o
                0x9d014515                getCounterDirChannnel

.text.getCounterHomeChannnel
                0x9d014528       0x14
 .text.getCounterHomeChannnel
                0x9d014528       0x14 build/default/production/_ext/990863823/Counter.o
                0x9d014529                getCounterHomeChannnel

.text.writePPMLink
                0x9d01453c       0x14
 .text.writePPMLink
                0x9d01453c       0x14 build/default/production/_ext/990863823/EEPROMMannager.o
                0x9d01453d                writePPMLink

.text.readPPMLink
                0x9d014550       0x14
 .text.readPPMLink
                0x9d014550       0x14 build/default/production/_ext/990863823/EEPROMMannager.o
                0x9d014551                readPPMLink

.text.setBrownOutDetect
                0x9d014564       0x14
 .text.setBrownOutDetect
                0x9d014564       0x14 build/default/production/_ext/1020318379/ChannelMode.o
                0x9d014565                setBrownOutDetect

.text.setPrintLevel
                0x9d014578       0x14
 .text.setPrintLevel
                0x9d014578       0x14 ../../../../../c-bowler/firmware/library/NR-Clib/development/c-bowler.X/dist/default/production/c-bowler.X.a(Debug.o)
                0x9d014579                setPrintLevel

.text.CheckCRC  0x9d01458c       0x14
 .text.CheckCRC
                0x9d01458c       0x14 ../../../../../c-bowler/firmware/library/NR-Clib/development/c-bowler.X/dist/default/production/c-bowler.X.a(Bowler_Helper.o)
                0x9d01458d                CheckCRC

.text.SetPIDEnabled
                0x9d0145a0       0x14
 .text.SetPIDEnabled
                0x9d0145a0       0x14 ../../../../../c-bowler/firmware/library/NR-Clib/development/c-bowler.X/dist/default/production/c-bowler.X.a(AbstractPID.o)
                0x9d0145a1                SetPIDEnabled

.text.SetPID    0x9d0145b4       0x14
 .text.SetPID   0x9d0145b4       0x14 ../../../../../c-bowler/firmware/library/NR-Clib/development/c-bowler.X/dist/default/production/c-bowler.X.a(AbstractPID.o)
                0x9d0145b5                SetPID

.text.EnableDebugTerminal
                0x9d0145c8       0x14
 .text.EnableDebugTerminal
                0x9d0145c8       0x14 ../../../../../c-bowler/firmware/library/NR-Clib/development/c-bowler.X/dist/default/production/c-bowler.X.a(HAL_P32.o)
                0x9d0145c9                EnableDebugTerminal

.text.Pic32Get_UART_Byte_Count
                0x9d0145dc       0x14
 .text.Pic32Get_UART_Byte_Count
                0x9d0145dc       0x14 ../../../../../c-bowler/firmware/library/NR-Clib/development/c-bowler.X/dist/default/production/c-bowler.X.a(Bowler_UART_HAL.o)
                0x9d0145dd                Pic32Get_UART_Byte_Count

.text.mySetLineCodingHandler
                0x9d0145f0       0x14
 .text.mySetLineCodingHandler
                0x9d0145f0       0x14 ../../../../../c-bowler/firmware/library/NR-Clib/development/c-bowler.X/dist/default/production/c-bowler.X.a(usb_callback.o)
                0x9d0145f1                mySetLineCodingHandler

.text           0x9d014604       0x10
 .text          0x9d014604       0x10 /home/opt/microchip/xc32/v1.00/bin/../lib/gcc/pic32mx/4.5.1/../../../../pic32mx/lib/crt0.o
                0x9d01460c                __crt0_exit

.rodata         0x9d014614       0x10
 .rodata        0x9d014614       0x10 build/default/production/_ext/1051272628/Namespace_bcs_io_setmode.o

.text.asyncCallback
                0x9d014624       0x10
 .text.asyncCallback
                0x9d014624       0x10 build/default/production/_ext/1825615050/PID.o
                0x9d014625                asyncCallback

.text.isAscii   0x9d014634       0x10
 .text.isAscii  0x9d014634       0x10 build/default/production/_ext/1978776677/DownStreamPackets.o
                0x9d014635                isAscii

.text.setHeartBeatState
                0x9d014644       0x10
 .text.setHeartBeatState
                0x9d014644       0x10 build/default/production/_ext/321196743/Namespace_neuronrobotics_dyio.o
                0x9d014645                setHeartBeatState

.text.getHeartBeatTime
                0x9d014654       0x10
 .text.getHeartBeatTime
                0x9d014654       0x10 build/default/production/_ext/321196743/Namespace_neuronrobotics_dyio.o
                0x9d014655                getHeartBeatTime

.text.main      0x9d014664       0x10
 .text.main     0x9d014664       0x10 build/default/production/_ext/1360937237/Main.o
                0x9d014665                main

.text.getNumBytes
                0x9d014674       0x10
 .text.getNumBytes
                0x9d014674       0x10 ../../../../../c-bowler/firmware/library/NR-Clib/development/c-bowler.X/dist/default/production/c-bowler.X.a(BowlerPacketParser.o)
                0x9d014675                getNumBytes

.text.setPrintStream
                0x9d014684       0x10
 .text.setPrintStream
                0x9d014684       0x10 ../../../../../c-bowler/firmware/library/NR-Clib/development/c-bowler.X/dist/default/production/c-bowler.X.a(Debug.o)
                0x9d014685                setPrintStream

.text.GetLowNib
                0x9d014694       0x10
 .text.GetLowNib
                0x9d014694       0x10 ../../../../../c-bowler/firmware/library/NR-Clib/development/c-bowler.X/dist/default/production/c-bowler.X.a(Debug.o)
                0x9d014695                GetLowNib

.text.GetHighNib
                0x9d0146a4       0x10
 .text.GetHighNib
                0x9d0146a4       0x10 ../../../../../c-bowler/firmware/library/NR-Clib/development/c-bowler.X/dist/default/production/c-bowler.X.a(Debug.o)
                0x9d0146a5                GetHighNib

.text.FifoGetPacketSpaceAvailible
                0x9d0146b4       0x10
 .text.FifoGetPacketSpaceAvailible
                0x9d0146b4       0x10 ../../../../../c-bowler/firmware/library/NR-Clib/development/c-bowler.X/dist/default/production/c-bowler.X.a(FIFO.o)
                0x9d0146b5                FifoGetPacketSpaceAvailible

.text.SetCRC    0x9d0146c4       0x10
 .text.SetCRC   0x9d0146c4       0x10 ../../../../../c-bowler/firmware/library/NR-Clib/development/c-bowler.X/dist/default/production/c-bowler.X.a(Bowler_Helper.o)
                0x9d0146c5                SetCRC

.text.get16bit  0x9d0146d4       0x10
 .text.get16bit
                0x9d0146d4       0x10 ../../../../../c-bowler/firmware/library/NR-Clib/development/c-bowler.X/dist/default/production/c-bowler.X.a(Bowler_Helper.o)
                0x9d0146d5                get16bit

.text.pidAsyncEventCallbackLocal
                0x9d0146e4       0x10
 .text.pidAsyncEventCallbackLocal
                0x9d0146e4       0x10 ../../../../../c-bowler/firmware/library/NR-Clib/development/c-bowler.X/dist/default/production/c-bowler.X.a(Namespace_bcs_pid.o)
                0x9d0146e5                pidAsyncEventCallbackLocal

.text.OnPidConfigure
                0x9d0146f4       0x10
 .text.OnPidConfigure
                0x9d0146f4       0x10 ../../../../../c-bowler/firmware/library/NR-Clib/development/c-bowler.X/dist/default/production/c-bowler.X.a(AbstractPID.o)
                0x9d0146f5                OnPidConfigure

.text.isPidEnabled
                0x9d014704       0x10
 .text.isPidEnabled
                0x9d014704       0x10 ../../../../../c-bowler/firmware/library/NR-Clib/development/c-bowler.X/dist/default/production/c-bowler.X.a(AbstractPID.o)
                0x9d014705                isPidEnabled

.text.ZeroPID   0x9d014714       0x10
 .text.ZeroPID  0x9d014714       0x10 ../../../../../c-bowler/firmware/library/NR-Clib/development/c-bowler.X/dist/default/production/c-bowler.X.a(AbstractPID.o)
                0x9d014715                ZeroPID

.text.GotUSBData
                0x9d014724       0x10
 .text.GotUSBData
                0x9d014724       0x10 ../../../../../c-bowler/firmware/library/NR-Clib/development/c-bowler.X/dist/default/production/c-bowler.X.a(usb_fifo.o)
                0x9d014725                GotUSBData

.text.disableSerialComs
                0x9d014734       0x10
 .text.disableSerialComs
                0x9d014734       0x10 ../../../../../c-bowler/firmware/library/NR-Clib/development/c-bowler.X/dist/default/production/c-bowler.X.a(HAL_P32.o)
                0x9d014735                disableSerialComs

.text.putStream
                0x9d014744       0x10
 .text.putStream
                0x9d014744       0x10 ../../../../../c-bowler/firmware/library/NR-Clib/development/c-bowler.X/dist/default/production/c-bowler.X.a(HAL_P32.o)
                0x9d014745                putStream

.text.GetPacketUSB
                0x9d014754       0x10
 .text.GetPacketUSB
                0x9d014754       0x10 ../../../../../c-bowler/firmware/library/NR-Clib/development/c-bowler.X/dist/default/production/c-bowler.X.a(Bowler_USB_HAL.o)
                0x9d014755                GetPacketUSB

.text.GotUARTData
                0x9d014764       0x10
 .text.GotUARTData
                0x9d014764       0x10 ../../../../../c-bowler/firmware/library/NR-Clib/development/c-bowler.X/dist/default/production/c-bowler.X.a(Bowler_UART_HAL.o)
                0x9d014765                GotUARTData

.rodata         0x9d014774       0x10
 .rodata        0x9d014774       0x10 ../../../../../c-bowler/firmware/library/NR-Clib/development/c-bowler.X/dist/default/production/c-bowler.X.a(Namespace_bcs_rpc.o)

.text.mystrlen  0x9d014784        0xc
 .text.mystrlen
                0x9d014784        0xc build/default/production/_ext/805493626/Debug_DyIO.o
                0x9d014785                mystrlen

.rodata         0x9d014790        0xc
 .rodata        0x9d014790        0xc build/default/production/_ext/805493626/Debug_DyIO.o

.text.unlockServos
                0x9d01479c        0xc
 .text.unlockServos
                0x9d01479c        0xc build/default/production/_ext/990863823/ADC.o
                0x9d01479d                unlockServos

.text.lockServos
                0x9d0147a8        0xc
 .text.lockServos
                0x9d0147a8        0xc build/default/production/_ext/990863823/ADC.o
                0x9d0147a9                lockServos

.text.isSPI     0x9d0147b4        0xc
 .text.isSPI    0x9d0147b4        0xc build/default/production/_ext/990863823/SPI.o
                0x9d0147b5                isSPI

.text.UpdateAVRLED
                0x9d0147c0        0xc
 .text.UpdateAVRLED
                0x9d0147c0        0xc build/default/production/_ext/321196743/Namespace_neuronrobotics_dyio.o
                0x9d0147c1                UpdateAVRLED

.text.GetBowlerPacketDebug
                0x9d0147cc        0xc
 .text.GetBowlerPacketDebug
                0x9d0147cc        0xc ../../../../../c-bowler/firmware/library/NR-Clib/development/c-bowler.X/dist/default/production/c-bowler.X.a(BowlerPacketParser.o)
                0x9d0147cd                GetBowlerPacketDebug

.text.GetBowlerPacket
                0x9d0147d8        0xc
 .text.GetBowlerPacket
                0x9d0147d8        0xc ../../../../../c-bowler/firmware/library/NR-Clib/development/c-bowler.X/dist/default/production/c-bowler.X.a(BowlerPacketParser.o)
                0x9d0147d9                GetBowlerPacket

.text.ReadFirstByte
                0x9d0147e4        0xc
 .text.ReadFirstByte
                0x9d0147e4        0xc ../../../../../c-bowler/firmware/library/NR-Clib/development/c-bowler.X/dist/default/production/c-bowler.X.a(FIFO.o)
                0x9d0147e5                ReadFirstByte

.text.FifoGetByteCount
                0x9d0147f0        0xc
 .text.FifoGetByteCount
                0x9d0147f0        0xc ../../../../../c-bowler/firmware/library/NR-Clib/development/c-bowler.X/dist/default/production/c-bowler.X.a(FIFO.o)
                0x9d0147f1                FifoGetByteCount

.text.set16bit  0x9d0147fc        0xc
 .text.set16bit
                0x9d0147fc        0xc ../../../../../c-bowler/firmware/library/NR-Clib/development/c-bowler.X/dist/default/production/c-bowler.X.a(Bowler_Helper.o)
                0x9d0147fd                set16bit

.text.forceOpenUSB
                0x9d014808        0xc
 .text.forceOpenUSB
                0x9d014808        0xc ../../../../../c-bowler/firmware/library/NR-Clib/development/c-bowler.X/dist/default/production/c-bowler.X.a(usb_fifo.o)
                0x9d014809                forceOpenUSB

.text.getMs     0x9d014814        0xc
 .text.getMs    0x9d014814        0xc ../../../../../c-bowler/firmware/library/NR-Clib/development/c-bowler.X/dist/default/production/c-bowler.X.a(HAL_P32.o)
                0x9d014815                getMs

.text.putCharDebug
                0x9d014820        0xc
 .text.putCharDebug
                0x9d014820        0xc ../../../../../c-bowler/firmware/library/NR-Clib/development/c-bowler.X/dist/default/production/c-bowler.X.a(HAL_P32.o)
                0x9d014821                putCharDebug

.text.startScheduler
                0x9d01482c        0xc
 .text.startScheduler
                0x9d01482c        0xc ../../../../../c-bowler/firmware/library/NR-Clib/development/c-bowler.X/dist/default/production/c-bowler.X.a(HAL_P32.o)
                0x9d01482d                startScheduler

.text.SendPacketUSB
                0x9d014838        0xc
 .text.SendPacketUSB
                0x9d014838        0xc ../../../../../c-bowler/firmware/library/NR-Clib/development/c-bowler.X/dist/default/production/c-bowler.X.a(Bowler_USB_HAL.o)
                0x9d014839                SendPacketUSB

.text.Get_USB_Byte_Count
                0x9d014844        0xc
 .text.Get_USB_Byte_Count
                0x9d014844        0xc ../../../../../c-bowler/firmware/library/NR-Clib/development/c-bowler.X/dist/default/production/c-bowler.X.a(Bowler_USB_HAL.o)
                0x9d014845                Get_USB_Byte_Count

.text.Pic32UART_HAL_INIT
                0x9d014850        0xc
 .text.Pic32UART_HAL_INIT
                0x9d014850        0xc ../../../../../c-bowler/firmware/library/NR-Clib/development/c-bowler.X/dist/default/production/c-bowler.X.a(Bowler_UART_HAL.o)
                0x9d014851                Pic32UART_HAL_INIT

.text.USBCBCheckOtherReq
                0x9d01485c        0xc
 .text.USBCBCheckOtherReq
                0x9d01485c        0xc ../../../../../c-bowler/firmware/library/NR-Clib/development/c-bowler.X/dist/default/production/c-bowler.X.a(usb_callback.o)
                0x9d01485d                USBCBCheckOtherReq

.text.USBCBInitEP
                0x9d014868        0xc
 .text.USBCBInitEP
                0x9d014868        0xc ../../../../../c-bowler/firmware/library/NR-Clib/development/c-bowler.X/dist/default/production/c-bowler.X.a(usb_callback.o)
                0x9d014869                USBCBInitEP

.text.SetUSB_VID_PID
                0x9d014874        0xc
 .text.SetUSB_VID_PID
                0x9d014874        0xc ../../../../../c-bowler/firmware/library/NR-Clib/development/c-bowler.X/dist/default/production/c-bowler.X.a(usb_descriptors.o)
                0x9d014875                SetUSB_VID_PID

.text._bootstrap_exception_handler
                0x9d014880        0xc
 .text._bootstrap_exception_handler
                0x9d014880        0xc /home/opt/microchip/xc32/v1.00/bin/../lib/gcc/pic32mx/4.5.1/../../../../pic32mx/lib/libc.a(default-bootstrap-exception-handler.o)
                0x9d014880                _bootstrap_exception_handler

.text.GetNumberOfIOChannels
                0x9d01488c        0x8
 .text.GetNumberOfIOChannels
                0x9d01488c        0x8 build/default/production/_ext/805493626/Abstract_bcs_io.o
                0x9d01488d                GetNumberOfIOChannels

.text.isProcessing
                0x9d014894        0x8
 .text.isProcessing
                0x9d014894        0x8 build/default/production/_ext/990863823/CoProcCom.o
                0x9d014895                isProcessing

.text.isLocked  0x9d01489c        0x8
 .text.isLocked
                0x9d01489c        0x8 build/default/production/_ext/990863823/ADC.o
                0x9d01489d                isLocked

.text.isActive  0x9d0148a4        0x8
 .text.isActive
                0x9d0148a4        0x8 build/default/production/_ext/990863823/ADC.o
                0x9d0148a5                isActive

.text.getBrownOutDetect
                0x9d0148ac        0x8
 .text.getBrownOutDetect
                0x9d0148ac        0x8 build/default/production/_ext/1020318379/ChannelMode.o
                0x9d0148ad                getBrownOutDetect

.rodata         0x9d0148b4        0x8
 .rodata        0x9d0148b4        0x8 build/default/production/_ext/1281821416/Namespace_bcs_safe.o

.text.getHeartBeatLock
                0x9d0148bc        0x8
 .text.getHeartBeatLock
                0x9d0148bc        0x8 build/default/production/_ext/321196743/Namespace_neuronrobotics_dyio.o
                0x9d0148bd                getHeartBeatLock

.rodata         0x9d0148c4        0x8
 .rodata        0x9d0148c4        0x8 build/default/production/_ext/321196743/Namespace_bcs_pid_dypid.o

.text.getPrintLevel
                0x9d0148cc        0x8
 .text.getPrintLevel
                0x9d0148cc        0x8 ../../../../../c-bowler/firmware/library/NR-Clib/development/c-bowler.X/dist/default/production/c-bowler.X.a(Debug.o)
                0x9d0148cd                getPrintLevel

.text.SetPacketLegnth
                0x9d0148d4        0x8
 .text.SetPacketLegnth
                0x9d0148d4        0x8 ../../../../../c-bowler/firmware/library/NR-Clib/development/c-bowler.X/dist/default/production/c-bowler.X.a(Bowler_Helper.o)
                0x9d0148d5                SetPacketLegnth

.text.GetPacketLegnth
                0x9d0148dc        0x8
 .text.GetPacketLegnth
                0x9d0148dc        0x8 ../../../../../c-bowler/firmware/library/NR-Clib/development/c-bowler.X/dist/default/production/c-bowler.X.a(Bowler_Helper.o)
                0x9d0148dd                GetPacketLegnth

.text.set8bit   0x9d0148e4        0x8
 .text.set8bit  0x9d0148e4        0x8 ../../../../../c-bowler/firmware/library/NR-Clib/development/c-bowler.X/dist/default/production/c-bowler.X.a(Bowler_Helper.o)
                0x9d0148e5                set8bit

.text.getNumberOfPidChannels
                0x9d0148ec        0x8
 .text.getNumberOfPidChannels
                0x9d0148ec        0x8 ../../../../../c-bowler/firmware/library/NR-Clib/development/c-bowler.X/dist/default/production/c-bowler.X.a(AbstractPID.o)
                0x9d0148ed                getNumberOfPidChannels

.text.isUSBActave
                0x9d0148f4        0x8
 .text.isUSBActave
                0x9d0148f4        0x8 ../../../../../c-bowler/firmware/library/NR-Clib/development/c-bowler.X/dist/default/production/c-bowler.X.a(usb_fifo.o)
                0x9d0148f5                isUSBActave

.text.GetPICUARTFifo
                0x9d0148fc        0x8
 .text.GetPICUARTFifo
                0x9d0148fc        0x8 ../../../../../c-bowler/firmware/library/NR-Clib/development/c-bowler.X/dist/default/production/c-bowler.X.a(Bowler_UART_HAL.o)
                0x9d0148fd                GetPICUARTFifo

.text.SetPICUARTFifo
                0x9d014904        0x8
 .text.SetPICUARTFifo
                0x9d014904        0x8 ../../../../../c-bowler/firmware/library/NR-Clib/development/c-bowler.X/dist/default/production/c-bowler.X.a(Bowler_UART_HAL.o)
                0x9d014905                SetPICUARTFifo

.text.TickGetUpper
                0x9d01490c        0x8
 .text.TickGetUpper
                0x9d01490c        0x8 ../../../../../c-bowler/firmware/library/NR-Clib/development/c-bowler.X/dist/default/production/c-bowler.X.a(Tick.o)
                0x9d01490d                TickGetUpper

.text.TickGetLower
                0x9d014914        0x8
 .text.TickGetLower
                0x9d014914        0x8 ../../../../../c-bowler/firmware/library/NR-Clib/development/c-bowler.X/dist/default/production/c-bowler.X.a(Tick.o)
                0x9d014915                TickGetLower

.text._on_reset
                0x9d01491c        0x8
 .text._on_reset
                0x9d01491c        0x8 /home/opt/microchip/xc32/v1.00/bin/../lib/gcc/pic32mx/4.5.1/../../../../pic32mx/lib/libc.a(default-on-reset.o)
                0x9d01491c                _on_reset

.text._on_bootstrap
                0x9d014924        0x8
 .text._on_bootstrap
                0x9d014924        0x8 /home/opt/microchip/xc32/v1.00/bin/../lib/gcc/pic32mx/4.5.1/../../../../pic32mx/lib/libc.a(default-on-bootstrap.o)
                0x9d014924                _on_bootstrap

.text.INTEnableInterrupts
                0x9d01492c        0x8
 .text.INTEnableInterrupts
                0x9d01492c        0x8 /home/opt/microchip/xc32/v1.00/bin/../lib/gcc/pic32mx/4.5.1/../../../../pic32mx/lib/libmchp_peripheral_32MX440F128H.a(int_enable_interrupts_lib.o)
                0x9d01492c                INTEnableInterrupts

.text.INTDisableInterrupts
                0x9d014934        0x8
 .text.INTDisableInterrupts
                0x9d014934        0x8 /home/opt/microchip/xc32/v1.00/bin/../lib/gcc/pic32mx/4.5.1/../../../../pic32mx/lib/libmchp_peripheral_32MX440F128H.a(int_disable_interrupts_lib.o)
                0x9d014934                INTDisableInterrupts

.rodata         0x9d01493c        0x8
 .rodata        0x9d01493c        0x8 /home/opt/microchip/xc32/v1.00/bin/../lib/gcc/pic32mx/4.5.1/../../../../pic32mx/lib/libmchp_peripheral_32MX440F128H.a(uart_lib.o)
                0x9d01493c                uartReg

.text.bcsIoSetmodeAsyncEventCallback
                0x9d014944        0x4
 .text.bcsIoSetmodeAsyncEventCallback
                0x9d014944        0x4 build/default/production/_ext/1051272628/Namespace_bcs_io_setmode.o
                0x9d014945                bcsIoSetmodeAsyncEventCallback

.text.CartesianControllerInit
                0x9d014948        0x4
 .text.CartesianControllerInit
                0x9d014948        0x4 build/default/production/_ext/1825615050/CartesianController.o
                0x9d014949                CartesianControllerInit

.text.CartesianControllerCoOp
                0x9d01494c        0x4
 .text.CartesianControllerCoOp
                0x9d01494c        0x4 build/default/production/_ext/1825615050/CartesianController.o
                0x9d01494d                CartesianControllerCoOp

.text.CartesianControllerGetPacket
                0x9d014950        0x4
 .text.CartesianControllerGetPacket
                0x9d014950        0x4 build/default/production/_ext/1825615050/CartesianController.o
                0x9d014951                CartesianControllerGetPacket

.text.CartesianControllerPostPacket
                0x9d014954        0x4
 .text.CartesianControllerPostPacket
                0x9d014954        0x4 build/default/production/_ext/1825615050/CartesianController.o
                0x9d014955                CartesianControllerPostPacket

.text.CartesianControllerCriticalPacket
                0x9d014958        0x4
 .text.CartesianControllerCriticalPacket
                0x9d014958        0x4 build/default/production/_ext/1825615050/CartesianController.o
                0x9d014959                CartesianControllerCriticalPacket

.text.SetNewConfigurationDataTable
                0x9d01495c        0x4
 .text.SetNewConfigurationDataTable
                0x9d01495c        0x4 build/default/production/_ext/990863823/DyIODataTableManager.o
                0x9d01495d                SetNewConfigurationDataTable

.text.ConfigChannel
                0x9d014960        0x4
 .text.ConfigChannel
                0x9d014960        0x4 build/default/production/_ext/1020318379/ChannelConfig.o
                0x9d014961                ConfigChannel

.text.bcsSafeAsyncEventCallback
                0x9d014964        0x4
 .text.bcsSafeAsyncEventCallback
                0x9d014964        0x4 build/default/production/_ext/1281821416/Namespace_bcs_safe.o
                0x9d014965                bcsSafeAsyncEventCallback

.text.neuronRoboticsDyIOProcessor_p
                0x9d014968        0x4
 .text.neuronRoboticsDyIOProcessor_p
                0x9d014968        0x4 build/default/production/_ext/321196743/Namespace_neuronrobotics_dyio.o
                0x9d014969                neuronRoboticsDyIOProcessor_p

.text.lockFifo  0x9d01496c        0x4
 .text.lockFifo
                0x9d01496c        0x4 ../../../../../c-bowler/firmware/library/NR-Clib/development/c-bowler.X/dist/default/production/c-bowler.X.a(FIFO.o)
                0x9d01496d                lockFifo

.text.unLockFifo
                0x9d014970        0x4
 .text.unLockFifo
                0x9d014970        0x4 ../../../../../c-bowler/firmware/library/NR-Clib/development/c-bowler.X/dist/default/production/c-bowler.X.a(FIFO.o)
                0x9d014971                unLockFifo

.text.DataLegnthFromPacket
                0x9d014974        0x4
 .text.DataLegnthFromPacket
                0x9d014974        0x4 ../../../../../c-bowler/firmware/library/NR-Clib/development/c-bowler.X/dist/default/production/c-bowler.X.a(Bowler_Helper.o)
                0x9d014975                DataLegnthFromPacket

.text.DelayIncServo
                0x9d014978        0x4
 .text.DelayIncServo
                0x9d014978        0x4 ../../../../../c-bowler/firmware/library/NR-Clib/development/c-bowler.X/dist/default/production/c-bowler.X.a(Delay.o)
                0x9d014979                DelayIncServo

.text.USBCBSuspend
                0x9d01497c        0x4
 .text.USBCBSuspend
                0x9d01497c        0x4 ../../../../../c-bowler/firmware/library/NR-Clib/development/c-bowler.X/dist/default/production/c-bowler.X.a(usb_callback.o)
                0x9d01497d                USBCBSuspend

.text.USBCBWakeFromSuspend
                0x9d014980        0x4
 .text.USBCBWakeFromSuspend
                0x9d014980        0x4 ../../../../../c-bowler/firmware/library/NR-Clib/development/c-bowler.X/dist/default/production/c-bowler.X.a(usb_callback.o)
                0x9d014981                USBCBWakeFromSuspend

.text.USBCB_SOF_Handler
                0x9d014984        0x4
 .text.USBCB_SOF_Handler
                0x9d014984        0x4 ../../../../../c-bowler/firmware/library/NR-Clib/development/c-bowler.X/dist/default/production/c-bowler.X.a(usb_callback.o)
                0x9d014985                USBCB_SOF_Handler

.text.USBCBErrorHandler
                0x9d014988        0x4
 .text.USBCBErrorHandler
                0x9d014988        0x4 ../../../../../c-bowler/firmware/library/NR-Clib/development/c-bowler.X/dist/default/production/c-bowler.X.a(usb_callback.o)
                0x9d014989                USBCBErrorHandler

.text.USBCBStdSetDscHandler
                0x9d01498c        0x4
 .text.USBCBStdSetDscHandler
                0x9d01498c        0x4 ../../../../../c-bowler/firmware/library/NR-Clib/development/c-bowler.X/dist/default/production/c-bowler.X.a(usb_callback.o)
                0x9d01498d                USBCBStdSetDscHandler

.text%z262      0x00000000        0x0
 .text          0x00000000        0x0 /home/opt/microchip/xc32/v1.00/bin/../lib/gcc/pic32mx/4.5.1/../../../../pic32mx/lib/libmchp_peripheral_32MX440F128H.a(int_restore_interrupts_lib.o)

.text%z263      0x00000000        0x0
 .text          0x00000000        0x0 /home/opt/microchip/xc32/v1.00/bin/../lib/gcc/pic32mx/4.5.1/../../../../pic32mx/lib/libmchp_peripheral_32MX440F128H.a(uart_lib.o)

.text%z264      0x00000000        0x0
 .text          0x00000000        0x0 /home/opt/microchip/xc32/v1.00/bin/../lib/gcc/pic32mx/4.5.1/../../../../pic32mx/lib/libmchp_peripheral_32MX440F128H.a(_ports_tbl_libp.o)

.text%z265      0x00000000        0x0
 .text          0x00000000        0x0 /home/opt/microchip/xc32/v1.00/bin/../lib/gcc/pic32mx/4.5.1/../../../../pic32mx/lib/libmchp_peripheral_32MX440F128H.a(port_set_bits_lib.o)

.text%z266      0x00000000        0x0
 .text          0x00000000        0x0 /home/opt/microchip/xc32/v1.00/bin/../lib/gcc/pic32mx/4.5.1/../../../../pic32mx/lib/libmchp_peripheral_32MX440F128H.a(port_clear_bits_lib.o)

.text%z267      0x00000000        0x0
 .text          0x00000000        0x0 /home/opt/microchip/xc32/v1.00/bin/../lib/gcc/pic32mx/4.5.1/../../../../pic32mx/lib/libmchp_peripheral_32MX440F128H.a(port_set_pins_digital_out_lib.o)

.text%z268      0x00000000        0x0
 .text          0x00000000        0x0 /home/opt/microchip/xc32/v1.00/bin/../lib/gcc/pic32mx/4.5.1/../../../../pic32mx/lib/libmchp_peripheral_32MX440F128H.a(nvm_write_word_lib.o)

.text%z269      0x00000000        0x0
 .text          0x00000000        0x0 /home/opt/microchip/xc32/v1.00/bin/../lib/gcc/pic32mx/4.5.1/../../../../pic32mx/lib/libmchp_peripheral_32MX440F128H.a(nvm_operation_lib.o)

.text%z270      0x00000000        0x0
 .text          0x00000000        0x0 /home/opt/microchip/xc32/v1.00/bin/../lib/gcc/pic32mx/4.5.1/../../../../pic32mx/lib/libmchp_peripheral_32MX440F128H.a(nvm_erase_page_lib.o)

.text%z271      0x00000000        0x0
 .text          0x00000000        0x0 /home/opt/microchip/xc32/v1.00/bin/../lib/gcc/pic32mx/4.5.1/../../../../pic32mx/lib/libmchp_peripheral_32MX440F128H.a(spi_brg_tbl_lib_legacy.o)

.text%z272      0x00000000        0x0
 .text          0x00000000        0x0 /home/opt/microchip/xc32/v1.00/bin/../lib/gcc/pic32mx/4.5.1/../../../../pic32mx/lib/libmchp_peripheral_32MX440F128H.a(spi_open_spi2_lib_legacy.o)

.text%z273      0x00000000        0x0
 .text          0x00000000        0x0 /home/opt/microchip/xc32/v1.00/bin/../lib/gcc/pic32mx/4.5.1/../../../../pic32mx/lib/libmchp_peripheral_32MX440F128H.a(spi_getc_spi2_lib_legacy.o)

.text%z274      0x00000000        0x0
 .text          0x00000000        0x0 /home/opt/microchip/xc32/v1.00/bin/../lib/gcc/pic32mx/4.5.1/../../../../pic32mx/lib/libmchp_peripheral_32MX440F128H.a(int_tbl_lib.o)

.text%z275      0x00000000        0x0
 .text          0x00000000        0x0 /home/opt/microchip/xc32/v1.00/bin/../lib/gcc/pic32mx/4.5.1/../../../../pic32mx/lib/libmchp_peripheral_32MX440F128H.a(int_enable_mv_int_lib.o)

.text%z276      0x00000000        0x0
 .text          0x00000000        0x0 /home/opt/microchip/xc32/v1.00/bin/../lib/gcc/pic32mx/4.5.1/../../../../pic32mx/lib/libmchp_peripheral_32MX440F128H.a(int_disable_interrupts_lib.o)

.text%z277      0x00000000        0x0
 .text          0x00000000        0x0 /home/opt/microchip/xc32/v1.00/bin/../lib/gcc/pic32mx/4.5.1/../../../../pic32mx/lib/libmchp_peripheral_32MX440F128H.a(int_enable_interrupts_lib.o)

.text%z278      0x00000000        0x0
 .text          0x00000000        0x0 /home/opt/microchip/xc32/v1.00/bin/../lib/gcc/pic32mx/4.5.1/../../../../pic32mx/lib/libmchp_peripheral_32MX440F128H.a(soft_reset_lib.o)

.text%z279      0x00000000        0x0
 .text          0x00000000        0x0 /home/opt/microchip/xc32/v1.00/bin/../lib/gcc/pic32mx/4.5.1/../../../../pic32mx/lib/./proc/32MX440F128H/processor.o

.text%z280      0x00000000        0x0
 .text          0x00000000        0x0 /home/opt/microchip/xc32/v1.00/bin/../lib/gcc/pic32mx/4.5.1/../../../../pic32mx/lib/libc.a(default-on-bootstrap.o)

.text%z281      0x00000000        0x0
 .text          0x00000000        0x0 /home/opt/microchip/xc32/v1.00/bin/../lib/gcc/pic32mx/4.5.1/../../../../pic32mx/lib/libc.a(default-on-reset.o)

.text%z282      0x00000000        0x0
 .text          0x00000000        0x0 /home/opt/microchip/xc32/v1.00/bin/../lib/gcc/pic32mx/4.5.1/../../../../pic32mx/lib/libc.a(default-bootstrap-exception-handler.o)

.text%z283      0x00000000        0x0
 .text          0x00000000        0x0 /home/opt/microchip/xc32/v1.00/bin/../lib/gcc/pic32mx/4.5.1/../../../../pic32mx/lib/libc.a(general-exception.o)

.text%z284      0x00000000        0x0
 .text          0x00000000        0x0 ../../../../../c-bowler/firmware/library/NR-Clib/development/c-bowler.X/dist/default/production/c-bowler.X.a(PidVelocity.o)

.text%z285      0x00000000        0x0
 .text          0x00000000        0x0 ../../../../../c-bowler/firmware/library/NR-Clib/development/c-bowler.X/dist/default/production/c-bowler.X.a(usb_descriptors.o)

.text%z286      0x00000000        0x0
 .text          0x00000000        0x0 ../../../../../c-bowler/firmware/library/NR-Clib/development/c-bowler.X/dist/default/production/c-bowler.X.a(usb_function_cdc.o)

.text%z287      0x00000000        0x0
 .text          0x00000000        0x0 ../../../../../c-bowler/firmware/library/NR-Clib/development/c-bowler.X/dist/default/production/c-bowler.X.a(usb_callback.o)

.text%z288      0x00000000        0x0
 .text          0x00000000        0x0 ../../../../../c-bowler/firmware/library/NR-Clib/development/c-bowler.X/dist/default/production/c-bowler.X.a(PidAsync.o)

.text%z289      0x00000000        0x0
 .text          0x00000000        0x0 ../../../../../c-bowler/firmware/library/NR-Clib/development/c-bowler.X/dist/default/production/c-bowler.X.a(PidHysteresis.o)

.text%z290      0x00000000        0x0
 .text          0x00000000        0x0 ../../../../../c-bowler/firmware/library/NR-Clib/development/c-bowler.X/dist/default/production/c-bowler.X.a(PidRpc.o)

.text%z291      0x00000000        0x0
 .text          0x00000000        0x0 ../../../../../c-bowler/firmware/library/NR-Clib/development/c-bowler.X/dist/default/production/c-bowler.X.a(Namespace_bcs_rpc.o)

.text%z292      0x00000000        0x0
 .text          0x00000000        0x0 ../../../../../c-bowler/firmware/library/NR-Clib/development/c-bowler.X/dist/default/production/c-bowler.X.a(UART.o)

.text%z293      0x00000000        0x0
 .text          0x00000000        0x0 ../../../../../c-bowler/firmware/library/NR-Clib/development/c-bowler.X/dist/default/production/c-bowler.X.a(Tick.o)

.text%z294      0x00000000        0x0
 .text          0x00000000        0x0 ../../../../../c-bowler/firmware/library/NR-Clib/development/c-bowler.X/dist/default/production/c-bowler.X.a(Bowler_UART_HAL.o)

.text%z295      0x00000000        0x0
 .text          0x00000000        0x0 ../../../../../c-bowler/firmware/library/NR-Clib/development/c-bowler.X/dist/default/production/c-bowler.X.a(FlashStorage.o)

.text%z296      0x00000000        0x0
 .text          0x00000000        0x0 ../../../../../c-bowler/firmware/library/NR-Clib/development/c-bowler.X/dist/default/production/c-bowler.X.a(Bowler_USB_HAL.o)

.text%z297      0x00000000        0x0
 .text          0x00000000        0x0 ../../../../../c-bowler/firmware/library/NR-Clib/development/c-bowler.X/dist/default/production/c-bowler.X.a(Delay.o)

.text%z298      0x00000000        0x0
 .text          0x00000000        0x0 ../../../../../c-bowler/firmware/library/NR-Clib/development/c-bowler.X/dist/default/production/c-bowler.X.a(HAL_P32.o)

.text%z299      0x00000000        0x0
 .text          0x00000000        0x0 ../../../../../c-bowler/firmware/library/NR-Clib/development/c-bowler.X/dist/default/production/c-bowler.X.a(ADC.o)

.text%z300      0x00000000        0x0
 .text          0x00000000        0x0 ../../../../../c-bowler/firmware/library/NR-Clib/development/c-bowler.X/dist/default/production/c-bowler.X.a(LED.o)

.text%z301      0x00000000        0x0
 .text          0x00000000        0x0 ../../../../../c-bowler/firmware/library/NR-Clib/development/c-bowler.X/dist/default/production/c-bowler.X.a(usb_device.o)

.text%z302      0x00000000        0x0
 .text          0x00000000        0x0 ../../../../../c-bowler/firmware/library/NR-Clib/development/c-bowler.X/dist/default/production/c-bowler.X.a(usb_fifo.o)

.text%z303      0x00000000        0x0
 .text          0x00000000        0x0 ../../../../../c-bowler/firmware/library/NR-Clib/development/c-bowler.X/dist/default/production/c-bowler.X.a(AbstractPID.o)

.text%z304      0x00000000        0x0
 .text          0x00000000        0x0 ../../../../../c-bowler/firmware/library/NR-Clib/development/c-bowler.X/dist/default/production/c-bowler.X.a(Namespace_bcs_pid.o)

.text%z305      0x00000000        0x0
 .text          0x00000000        0x0 ../../../../../c-bowler/firmware/library/NR-Clib/development/c-bowler.X/dist/default/production/c-bowler.X.a(Scheduler.o)

.text%z306      0x00000000        0x0
 .text          0x00000000        0x0 ../../../../../c-bowler/firmware/library/NR-Clib/development/c-bowler.X/dist/default/production/c-bowler.X.a(Bowler_Helper.o)

.text%z307      0x00000000        0x0
 .text          0x00000000        0x0 ../../../../../c-bowler/firmware/library/NR-Clib/development/c-bowler.X/dist/default/production/c-bowler.X.a(FIFO.o)

.text%z308      0x00000000        0x0
 .text          0x00000000        0x0 ../../../../../c-bowler/firmware/library/NR-Clib/development/c-bowler.X/dist/default/production/c-bowler.X.a(Debug.o)

.text%z309      0x00000000        0x0
 .text          0x00000000        0x0 ../../../../../c-bowler/firmware/library/NR-Clib/development/c-bowler.X/dist/default/production/c-bowler.X.a(Bowler_Server.o)

.text%z310      0x00000000        0x0
 .text          0x00000000        0x0 ../../../../../c-bowler/firmware/library/NR-Clib/development/c-bowler.X/dist/default/production/c-bowler.X.a(Namespace_bcs_core.o)

.text%z311      0x00000000        0x0
 .text          0x00000000        0x0 ../../../../../c-bowler/firmware/library/NR-Clib/development/c-bowler.X/dist/default/production/c-bowler.X.a(BowlerPacketParser.o)

.text%z312      0x00000000        0x0
 .text          0x00000000        0x0 build/default/production/_ext/1360937237/DyIOMain.o

.text%z313      0x00000000        0x0
 .text          0x00000000        0x0 build/default/production/_ext/1360937237/Main.o

.text%z314      0x00000000        0x0
 .text          0x00000000        0x0 build/default/production/_ext/321196743/Namespace_bcs_pid_dypid.o

.text%z315      0x00000000        0x0
 .text          0x00000000        0x0 build/default/production/_ext/321196743/Namespace_neuronrobotics_dyio.o

.text%z316      0x00000000        0x0
 .text          0x00000000        0x0 build/default/production/_ext/1281821416/Namespace_bcs_safe.o

.text%z317      0x00000000        0x0
 .text          0x00000000        0x0 build/default/production/_ext/1281821416/Abstract_bsc_safe.o

.text%z318      0x00000000        0x0
 .text          0x00000000        0x0 build/default/production/_ext/1020318379/ChannelMode.o

.text%z319      0x00000000        0x0
 .text          0x00000000        0x0 build/default/production/_ext/1020318379/ChannelValues.o

.text%z320      0x00000000        0x0
 .text          0x00000000        0x0 build/default/production/_ext/1020318379/ChannelConfig.o

.text%z321      0x00000000        0x0
 .text          0x00000000        0x0 build/default/production/_ext/1020318379/Pin_State.o

.text%z322      0x00000000        0x0
 .text          0x00000000        0x0 build/default/production/_ext/990863823/PPMReader.o

.text%z323      0x00000000        0x0
 .text          0x00000000        0x0 build/default/production/_ext/990863823/SPI.o

.text%z324      0x00000000        0x0
 .text          0x00000000        0x0 build/default/production/_ext/990863823/SerialPassThrough.o

.text%z325      0x00000000        0x0
 .text          0x00000000        0x0 build/default/production/_ext/990863823/EEPROMMannager.o

.text%z326      0x00000000        0x0
 .text          0x00000000        0x0 build/default/production/_ext/990863823/Counter.o

.text%z327      0x00000000        0x0
 .text          0x00000000        0x0 build/default/production/_ext/990863823/ADC.o

.text%z328      0x00000000        0x0
 .text          0x00000000        0x0 build/default/production/_ext/990863823/CoProcCom.o

.text%z329      0x00000000        0x0
 .text          0x00000000        0x0 build/default/production/_ext/990863823/DyIODataTableManager.o

.text%z330      0x00000000        0x0
 .text          0x00000000        0x0 build/default/production/_ext/990863823/Switches.o

.text%z331      0x00000000        0x0
 .text          0x00000000        0x0 build/default/production/_ext/990863823/AVRInterface.o

.text%z332      0x00000000        0x0
 .text          0x00000000        0x0 build/default/production/_ext/2110062566/UartDMARx.o

.text%z333      0x00000000        0x0
 .text          0x00000000        0x0 build/default/production/_ext/1978776677/AsyncManager.o

.text%z334      0x00000000        0x0
 .text          0x00000000        0x0 build/default/production/_ext/1978776677/DownStreamPackets.o

.text%z335      0x00000000        0x0
 .text          0x00000000        0x0 build/default/production/_ext/1978776677/InitializationCallbacks.o

.text%z336      0x00000000        0x0
 .text          0x00000000        0x0 build/default/production/_ext/1978776677/UpstreamPackets.o

.text%z337      0x00000000        0x0
 .text          0x00000000        0x0 build/default/production/_ext/1825615050/PID.o

.text%z338      0x00000000        0x0
 .text          0x00000000        0x0 build/default/production/_ext/1825615050/CartesianController.o

.text%z339      0x00000000        0x0
 .text          0x00000000        0x0 build/default/production/_ext/1051272628/Namespace_bcs_io_setmode.o

.text%z340      0x00000000        0x0
 .text          0x00000000        0x0 build/default/production/_ext/1051272628/Abstract_bcs_io_setmode.o

.text%z341      0x00000000        0x0
 .text          0x00000000        0x0 build/default/production/_ext/805493626/Bcs_IO_AdvancedAsync.o

.text%z342      0x00000000        0x0
 .text          0x00000000        0x0 build/default/production/_ext/805493626/Abstract_bcs_io.o

.text%z343      0x00000000        0x0
 .text          0x00000000        0x0 build/default/production/_ext/805493626/Namespace_bcs_io.o

.text%z344      0x00000000        0x0
 .text          0x00000000        0x0 build/default/production/_ext/805493626/Debug_DyIO.o

.text%z345      0x00000000        0x0
 .text          0x00000000        0x0 build/default/production/_ext/108654538/PinFunctions.o
