Archive member included because of file (symbol)

../../../../../c-bowler/firmware/library/NR-Clib/development/c-bowler.X/dist/default/production/c-bowler.X.a(BowlerPacketParser.o)
                              build/default/production/_ext/990863823/CoProcCom.o (_getBowlerPacket)
../../../../../c-bowler/firmware/library/NR-Clib/development/c-bowler.X/dist/default/production/c-bowler.X.a(Namespace_bcs_core.o)
                              build/default/production/_ext/805493626/Namespace_bcs_io.o (addRpcToNamespace)
../../../../../c-bowler/firmware/library/NR-Clib/development/c-bowler.X/dist/default/production/c-bowler.X.a(Bowler_Server.o)
                              build/default/production/_ext/321196743/Namespace_neuronrobotics_dyio.o (getLastPacketTime)
../../../../../c-bowler/firmware/library/NR-Clib/development/c-bowler.X/dist/default/production/c-bowler.X.a(Debug.o)
                              build/default/production/_ext/1825615050/PID.o (getPrintLevel)
../../../../../c-bowler/firmware/library/NR-Clib/development/c-bowler.X/dist/default/production/c-bowler.X.a(FIFO.o)
                              build/default/production/_ext/990863823/DyIODataTableManager.o (InitByteFifo)
../../../../../c-bowler/firmware/library/NR-Clib/development/c-bowler.X/dist/default/production/c-bowler.X.a(Bowler_Helper.o)
                              ../../../../../c-bowler/firmware/library/NR-Clib/development/c-bowler.X/dist/default/production/c-bowler.X.a(Debug.o) (CalcCRC)
../../../../../c-bowler/firmware/library/NR-Clib/development/c-bowler.X/dist/default/production/c-bowler.X.a(Scheduler.o)
                              build/default/production/_ext/805493626/Bcs_IO_AdvancedAsync.o (RunEvery)
../../../../../c-bowler/firmware/library/NR-Clib/development/c-bowler.X/dist/default/production/c-bowler.X.a(Namespace_bcs_pid.o)
                              build/default/production/_ext/1978776677/InitializationCallbacks.o (getBcsPidNamespace)
../../../../../c-bowler/firmware/library/NR-Clib/development/c-bowler.X/dist/default/production/c-bowler.X.a(AbstractPID.o)
                              ../../../../../c-bowler/firmware/library/NR-Clib/development/c-bowler.X/dist/default/production/c-bowler.X.a(Debug.o) (getPidGroupDataTable)
../../../../../c-bowler/firmware/library/NR-Clib/development/c-bowler.X/dist/default/production/c-bowler.X.a(usb_fifo.o)
                              build/default/production/_ext/1978776677/InitializationCallbacks.o (usb_CDC_Serial_Init)
../../../../../c-bowler/firmware/library/NR-Clib/development/c-bowler.X/dist/default/production/c-bowler.X.a(usb_device.o)
                              ../../../../../c-bowler/firmware/library/NR-Clib/development/c-bowler.X/dist/default/production/c-bowler.X.a(usb_fifo.o) (USBDeviceInit)
../../../../../c-bowler/firmware/library/NR-Clib/development/c-bowler.X/dist/default/production/c-bowler.X.a(LED.o)
                              build/default/production/_ext/1978776677/InitializationCallbacks.o (InitLEDS)
../../../../../c-bowler/firmware/library/NR-Clib/development/c-bowler.X/dist/default/production/c-bowler.X.a(ADC.o)
                              build/default/production/_ext/990863823/ADC.o (InitADCHardware)
../../../../../c-bowler/firmware/library/NR-Clib/development/c-bowler.X/dist/default/production/c-bowler.X.a(HAL_P32.o)
                              build/default/production/_ext/1978776677/InitializationCallbacks.o (Pic32_Bowler_HAL_Init)
../../../../../c-bowler/firmware/library/NR-Clib/development/c-bowler.X/dist/default/production/c-bowler.X.a(Delay.o)
                              ../../../../../c-bowler/firmware/library/NR-Clib/development/c-bowler.X/dist/default/production/c-bowler.X.a(ADC.o) (Delay10us)
../../../../../c-bowler/firmware/library/NR-Clib/development/c-bowler.X/dist/default/production/c-bowler.X.a(Bowler_USB_HAL.o)
                              ../../../../../c-bowler/firmware/library/NR-Clib/development/c-bowler.X/dist/default/production/c-bowler.X.a(HAL_P32.o) (SendPacketUSB)
../../../../../c-bowler/firmware/library/NR-Clib/development/c-bowler.X/dist/default/production/c-bowler.X.a(FlashStorage.o)
                              build/default/production/_ext/321196743/Namespace_neuronrobotics_dyio.o (FlashSetMac)
../../../../../c-bowler/firmware/library/NR-Clib/development/c-bowler.X/dist/default/production/c-bowler.X.a(Bowler_UART_HAL.o)
                              ../../../../../c-bowler/firmware/library/NR-Clib/development/c-bowler.X/dist/default/production/c-bowler.X.a(HAL_P32.o) (SetPICUARTFifo)
../../../../../c-bowler/firmware/library/NR-Clib/development/c-bowler.X/dist/default/production/c-bowler.X.a(Tick.o)
                              ../../../../../c-bowler/firmware/library/NR-Clib/development/c-bowler.X/dist/default/production/c-bowler.X.a(HAL_P32.o) (TickInit)
../../../../../c-bowler/firmware/library/NR-Clib/development/c-bowler.X/dist/default/production/c-bowler.X.a(UART.o)
                              build/default/production/_ext/990863823/CoProcCom.o (Write32UART2)
../../../../../c-bowler/firmware/library/NR-Clib/development/c-bowler.X/dist/default/production/c-bowler.X.a(Namespace_bcs_rpc.o)
                              ../../../../../c-bowler/firmware/library/NR-Clib/development/c-bowler.X/dist/default/production/c-bowler.X.a(Bowler_Server.o) (getBcsRpcNamespace)
../../../../../c-bowler/firmware/library/NR-Clib/development/c-bowler.X/dist/default/production/c-bowler.X.a(PidRpc.o)
                              ../../../../../c-bowler/firmware/library/NR-Clib/development/c-bowler.X/dist/default/production/c-bowler.X.a(Namespace_bcs_pid.o) (processPIDGet)
../../../../../c-bowler/firmware/library/NR-Clib/development/c-bowler.X/dist/default/production/c-bowler.X.a(PidHysteresis.o)
                              ../../../../../c-bowler/firmware/library/NR-Clib/development/c-bowler.X/dist/default/production/c-bowler.X.a(AbstractPID.o) (getUpperPidHistoresis)
../../../../../c-bowler/firmware/library/NR-Clib/development/c-bowler.X/dist/default/production/c-bowler.X.a(PidAsync.o)
                              ../../../../../c-bowler/firmware/library/NR-Clib/development/c-bowler.X/dist/default/production/c-bowler.X.a(AbstractPID.o) (updatePidAsync)
../../../../../c-bowler/firmware/library/NR-Clib/development/c-bowler.X/dist/default/production/c-bowler.X.a(usb_callback.o)
                              ../../../../../c-bowler/firmware/library/NR-Clib/development/c-bowler.X/dist/default/production/c-bowler.X.a(usb_device.o) (USER_USB_CALLBACK_EVENT_HANDLER)
../../../../../c-bowler/firmware/library/NR-Clib/development/c-bowler.X/dist/default/production/c-bowler.X.a(usb_function_cdc.o)
                              ../../../../../c-bowler/firmware/library/NR-Clib/development/c-bowler.X/dist/default/production/c-bowler.X.a(usb_callback.o) (USBCheckCDCRequest)
../../../../../c-bowler/firmware/library/NR-Clib/development/c-bowler.X/dist/default/production/c-bowler.X.a(usb_descriptors.o)
                              ../../../../../c-bowler/firmware/library/NR-Clib/development/c-bowler.X/dist/default/production/c-bowler.X.a(usb_fifo.o) (WriteUSBSerialNumber)
../../../../../c-bowler/firmware/library/NR-Clib/development/c-bowler.X/dist/default/production/c-bowler.X.a(PidVelocity.o)
                              ../../../../../c-bowler/firmware/library/NR-Clib/development/c-bowler.X/dist/default/production/c-bowler.X.a(PidRpc.o) (StartPDVel)
/home/opt/microchip/xc32/v1.00/bin/../lib/gcc/pic32mx/4.5.1/libgcc.a(floatunsisf.o)
                              build/default/production/_ext/805493626/Abstract_bcs_io.o (__floatunsisf)
/home/opt/microchip/xc32/v1.00/bin/../lib/gcc/pic32mx/4.5.1/../../../../pic32mx/lib/libc.a(memcpy.o)
                              build/default/production/_ext/1020318379/Pin_State.o (memcpy)
/home/opt/microchip/xc32/v1.00/bin/../lib/gcc/pic32mx/4.5.1/../../../../pic32mx/lib/libc.a(general-exception.o)
                              /home/opt/microchip/xc32/v1.00/bin/../lib/gcc/pic32mx/4.5.1/../../../../pic32mx/lib/crt0.o (_general_exception_context)
/home/opt/microchip/xc32/v1.00/bin/../lib/gcc/pic32mx/4.5.1/../../../../pic32mx/lib/libc.a(default-bootstrap-exception-handler.o)
                              /home/opt/microchip/xc32/v1.00/bin/../lib/gcc/pic32mx/4.5.1/../../../../pic32mx/lib/crt0.o (_bootstrap_exception_handler)
/home/opt/microchip/xc32/v1.00/bin/../lib/gcc/pic32mx/4.5.1/../../../../pic32mx/lib/libc.a(default-on-reset.o)
                              /home/opt/microchip/xc32/v1.00/bin/../lib/gcc/pic32mx/4.5.1/../../../../pic32mx/lib/crt0.o (_on_reset)
/home/opt/microchip/xc32/v1.00/bin/../lib/gcc/pic32mx/4.5.1/../../../../pic32mx/lib/libc.a(default-on-bootstrap.o)
                              /home/opt/microchip/xc32/v1.00/bin/../lib/gcc/pic32mx/4.5.1/../../../../pic32mx/lib/crt0.o (_on_bootstrap)
/home/opt/microchip/xc32/v1.00/bin/../lib/gcc/pic32mx/4.5.1/../../../../pic32mx/lib/libc.a(default-nmi-handler.o)
                              /home/opt/microchip/xc32/v1.00/bin/../lib/gcc/pic32mx/4.5.1/../../../../pic32mx/lib/crt0.o (_nmi_handler)
/home/opt/microchip/xc32/v1.00/bin/../lib/gcc/pic32mx/4.5.1/../../../../pic32mx/lib/libm.a(fp32.o)
                              build/default/production/_ext/990863823/Switches.o (fpsub)
/home/opt/microchip/xc32/v1.00/bin/../lib/gcc/pic32mx/4.5.1/../../../../pic32mx/lib/libmchp_peripheral_32MX440F128H.a(soft_reset_lib.o)
                              build/default/production/_ext/1360937237/DyIOMain.o (SoftReset)
/home/opt/microchip/xc32/v1.00/bin/../lib/gcc/pic32mx/4.5.1/../../../../pic32mx/lib/libmchp_peripheral_32MX440F128H.a(int_enable_interrupts_lib.o)
                              build/default/production/_ext/805493626/Bcs_IO_AdvancedAsync.o (INTEnableInterrupts)
/home/opt/microchip/xc32/v1.00/bin/../lib/gcc/pic32mx/4.5.1/../../../../pic32mx/lib/libmchp_peripheral_32MX440F128H.a(int_disable_interrupts_lib.o)
                              build/default/production/_ext/1978776677/InitializationCallbacks.o (INTDisableInterrupts)
/home/opt/microchip/xc32/v1.00/bin/../lib/gcc/pic32mx/4.5.1/../../../../pic32mx/lib/libmchp_peripheral_32MX440F128H.a(int_enable_mv_int_lib.o)
                              build/default/production/_ext/805493626/Bcs_IO_AdvancedAsync.o (INTEnableSystemMultiVectoredInt)
/home/opt/microchip/xc32/v1.00/bin/../lib/gcc/pic32mx/4.5.1/../../../../pic32mx/lib/libmchp_peripheral_32MX440F128H.a(int_tbl_lib.o)
                              build/default/production/_ext/990863823/CoProcCom.o (INTClearFlag)
/home/opt/microchip/xc32/v1.00/bin/../lib/gcc/pic32mx/4.5.1/../../../../pic32mx/lib/libmchp_peripheral_32MX440F128H.a(spi_getc_spi2_lib_legacy.o)
                              build/default/production/_ext/990863823/SPI.o (getcSPI2)
/home/opt/microchip/xc32/v1.00/bin/../lib/gcc/pic32mx/4.5.1/../../../../pic32mx/lib/libmchp_peripheral_32MX440F128H.a(spi_open_spi2_lib_legacy.o)
                              build/default/production/_ext/990863823/SPI.o (OpenSPI2)
/home/opt/microchip/xc32/v1.00/bin/../lib/gcc/pic32mx/4.5.1/../../../../pic32mx/lib/libmchp_peripheral_32MX440F128H.a(spi_brg_tbl_lib_legacy.o)
                              /home/opt/microchip/xc32/v1.00/bin/../lib/gcc/pic32mx/4.5.1/../../../../pic32mx/lib/libmchp_peripheral_32MX440F128H.a(spi_open_spi2_lib_legacy.o) (_SpiBrgConvTbl)
/home/opt/microchip/xc32/v1.00/bin/../lib/gcc/pic32mx/4.5.1/../../../../pic32mx/lib/libmchp_peripheral_32MX440F128H.a(nvm_erase_page_lib.o)
                              ../../../../../c-bowler/firmware/library/NR-Clib/development/c-bowler.X/dist/default/production/c-bowler.X.a(FlashStorage.o) (NVMErasePage)
/home/opt/microchip/xc32/v1.00/bin/../lib/gcc/pic32mx/4.5.1/../../../../pic32mx/lib/libmchp_peripheral_32MX440F128H.a(nvm_operation_lib.o)
                              /home/opt/microchip/xc32/v1.00/bin/../lib/gcc/pic32mx/4.5.1/../../../../pic32mx/lib/libmchp_peripheral_32MX440F128H.a(nvm_erase_page_lib.o) (_NVMOperation)
/home/opt/microchip/xc32/v1.00/bin/../lib/gcc/pic32mx/4.5.1/../../../../pic32mx/lib/libmchp_peripheral_32MX440F128H.a(nvm_write_word_lib.o)
                              ../../../../../c-bowler/firmware/library/NR-Clib/development/c-bowler.X/dist/default/production/c-bowler.X.a(FlashStorage.o) (NVMWriteWord)
/home/opt/microchip/xc32/v1.00/bin/../lib/gcc/pic32mx/4.5.1/../../../../pic32mx/lib/libmchp_peripheral_32MX440F128H.a(port_set_pins_digital_out_lib.o)
                              ../../../../../c-bowler/firmware/library/NR-Clib/development/c-bowler.X/dist/default/production/c-bowler.X.a(LED.o) (PORTSetPinsDigitalOut)
/home/opt/microchip/xc32/v1.00/bin/../lib/gcc/pic32mx/4.5.1/../../../../pic32mx/lib/libmchp_peripheral_32MX440F128H.a(port_clear_bits_lib.o)
                              ../../../../../c-bowler/firmware/library/NR-Clib/development/c-bowler.X/dist/default/production/c-bowler.X.a(LED.o) (PORTClearBits)
/home/opt/microchip/xc32/v1.00/bin/../lib/gcc/pic32mx/4.5.1/../../../../pic32mx/lib/libmchp_peripheral_32MX440F128H.a(port_set_bits_lib.o)
                              ../../../../../c-bowler/firmware/library/NR-Clib/development/c-bowler.X/dist/default/production/c-bowler.X.a(LED.o) (PORTSetBits)
/home/opt/microchip/xc32/v1.00/bin/../lib/gcc/pic32mx/4.5.1/../../../../pic32mx/lib/libmchp_peripheral_32MX440F128H.a(_ports_tbl_libp.o)
                              /home/opt/microchip/xc32/v1.00/bin/../lib/gcc/pic32mx/4.5.1/../../../../pic32mx/lib/libmchp_peripheral_32MX440F128H.a(port_set_pins_digital_out_lib.o) (PortRegTbl)
/home/opt/microchip/xc32/v1.00/bin/../lib/gcc/pic32mx/4.5.1/../../../../pic32mx/lib/libmchp_peripheral_32MX440F128H.a(uart_lib.o)
                              build/default/production/_ext/990863823/CoProcCom.o (UARTEnable)
/home/opt/microchip/xc32/v1.00/bin/../lib/gcc/pic32mx/4.5.1/../../../../pic32mx/lib/libmchp_peripheral_32MX440F128H.a(int_restore_interrupts_lib.o)
                              /home/opt/microchip/xc32/v1.00/bin/../lib/gcc/pic32mx/4.5.1/../../../../pic32mx/lib/libmchp_peripheral_32MX440F128H.a(nvm_operation_lib.o) (INTRestoreInterrupts)

Allocating common symbols
Common symbol       size              file

getAllChanelValueHWPtr
                    0x4               build/default/production/_ext/805493626/Abstract_bcs_io.o
self                0x16              build/default/production/_ext/1020318379/Pin_State.o
pDst                0x4               ../../../../../c-bowler/firmware/library/NR-Clib/development/c-bowler.X/dist/default/production/c-bowler.X.a(usb_device.o)
control_signal_bitmap
                    0x4               ../../../../../c-bowler/firmware/library/NR-Clib/development/c-bowler.X/dist/default/production/c-bowler.X.a(usb_function_cdc.o)
getChanelValueHWPtr
                    0x4               build/default/production/_ext/805493626/Abstract_bcs_io.o
BDT                 0x80              ../../../../../c-bowler/firmware/library/NR-Clib/development/c-bowler.X/dist/default/production/c-bowler.X.a(usb_device.o)
CtrlTrfData         0x40              ../../../../../c-bowler/firmware/library/NR-Clib/development/c-bowler.X/dist/default/production/c-bowler.X.a(usb_device.o)
resetPosition       0x4               ../../../../../c-bowler/firmware/library/NR-Clib/development/c-bowler.X/dist/default/production/c-bowler.X.a(AbstractPID.o)
MathCalculationVelocity
                    0x4               ../../../../../c-bowler/firmware/library/NR-Clib/development/c-bowler.X/dist/default/production/c-bowler.X.a(AbstractPID.o)
setAllChanelValueHWPtr
                    0x4               build/default/production/_ext/805493626/Abstract_bcs_io.o
setOutputLocal      0x4               ../../../../../c-bowler/firmware/library/NR-Clib/development/c-bowler.X/dist/default/production/c-bowler.X.a(AbstractPID.o)
setChanelValueHWPtr
                    0x4               build/default/production/_ext/805493626/Abstract_bcs_io.o
USBDeviceState      0x4               ../../../../../c-bowler/firmware/library/NR-Clib/development/c-bowler.X/dist/default/production/c-bowler.X.a(usb_device.o)
controlTransferState
                    0x1               ../../../../../c-bowler/firmware/library/NR-Clib/development/c-bowler.X/dist/default/production/c-bowler.X.a(usb_device.o)
cdc_tx_len          0x2               ../../../../../c-bowler/firmware/library/NR-Clib/development/c-bowler.X/dist/default/production/c-bowler.X.a(usb_function_cdc.o)
USBInMaxPacketSize  0x6               ../../../../../c-bowler/firmware/library/NR-Clib/development/c-bowler.X/dist/default/production/c-bowler.X.a(usb_device.o)
pCDCSrc             0x4               ../../../../../c-bowler/firmware/library/NR-Clib/development/c-bowler.X/dist/default/production/c-bowler.X.a(usb_function_cdc.o)
configChannelHWPtr  0x4               build/default/production/_ext/805493626/Abstract_bcs_io.o
MathCalculationPosition
                    0x4               ../../../../../c-bowler/firmware/library/NR-Clib/development/c-bowler.X/dist/default/production/c-bowler.X.a(AbstractPID.o)
cdc_data_tx         0x40              ../../../../../c-bowler/firmware/library/NR-Clib/development/c-bowler.X/dist/default/production/c-bowler.X.a(usb_function_cdc.o)
inPipes             0x7               ../../../../../c-bowler/firmware/library/NR-Clib/development/c-bowler.X/dist/default/production/c-bowler.X.a(usb_device.o)
pBDTEntryIn         0x10              ../../../../../c-bowler/firmware/library/NR-Clib/development/c-bowler.X/dist/default/production/c-bowler.X.a(usb_device.o)
CDCDataOutHandle    0x4               ../../../../../c-bowler/firmware/library/NR-Clib/development/c-bowler.X/dist/default/production/c-bowler.X.a(usb_function_cdc.o)
cdc_rx_len          0x2               ../../../../../c-bowler/firmware/library/NR-Clib/development/c-bowler.X/dist/default/production/c-bowler.X.a(usb_function_cdc.o)
line_coding         0x8               ../../../../../c-bowler/firmware/library/NR-Clib/development/c-bowler.X/dist/default/production/c-bowler.X.a(usb_function_cdc.o)
BaudRateGen         0x4               ../../../../../c-bowler/firmware/library/NR-Clib/development/c-bowler.X/dist/default/production/c-bowler.X.a(usb_function_cdc.o)
pBDTEntryOut        0x10              ../../../../../c-bowler/firmware/library/NR-Clib/development/c-bowler.X/dist/default/production/c-bowler.X.a(usb_device.o)
adc                 0x158             build/default/production/_ext/990863823/ADC.o
CDCDataInHandle     0x4               ../../../../../c-bowler/firmware/library/NR-Clib/development/c-bowler.X/dist/default/production/c-bowler.X.a(usb_function_cdc.o)
stream              0x4               ../../../../../c-bowler/firmware/library/NR-Clib/development/c-bowler.X/dist/default/production/c-bowler.X.a(FlashStorage.o)
BothEP0OutUOWNsSet  0x4               ../../../../../c-bowler/firmware/library/NR-Clib/development/c-bowler.X/dist/default/production/c-bowler.X.a(usb_device.o)
Counter             0x8c              build/default/production/_ext/990863823/Counter.o
cdc_data_rx         0x40              ../../../../../c-bowler/firmware/library/NR-Clib/development/c-bowler.X/dist/default/production/c-bowler.X.a(usb_function_cdc.o)
cdc_notice          0x8               ../../../../../c-bowler/firmware/library/NR-Clib/development/c-bowler.X/dist/default/production/c-bowler.X.a(usb_function_cdc.o)
pBDTEntryEP0OutNext
                    0x4               ../../../../../c-bowler/firmware/library/NR-Clib/development/c-bowler.X/dist/default/production/c-bowler.X.a(usb_device.o)
flash               0x80              ../../../../../c-bowler/firmware/library/NR-Clib/development/c-bowler.X/dist/default/production/c-bowler.X.a(FlashStorage.o)
cdc_trf_state       0x1               ../../../../../c-bowler/firmware/library/NR-Clib/development/c-bowler.X/dist/default/production/c-bowler.X.a(usb_function_cdc.o)
onPidConfigureLocal
                    0x4               ../../../../../c-bowler/firmware/library/NR-Clib/development/c-bowler.X/dist/default/production/c-bowler.X.a(AbstractPID.o)
SetupPkt            0x8               ../../../../../c-bowler/firmware/library/NR-Clib/development/c-bowler.X/dist/default/production/c-bowler.X.a(usb_device.o)
pCDCDst             0x4               ../../../../../c-bowler/firmware/library/NR-Clib/development/c-bowler.X/dist/default/production/c-bowler.X.a(usb_function_cdc.o)
cdc_mem_type        0x1               ../../../../../c-bowler/firmware/library/NR-Clib/development/c-bowler.X/dist/default/production/c-bowler.X.a(usb_function_cdc.o)
lockOutTimeout      0x8               build/default/production/_ext/990863823/ADC.o
shortPacketStatus   0x1               ../../../../../c-bowler/firmware/library/NR-Clib/development/c-bowler.X/dist/default/production/c-bowler.X.a(usb_device.o)
pBDTEntryEP0OutCurrent
                    0x4               ../../../../../c-bowler/firmware/library/NR-Clib/development/c-bowler.X/dist/default/production/c-bowler.X.a(usb_device.o)
USBActiveConfiguration
                    0x1               ../../../../../c-bowler/firmware/library/NR-Clib/development/c-bowler.X/dist/default/production/c-bowler.X.a(usb_device.o)
RemoteWakeup        0x4               ../../../../../c-bowler/firmware/library/NR-Clib/development/c-bowler.X/dist/default/production/c-bowler.X.a(usb_device.o)
USTATcopy           0x1               ../../../../../c-bowler/firmware/library/NR-Clib/development/c-bowler.X/dist/default/production/c-bowler.X.a(usb_device.o)
USBInData           0xc               ../../../../../c-bowler/firmware/library/NR-Clib/development/c-bowler.X/dist/default/production/c-bowler.X.a(usb_device.o)
USBAlternateInterface
                    0x1               ../../../../../c-bowler/firmware/library/NR-Clib/development/c-bowler.X/dist/default/production/c-bowler.X.a(usb_device.o)
outPipes            0xb               ../../../../../c-bowler/firmware/library/NR-Clib/development/c-bowler.X/dist/default/production/c-bowler.X.a(usb_device.o)
dummy_encapsulated_cmd_response
                    0x8               ../../../../../c-bowler/firmware/library/NR-Clib/development/c-bowler.X/dist/default/production/c-bowler.X.a(usb_function_cdc.o)
getPosition         0x4               ../../../../../c-bowler/firmware/library/NR-Clib/development/c-bowler.X/dist/default/production/c-bowler.X.a(AbstractPID.o)
checkPIDLimitEvents
                    0x4               ../../../../../c-bowler/firmware/library/NR-Clib/development/c-bowler.X/dist/default/production/c-bowler.X.a(AbstractPID.o)

Microchip PIC32 Memory-Usage Report

kseg0 Program-Memory Usage
section                    address  length [bytes]      (dec)  Description
-------                 ----------  -------------------------  -----------
.text                   0x9d000008         0xb3a4       45988  App's exec code 
.dinit                  0x9d00b3ac          0xb3c        2876   
.text                   0x9d00bee8         0x6c38       27704  App's exec code 
.rodata                 0x9d012b20          0x528        1320  Read-only const 
.text                   0x9d013048         0x3898       14488  App's exec code 
.rodata                 0x9d0168e0          0x2ac         684  Read-only const 
.text                   0x9d016b8c          0x774        1908  App's exec code 
.rodata                 0x9d017300          0x250         592  Read-only const 
.text                   0x9d017550          0xa78        2680  App's exec code 
.rodata                 0x9d017fc8          0x510        1296  Read-only const 
.text                   0x9d0184d8          0x300         768  App's exec code 
.rodata                 0x9d0187d8          0x170         368  Read-only const 
.text                   0x9d018948          0x2d4         724  App's exec code 
.rodata                 0x9d018c1c          0x164         356  Read-only const 
.text                   0x9d018d80          0x15c         348  App's exec code 
.rodata                 0x9d018edc          0x154         340  Read-only const 
.text._NVMOperation     0x9d019030          0x114         276   
.rodata                 0x9d019144          0x208         520  Read-only const 
.text                   0x9d01934c          0x1c4         452  App's exec code 
.rodata                 0x9d019510           0xd0         208  Read-only const 
.text.general_exception 0x9d0195e0           0xd0         208   
.text                   0x9d0196b0          0x174         372  App's exec code 
.rodata                 0x9d019824          0x2b8         696  Read-only const 
.text                   0x9d019adc           0xa0         160  App's exec code 
.rodata                 0x9d019b7c          0x1dc         476  Read-only const 
.text                   0x9d019d58           0x98         152  App's exec code 
.rodata                 0x9d019df0          0x1a4         420  Read-only const 
.text                   0x9d019f94           0x84         132  App's exec code 
.rodata                 0x9d01a018          0x100         256  Read-only const 
.text.UARTEnable        0x9d01a118           0x80         128   
.rodata                 0x9d01a198           0x7c         124  Read-only const 
.text                   0x9d01a214           0x78         120  App's exec code 
.text.SoftReset         0x9d01a28c           0x78         120   
.text                   0x9d01a304          0x134         308  App's exec code 
.text.OpenSPI2          0x9d01a438           0x60          96   
.text.UARTSetDataRate   0x9d01a498           0x5c          92   
.rodata                 0x9d01a4f4          0x108         264  Read-only const 
.text.INTEnable         0x9d01a5fc           0x58          88   
.rodata                 0x9d01a654          0x180         384  Read-only const 
.text                   0x9d01a7d4           0x48          72  App's exec code 
.rodata                 0x9d01a81c           0x8c         140  Read-only const 
.text.PORTSetPinsDigita 0x9d01a8a8           0x40          64   
.text.UARTGetDataRate   0x9d01a8e8           0x40          64   
.rodata                 0x9d01a928           0x3c          60  Read-only const 
.text.INTSetVectorPrior 0x9d01a964           0x3c          60   
.text.INTSetVectorSubPr 0x9d01a9a0           0x3c          60   
.text.UARTConfigure     0x9d01a9dc           0x3c          60   
.text.UARTSetAddress    0x9d01aa18           0x3c          60   
.text.UARTWatchForAddre 0x9d01aa54           0x38          56   
.rodata                 0x9d01aa8c           0x34          52  Read-only const 
.text                   0x9d01aac0           0x34          52  App's exec code 
.text.INTEnableSystemMu 0x9d01aaf4           0x34          52   
.text.NVMWriteWord      0x9d01ab28           0x34          52   
.text.INTGetVectorPrior 0x9d01ab5c           0x30          48   
.text.INTGetVectorSubPr 0x9d01ab8c           0x30          48   
.rodata                 0x9d01abbc           0x2c          44  Read-only const 
.text.INTClearFlag      0x9d01abe8           0x2c          44   
.text.INTSetFlag        0x9d01ac14           0x2c          44   
.text.INTGetFlag        0x9d01ac40           0x2c          44   
.text.INTGetEnable      0x9d01ac6c           0x2c          44   
.text.NVMErasePage      0x9d01ac98           0x2c          44   
.text                   0x9d01acc4           0x50          80  App's exec code 
.text.PORTClearBits     0x9d01ad14           0x28          40   
.text.PORTSetBits       0x9d01ad3c           0x28          40   
.text.UARTSetFifoMode   0x9d01ad64           0x28          40   
.text.UARTSetLineContro 0x9d01ad8c           0x28          40   
.rodata                 0x9d01adb4           0x64         100  Read-only const 
.text.getcSPI2          0x9d01ae18           0x20          32   
.text.INTRestoreInterru 0x9d01ae38           0x1c          28   
.rodata                 0x9d01ae54           0x18          24  Read-only const 
.text                   0x9d01ae6c           0x28          40  App's exec code 
.rodata                 0x9d01ae94           0x1c          28  Read-only const 
.text._bootstrap_except 0x9d01aeb0            0xc          12   
.rodata                 0x9d01aebc           0x10          16  Read-only const 
.text._on_reset         0x9d01aecc            0x8           8   
.text._on_bootstrap     0x9d01aed4            0x8           8   
.text.INTEnableInterrup 0x9d01aedc            0x8           8   
.text.INTDisableInterru 0x9d01aee4            0x8           8   
.rodata                 0x9d01aeec            0x8           8  Read-only const 
      Total kseg0_program_mem used  :     0x1aeec      110316  84.2% of 0x20000

kseg0 Boot-Memory Usage
section                    address  length [bytes]      (dec)  Description
-------                 ----------  -------------------------  -----------
         Total kseg0_boot_mem used  :           0           0  <1% of 0x970

Exception-Memory Usage 
section                    address  length [bytes]      (dec)  Description
-------                 ----------  -------------------------  -----------
.app_excpt              0x9fc01180           0x10          16  General-Exception 
.vector_4               0x9fc01280            0x8           8  Interrupt Vector 4 
.vector_7               0x9fc012e0            0x8           8  Interrupt Vector 7 
.vector_11              0x9fc01360            0x8           8  Interrupt Vector 11 
.vector_12              0x9fc01380            0x8           8  Interrupt Vector 12 
.vector_15              0x9fc013e0            0x8           8  Interrupt Vector 15 
.vector_19              0x9fc01460            0x8           8  Interrupt Vector 19 
.vector_24              0x9fc01500            0x8           8  Interrupt Vector 24 
.vector_32              0x9fc01600            0x8           8  Interrupt Vector 32 
.vector_45              0x9fc017a0            0x8           8  Interrupt Vector 45 
          Total exception_mem used  :        0x58          88  2.1% of 0x1000

kseg1 Boot-Memory Usage
section                    address  length [bytes]      (dec)  Description
-------                 ----------  -------------------------  -----------
.reset                  0xbfc00000          0x1f4         500  Reset handler 
.bev_excpt              0xbfc00380           0x10          16  BEV-Exception 
         Total kseg1_boot_mem used  :       0x204         516  44.2% of 0x490
        --------------------------------------------------------------------------
         Total Program Memory used  :     0x1b148      110920  79.9% of 0x21e00
        --------------------------------------------------------------------------


kseg1 Data-Memory Usage
section                    address  length [bytes]      (dec)  Description
-------                 ----------  -------------------------  -----------
.sdata                  0xa0000000           0xfc         252  Small init data 
.sbss                   0xa00000fc          0x270         624  Small uninit data 
.data                   0xa000036c           0x60          96  Initialized data 
.data                   0xa00003cc           0x18          24  Initialized data 
.bss                    0xa00003e4           0x18          24  Uninitialized data 
.bss                    0xa0000400          0x3f8        1016  Uninitialized data 
.bss                    0xa00007f8         0x1654        5716  Uninitialized data 
.data                   0xa0001e4c          0x328         808  Initialized data 
.bss                    0xa0002174          0x368         872  Uninitialized data 
.data                   0xa00024dc          0x1d8         472  Initialized data 
.bss                    0xa00026b4           0xa0         160  Uninitialized data 
.data                   0xa0002754          0x14c         332  Initialized data 
.data                   0xa00028a0            0xc          12  Initialized data 
         Total kseg1_data_mem used  :      0x28a8       10408  31.8% of 0x8000
        --------------------------------------------------------------------------
            Total Data Memory used  :      0x28a8       10408  31.8% of 0x8000
        --------------------------------------------------------------------------


Dynamic Data-Memory Reservation
section                    address  length [bytes]      (dec)  Description
-------                 ----------  -------------------------  -----------
heap                    0xa00028b0              0           0  Reserved for heap 
stack                   0xa00028c8         0x5728       22312  Reserved for stack 

        --------------------------------------------------------------------------

Discarded input sections

 .reginfo       0x00000000       0x18 /home/opt/microchip/xc32/v1.00/bin/../lib/gcc/pic32mx/4.5.1/../../../../pic32mx/lib/crt0.o
 .pdr           0x00000000       0xa0 /home/opt/microchip/xc32/v1.00/bin/../lib/gcc/pic32mx/4.5.1/../../../../pic32mx/lib/crt0.o
 .reginfo       0x00000000       0x18 build/default/production/_ext/108654538/PinFunctions.o
 .pdr           0x00000000       0x20 build/default/production/_ext/108654538/PinFunctions.o
 .reginfo       0x00000000       0x18 build/default/production/_ext/805493626/Debug_DyIO.o
 .pdr           0x00000000       0x40 build/default/production/_ext/805493626/Debug_DyIO.o
 .reginfo       0x00000000       0x18 build/default/production/_ext/805493626/Namespace_bcs_io.o
 .pdr           0x00000000       0x40 build/default/production/_ext/805493626/Namespace_bcs_io.o
 .reginfo       0x00000000       0x18 build/default/production/_ext/805493626/Abstract_bcs_io.o
 .pdr           0x00000000      0x280 build/default/production/_ext/805493626/Abstract_bcs_io.o
 .reginfo       0x00000000       0x18 build/default/production/_ext/805493626/Bcs_IO_AdvancedAsync.o
 .pdr           0x00000000      0x200 build/default/production/_ext/805493626/Bcs_IO_AdvancedAsync.o
 .reginfo       0x00000000       0x18 build/default/production/_ext/1051272628/Abstract_bcs_io_setmode.o
 .pdr           0x00000000       0xa0 build/default/production/_ext/1051272628/Abstract_bcs_io_setmode.o
 .reginfo       0x00000000       0x18 build/default/production/_ext/1051272628/Namespace_bcs_io_setmode.o
 .pdr           0x00000000       0x40 build/default/production/_ext/1051272628/Namespace_bcs_io_setmode.o
 .reginfo       0x00000000       0x18 build/default/production/_ext/1825615050/CartesianController.o
 .pdr           0x00000000       0xa0 build/default/production/_ext/1825615050/CartesianController.o
 .reginfo       0x00000000       0x18 build/default/production/_ext/1825615050/PID.o
 .pdr           0x00000000      0x1a0 build/default/production/_ext/1825615050/PID.o
 .reginfo       0x00000000       0x18 build/default/production/_ext/1978776677/UpstreamPackets.o
 .pdr           0x00000000      0x100 build/default/production/_ext/1978776677/UpstreamPackets.o
 .reginfo       0x00000000       0x18 build/default/production/_ext/1978776677/InitializationCallbacks.o
 .pdr           0x00000000       0x40 build/default/production/_ext/1978776677/InitializationCallbacks.o
 .reginfo       0x00000000       0x18 build/default/production/_ext/1978776677/DownStreamPackets.o
 .pdr           0x00000000      0x2a0 build/default/production/_ext/1978776677/DownStreamPackets.o
 .reginfo       0x00000000       0x18 build/default/production/_ext/1978776677/AsyncManager.o
 .pdr           0x00000000       0x60 build/default/production/_ext/1978776677/AsyncManager.o
 .reginfo       0x00000000       0x18 build/default/production/_ext/2110062566/UartDMARx.o
 .pdr           0x00000000        0x0 build/default/production/_ext/2110062566/UartDMARx.o
 .reginfo       0x00000000       0x18 build/default/production/_ext/990863823/AVRInterface.o
 .pdr           0x00000000      0x120 build/default/production/_ext/990863823/AVRInterface.o
 .reginfo       0x00000000       0x18 build/default/production/_ext/990863823/Switches.o
 .pdr           0x00000000       0x40 build/default/production/_ext/990863823/Switches.o
 .reginfo       0x00000000       0x18 build/default/production/_ext/990863823/DyIODataTableManager.o
 .pdr           0x00000000       0xa0 build/default/production/_ext/990863823/DyIODataTableManager.o
 .reginfo       0x00000000       0x18 build/default/production/_ext/990863823/CoProcCom.o
 .pdr           0x00000000      0x200 build/default/production/_ext/990863823/CoProcCom.o
 .reginfo       0x00000000       0x18 build/default/production/_ext/990863823/ADC.o
 .pdr           0x00000000      0x180 build/default/production/_ext/990863823/ADC.o
 .reginfo       0x00000000       0x18 build/default/production/_ext/990863823/Counter.o
 .pdr           0x00000000      0x380 build/default/production/_ext/990863823/Counter.o
 .reginfo       0x00000000       0x18 build/default/production/_ext/990863823/EEPROMMannager.o
 .pdr           0x00000000       0xe0 build/default/production/_ext/990863823/EEPROMMannager.o
 .reginfo       0x00000000       0x18 build/default/production/_ext/990863823/SerialPassThrough.o
 .pdr           0x00000000       0x20 build/default/production/_ext/990863823/SerialPassThrough.o
 .reginfo       0x00000000       0x18 build/default/production/_ext/990863823/SPI.o
 .pdr           0x00000000       0xc0 build/default/production/_ext/990863823/SPI.o
 .reginfo       0x00000000       0x18 build/default/production/_ext/990863823/PPMReader.o
 .pdr           0x00000000      0x100 build/default/production/_ext/990863823/PPMReader.o
 .reginfo       0x00000000       0x18 build/default/production/_ext/1020318379/Pin_State.o
 .pdr           0x00000000       0x20 build/default/production/_ext/1020318379/Pin_State.o
 .reginfo       0x00000000       0x18 build/default/production/_ext/1020318379/ChannelConfig.o
 .pdr           0x00000000       0x20 build/default/production/_ext/1020318379/ChannelConfig.o
 .reginfo       0x00000000       0x18 build/default/production/_ext/1020318379/ChannelValues.o
 .pdr           0x00000000       0xc0 build/default/production/_ext/1020318379/ChannelValues.o
 .reginfo       0x00000000       0x18 build/default/production/_ext/1020318379/ChannelMode.o
 .pdr           0x00000000       0x80 build/default/production/_ext/1020318379/ChannelMode.o
 .reginfo       0x00000000       0x18 build/default/production/_ext/1281821416/Abstract_bsc_safe.o
 .pdr           0x00000000        0x0 build/default/production/_ext/1281821416/Abstract_bsc_safe.o
 .reginfo       0x00000000       0x18 build/default/production/_ext/1281821416/Namespace_bcs_safe.o
 .pdr           0x00000000       0x80 build/default/production/_ext/1281821416/Namespace_bcs_safe.o
 .reginfo       0x00000000       0x18 build/default/production/_ext/321196743/Namespace_neuronrobotics_dyio.o
 .pdr           0x00000000      0x120 build/default/production/_ext/321196743/Namespace_neuronrobotics_dyio.o
 .reginfo       0x00000000       0x18 build/default/production/_ext/321196743/Namespace_bcs_pid_dypid.o
 .pdr           0x00000000       0x80 build/default/production/_ext/321196743/Namespace_bcs_pid_dypid.o
 .reginfo       0x00000000       0x18 build/default/production/_ext/1360937237/Main.o
 .pdr           0x00000000       0x20 build/default/production/_ext/1360937237/Main.o
 .reginfo       0x00000000       0x18 build/default/production/_ext/1360937237/DyIOMain.o
 .pdr           0x00000000       0x60 build/default/production/_ext/1360937237/DyIOMain.o
 .reginfo       0x00000000       0x18 ../../../../../c-bowler/firmware/library/NR-Clib/development/c-bowler.X/dist/default/production/c-bowler.X.a(BowlerPacketParser.o)
 .pdr           0x00000000      0x100 ../../../../../c-bowler/firmware/library/NR-Clib/development/c-bowler.X/dist/default/production/c-bowler.X.a(BowlerPacketParser.o)
 .reginfo       0x00000000       0x18 ../../../../../c-bowler/firmware/library/NR-Clib/development/c-bowler.X/dist/default/production/c-bowler.X.a(Namespace_bcs_core.o)
 .pdr           0x00000000      0x160 ../../../../../c-bowler/firmware/library/NR-Clib/development/c-bowler.X/dist/default/production/c-bowler.X.a(Namespace_bcs_core.o)
 .reginfo       0x00000000       0x18 ../../../../../c-bowler/firmware/library/NR-Clib/development/c-bowler.X/dist/default/production/c-bowler.X.a(Bowler_Server.o)
 .pdr           0x00000000       0xc0 ../../../../../c-bowler/firmware/library/NR-Clib/development/c-bowler.X/dist/default/production/c-bowler.X.a(Bowler_Server.o)
 .reginfo       0x00000000       0x18 ../../../../../c-bowler/firmware/library/NR-Clib/development/c-bowler.X/dist/default/production/c-bowler.X.a(Debug.o)
 .pdr           0x00000000      0x260 ../../../../../c-bowler/firmware/library/NR-Clib/development/c-bowler.X/dist/default/production/c-bowler.X.a(Debug.o)
 .reginfo       0x00000000       0x18 ../../../../../c-bowler/firmware/library/NR-Clib/development/c-bowler.X/dist/default/production/c-bowler.X.a(FIFO.o)
 .pdr           0x00000000      0x220 ../../../../../c-bowler/firmware/library/NR-Clib/development/c-bowler.X/dist/default/production/c-bowler.X.a(FIFO.o)
 .reginfo       0x00000000       0x18 ../../../../../c-bowler/firmware/library/NR-Clib/development/c-bowler.X/dist/default/production/c-bowler.X.a(Bowler_Helper.o)
 .pdr           0x00000000      0x280 ../../../../../c-bowler/firmware/library/NR-Clib/development/c-bowler.X/dist/default/production/c-bowler.X.a(Bowler_Helper.o)
 .reginfo       0x00000000       0x18 ../../../../../c-bowler/firmware/library/NR-Clib/development/c-bowler.X/dist/default/production/c-bowler.X.a(Scheduler.o)
 .pdr           0x00000000       0x20 ../../../../../c-bowler/firmware/library/NR-Clib/development/c-bowler.X/dist/default/production/c-bowler.X.a(Scheduler.o)
 .reginfo       0x00000000       0x18 ../../../../../c-bowler/firmware/library/NR-Clib/development/c-bowler.X/dist/default/production/c-bowler.X.a(Namespace_bcs_pid.o)
 .pdr           0x00000000       0x40 ../../../../../c-bowler/firmware/library/NR-Clib/development/c-bowler.X/dist/default/production/c-bowler.X.a(Namespace_bcs_pid.o)
 .reginfo       0x00000000       0x18 ../../../../../c-bowler/firmware/library/NR-Clib/development/c-bowler.X/dist/default/production/c-bowler.X.a(AbstractPID.o)
 .pdr           0x00000000      0x360 ../../../../../c-bowler/firmware/library/NR-Clib/development/c-bowler.X/dist/default/production/c-bowler.X.a(AbstractPID.o)
 .reginfo       0x00000000       0x18 ../../../../../c-bowler/firmware/library/NR-Clib/development/c-bowler.X/dist/default/production/c-bowler.X.a(usb_fifo.o)
 .pdr           0x00000000      0x1a0 ../../../../../c-bowler/firmware/library/NR-Clib/development/c-bowler.X/dist/default/production/c-bowler.X.a(usb_fifo.o)
 .reginfo       0x00000000       0x18 ../../../../../c-bowler/firmware/library/NR-Clib/development/c-bowler.X/dist/default/production/c-bowler.X.a(usb_device.o)
 .pdr           0x00000000      0x360 ../../../../../c-bowler/firmware/library/NR-Clib/development/c-bowler.X/dist/default/production/c-bowler.X.a(usb_device.o)
 .reginfo       0x00000000       0x18 ../../../../../c-bowler/firmware/library/NR-Clib/development/c-bowler.X/dist/default/production/c-bowler.X.a(LED.o)
 .pdr           0x00000000       0xa0 ../../../../../c-bowler/firmware/library/NR-Clib/development/c-bowler.X/dist/default/production/c-bowler.X.a(LED.o)
 .reginfo       0x00000000       0x18 ../../../../../c-bowler/firmware/library/NR-Clib/development/c-bowler.X/dist/default/production/c-bowler.X.a(ADC.o)
 .pdr           0x00000000       0x60 ../../../../../c-bowler/firmware/library/NR-Clib/development/c-bowler.X/dist/default/production/c-bowler.X.a(ADC.o)
 .reginfo       0x00000000       0x18 ../../../../../c-bowler/firmware/library/NR-Clib/development/c-bowler.X/dist/default/production/c-bowler.X.a(HAL_P32.o)
 .pdr           0x00000000      0x180 ../../../../../c-bowler/firmware/library/NR-Clib/development/c-bowler.X/dist/default/production/c-bowler.X.a(HAL_P32.o)
 .reginfo       0x00000000       0x18 ../../../../../c-bowler/firmware/library/NR-Clib/development/c-bowler.X/dist/default/production/c-bowler.X.a(Delay.o)
 .pdr           0x00000000       0xa0 ../../../../../c-bowler/firmware/library/NR-Clib/development/c-bowler.X/dist/default/production/c-bowler.X.a(Delay.o)
 .reginfo       0x00000000       0x18 ../../../../../c-bowler/firmware/library/NR-Clib/development/c-bowler.X/dist/default/production/c-bowler.X.a(Bowler_USB_HAL.o)
 .pdr           0x00000000       0x60 ../../../../../c-bowler/firmware/library/NR-Clib/development/c-bowler.X/dist/default/production/c-bowler.X.a(Bowler_USB_HAL.o)
 .reginfo       0x00000000       0x18 ../../../../../c-bowler/firmware/library/NR-Clib/development/c-bowler.X/dist/default/production/c-bowler.X.a(FlashStorage.o)
 .pdr           0x00000000      0x180 ../../../../../c-bowler/firmware/library/NR-Clib/development/c-bowler.X/dist/default/production/c-bowler.X.a(FlashStorage.o)
 .reginfo       0x00000000       0x18 ../../../../../c-bowler/firmware/library/NR-Clib/development/c-bowler.X/dist/default/production/c-bowler.X.a(Bowler_UART_HAL.o)
 .pdr           0x00000000      0x180 ../../../../../c-bowler/firmware/library/NR-Clib/development/c-bowler.X/dist/default/production/c-bowler.X.a(Bowler_UART_HAL.o)
 .reginfo       0x00000000       0x18 ../../../../../c-bowler/firmware/library/NR-Clib/development/c-bowler.X/dist/default/production/c-bowler.X.a(Tick.o)
 .pdr           0x00000000      0x100 ../../../../../c-bowler/firmware/library/NR-Clib/development/c-bowler.X/dist/default/production/c-bowler.X.a(Tick.o)
 .reginfo       0x00000000       0x18 ../../../../../c-bowler/firmware/library/NR-Clib/development/c-bowler.X/dist/default/production/c-bowler.X.a(UART.o)
 .pdr           0x00000000       0x40 ../../../../../c-bowler/firmware/library/NR-Clib/development/c-bowler.X/dist/default/production/c-bowler.X.a(UART.o)
 .reginfo       0x00000000       0x18 ../../../../../c-bowler/firmware/library/NR-Clib/development/c-bowler.X/dist/default/production/c-bowler.X.a(Namespace_bcs_rpc.o)
 .pdr           0x00000000       0x60 ../../../../../c-bowler/firmware/library/NR-Clib/development/c-bowler.X/dist/default/production/c-bowler.X.a(Namespace_bcs_rpc.o)
 .reginfo       0x00000000       0x18 ../../../../../c-bowler/firmware/library/NR-Clib/development/c-bowler.X/dist/default/production/c-bowler.X.a(PidRpc.o)
 .pdr           0x00000000      0x100 ../../../../../c-bowler/firmware/library/NR-Clib/development/c-bowler.X/dist/default/production/c-bowler.X.a(PidRpc.o)
 .reginfo       0x00000000       0x18 ../../../../../c-bowler/firmware/library/NR-Clib/development/c-bowler.X/dist/default/production/c-bowler.X.a(PidHysteresis.o)
 .pdr           0x00000000      0x180 ../../../../../c-bowler/firmware/library/NR-Clib/development/c-bowler.X/dist/default/production/c-bowler.X.a(PidHysteresis.o)
 .reginfo       0x00000000       0x18 ../../../../../c-bowler/firmware/library/NR-Clib/development/c-bowler.X/dist/default/production/c-bowler.X.a(PidAsync.o)
 .pdr           0x00000000       0x80 ../../../../../c-bowler/firmware/library/NR-Clib/development/c-bowler.X/dist/default/production/c-bowler.X.a(PidAsync.o)
 .reginfo       0x00000000       0x18 ../../../../../c-bowler/firmware/library/NR-Clib/development/c-bowler.X/dist/default/production/c-bowler.X.a(usb_callback.o)
 .pdr           0x00000000      0x140 ../../../../../c-bowler/firmware/library/NR-Clib/development/c-bowler.X/dist/default/production/c-bowler.X.a(usb_callback.o)
 .reginfo       0x00000000       0x18 ../../../../../c-bowler/firmware/library/NR-Clib/development/c-bowler.X/dist/default/production/c-bowler.X.a(usb_function_cdc.o)
 .pdr           0x00000000      0x100 ../../../../../c-bowler/firmware/library/NR-Clib/development/c-bowler.X/dist/default/production/c-bowler.X.a(usb_function_cdc.o)
 .reginfo       0x00000000       0x18 ../../../../../c-bowler/firmware/library/NR-Clib/development/c-bowler.X/dist/default/production/c-bowler.X.a(usb_descriptors.o)
 .pdr           0x00000000       0x60 ../../../../../c-bowler/firmware/library/NR-Clib/development/c-bowler.X/dist/default/production/c-bowler.X.a(usb_descriptors.o)
 .reginfo       0x00000000       0x18 ../../../../../c-bowler/firmware/library/NR-Clib/development/c-bowler.X/dist/default/production/c-bowler.X.a(PidVelocity.o)
 .pdr           0x00000000       0x60 ../../../../../c-bowler/firmware/library/NR-Clib/development/c-bowler.X/dist/default/production/c-bowler.X.a(PidVelocity.o)
 .reginfo       0x00000000       0x18 /home/opt/microchip/xc32/v1.00/bin/../lib/gcc/pic32mx/4.5.1/libgcc.a(floatunsisf.o)
 .pdr           0x00000000       0x20 /home/opt/microchip/xc32/v1.00/bin/../lib/gcc/pic32mx/4.5.1/libgcc.a(floatunsisf.o)
 .reginfo       0x00000000       0x18 /home/opt/microchip/xc32/v1.00/bin/../lib/gcc/pic32mx/4.5.1/../../../../pic32mx/lib/libc.a(memcpy.o)
 .pdr           0x00000000       0x20 /home/opt/microchip/xc32/v1.00/bin/../lib/gcc/pic32mx/4.5.1/../../../../pic32mx/lib/libc.a(memcpy.o)
 .reginfo       0x00000000       0x18 /home/opt/microchip/xc32/v1.00/bin/../lib/gcc/pic32mx/4.5.1/../../../../pic32mx/lib/libc.a(general-exception.o)
 .pdr           0x00000000       0x20 /home/opt/microchip/xc32/v1.00/bin/../lib/gcc/pic32mx/4.5.1/../../../../pic32mx/lib/libc.a(general-exception.o)
 .reginfo       0x00000000       0x18 /home/opt/microchip/xc32/v1.00/bin/../lib/gcc/pic32mx/4.5.1/../../../../pic32mx/lib/libc.a(default-bootstrap-exception-handler.o)
 .pdr           0x00000000       0x20 /home/opt/microchip/xc32/v1.00/bin/../lib/gcc/pic32mx/4.5.1/../../../../pic32mx/lib/libc.a(default-bootstrap-exception-handler.o)
 .reginfo       0x00000000       0x18 /home/opt/microchip/xc32/v1.00/bin/../lib/gcc/pic32mx/4.5.1/../../../../pic32mx/lib/libc.a(default-on-reset.o)
 .pdr           0x00000000       0x20 /home/opt/microchip/xc32/v1.00/bin/../lib/gcc/pic32mx/4.5.1/../../../../pic32mx/lib/libc.a(default-on-reset.o)
 .reginfo       0x00000000       0x18 /home/opt/microchip/xc32/v1.00/bin/../lib/gcc/pic32mx/4.5.1/../../../../pic32mx/lib/libc.a(default-on-bootstrap.o)
 .pdr           0x00000000       0x20 /home/opt/microchip/xc32/v1.00/bin/../lib/gcc/pic32mx/4.5.1/../../../../pic32mx/lib/libc.a(default-on-bootstrap.o)
 .reginfo       0x00000000       0x18 /home/opt/microchip/xc32/v1.00/bin/../lib/gcc/pic32mx/4.5.1/../../../../pic32mx/lib/libc.a(default-nmi-handler.o)
 .pdr           0x00000000       0x20 /home/opt/microchip/xc32/v1.00/bin/../lib/gcc/pic32mx/4.5.1/../../../../pic32mx/lib/libc.a(default-nmi-handler.o)
 .reginfo       0x00000000       0x18 /home/opt/microchip/xc32/v1.00/bin/../lib/gcc/pic32mx/4.5.1/../../../../pic32mx/lib/libm.a(fp32.o)
 .pdr           0x00000000        0x0 /home/opt/microchip/xc32/v1.00/bin/../lib/gcc/pic32mx/4.5.1/../../../../pic32mx/lib/libm.a(fp32.o)
 .reginfo       0x00000000       0x18 /home/opt/microchip/xc32/v1.00/bin/../lib/gcc/pic32mx/4.5.1/../../../../pic32mx/lib/./proc/32MX440F128H/processor.o
 .pdr           0x00000000        0x0 /home/opt/microchip/xc32/v1.00/bin/../lib/gcc/pic32mx/4.5.1/../../../../pic32mx/lib/./proc/32MX440F128H/processor.o
 .reginfo       0x00000000       0x18 /home/opt/microchip/xc32/v1.00/bin/../lib/gcc/pic32mx/4.5.1/../../../../pic32mx/lib/libmchp_peripheral_32MX440F128H.a(soft_reset_lib.o)
 .pdr           0x00000000       0x20 /home/opt/microchip/xc32/v1.00/bin/../lib/gcc/pic32mx/4.5.1/../../../../pic32mx/lib/libmchp_peripheral_32MX440F128H.a(soft_reset_lib.o)
 .reginfo       0x00000000       0x18 /home/opt/microchip/xc32/v1.00/bin/../lib/gcc/pic32mx/4.5.1/../../../../pic32mx/lib/libmchp_peripheral_32MX440F128H.a(int_enable_interrupts_lib.o)
 .pdr           0x00000000       0x20 /home/opt/microchip/xc32/v1.00/bin/../lib/gcc/pic32mx/4.5.1/../../../../pic32mx/lib/libmchp_peripheral_32MX440F128H.a(int_enable_interrupts_lib.o)
 .reginfo       0x00000000       0x18 /home/opt/microchip/xc32/v1.00/bin/../lib/gcc/pic32mx/4.5.1/../../../../pic32mx/lib/libmchp_peripheral_32MX440F128H.a(int_disable_interrupts_lib.o)
 .pdr           0x00000000       0x20 /home/opt/microchip/xc32/v1.00/bin/../lib/gcc/pic32mx/4.5.1/../../../../pic32mx/lib/libmchp_peripheral_32MX440F128H.a(int_disable_interrupts_lib.o)
 .reginfo       0x00000000       0x18 /home/opt/microchip/xc32/v1.00/bin/../lib/gcc/pic32mx/4.5.1/../../../../pic32mx/lib/libmchp_peripheral_32MX440F128H.a(int_enable_mv_int_lib.o)
 .pdr           0x00000000       0x20 /home/opt/microchip/xc32/v1.00/bin/../lib/gcc/pic32mx/4.5.1/../../../../pic32mx/lib/libmchp_peripheral_32MX440F128H.a(int_enable_mv_int_lib.o)
 .reginfo       0x00000000       0x18 /home/opt/microchip/xc32/v1.00/bin/../lib/gcc/pic32mx/4.5.1/../../../../pic32mx/lib/libmchp_peripheral_32MX440F128H.a(int_tbl_lib.o)
 .pdr           0x00000000      0x120 /home/opt/microchip/xc32/v1.00/bin/../lib/gcc/pic32mx/4.5.1/../../../../pic32mx/lib/libmchp_peripheral_32MX440F128H.a(int_tbl_lib.o)
 .reginfo       0x00000000       0x18 /home/opt/microchip/xc32/v1.00/bin/../lib/gcc/pic32mx/4.5.1/../../../../pic32mx/lib/libmchp_peripheral_32MX440F128H.a(spi_getc_spi2_lib_legacy.o)
 .pdr           0x00000000       0x20 /home/opt/microchip/xc32/v1.00/bin/../lib/gcc/pic32mx/4.5.1/../../../../pic32mx/lib/libmchp_peripheral_32MX440F128H.a(spi_getc_spi2_lib_legacy.o)
 .reginfo       0x00000000       0x18 /home/opt/microchip/xc32/v1.00/bin/../lib/gcc/pic32mx/4.5.1/../../../../pic32mx/lib/libmchp_peripheral_32MX440F128H.a(spi_open_spi2_lib_legacy.o)
 .pdr           0x00000000       0x20 /home/opt/microchip/xc32/v1.00/bin/../lib/gcc/pic32mx/4.5.1/../../../../pic32mx/lib/libmchp_peripheral_32MX440F128H.a(spi_open_spi2_lib_legacy.o)
 .reginfo       0x00000000       0x18 /home/opt/microchip/xc32/v1.00/bin/../lib/gcc/pic32mx/4.5.1/../../../../pic32mx/lib/libmchp_peripheral_32MX440F128H.a(spi_brg_tbl_lib_legacy.o)
 .pdr           0x00000000        0x0 /home/opt/microchip/xc32/v1.00/bin/../lib/gcc/pic32mx/4.5.1/../../../../pic32mx/lib/libmchp_peripheral_32MX440F128H.a(spi_brg_tbl_lib_legacy.o)
 .reginfo       0x00000000       0x18 /home/opt/microchip/xc32/v1.00/bin/../lib/gcc/pic32mx/4.5.1/../../../../pic32mx/lib/libmchp_peripheral_32MX440F128H.a(nvm_erase_page_lib.o)
 .pdr           0x00000000       0x20 /home/opt/microchip/xc32/v1.00/bin/../lib/gcc/pic32mx/4.5.1/../../../../pic32mx/lib/libmchp_peripheral_32MX440F128H.a(nvm_erase_page_lib.o)
 .reginfo       0x00000000       0x18 /home/opt/microchip/xc32/v1.00/bin/../lib/gcc/pic32mx/4.5.1/../../../../pic32mx/lib/libmchp_peripheral_32MX440F128H.a(nvm_operation_lib.o)
 .pdr           0x00000000       0x20 /home/opt/microchip/xc32/v1.00/bin/../lib/gcc/pic32mx/4.5.1/../../../../pic32mx/lib/libmchp_peripheral_32MX440F128H.a(nvm_operation_lib.o)
 .reginfo       0x00000000       0x18 /home/opt/microchip/xc32/v1.00/bin/../lib/gcc/pic32mx/4.5.1/../../../../pic32mx/lib/libmchp_peripheral_32MX440F128H.a(nvm_write_word_lib.o)
 .pdr           0x00000000       0x20 /home/opt/microchip/xc32/v1.00/bin/../lib/gcc/pic32mx/4.5.1/../../../../pic32mx/lib/libmchp_peripheral_32MX440F128H.a(nvm_write_word_lib.o)
 .reginfo       0x00000000       0x18 /home/opt/microchip/xc32/v1.00/bin/../lib/gcc/pic32mx/4.5.1/../../../../pic32mx/lib/libmchp_peripheral_32MX440F128H.a(port_set_pins_digital_out_lib.o)
 .pdr           0x00000000       0x20 /home/opt/microchip/xc32/v1.00/bin/../lib/gcc/pic32mx/4.5.1/../../../../pic32mx/lib/libmchp_peripheral_32MX440F128H.a(port_set_pins_digital_out_lib.o)
 .reginfo       0x00000000       0x18 /home/opt/microchip/xc32/v1.00/bin/../lib/gcc/pic32mx/4.5.1/../../../../pic32mx/lib/libmchp_peripheral_32MX440F128H.a(port_clear_bits_lib.o)
 .pdr           0x00000000       0x20 /home/opt/microchip/xc32/v1.00/bin/../lib/gcc/pic32mx/4.5.1/../../../../pic32mx/lib/libmchp_peripheral_32MX440F128H.a(port_clear_bits_lib.o)
 .reginfo       0x00000000       0x18 /home/opt/microchip/xc32/v1.00/bin/../lib/gcc/pic32mx/4.5.1/../../../../pic32mx/lib/libmchp_peripheral_32MX440F128H.a(port_set_bits_lib.o)
 .pdr           0x00000000       0x20 /home/opt/microchip/xc32/v1.00/bin/../lib/gcc/pic32mx/4.5.1/../../../../pic32mx/lib/libmchp_peripheral_32MX440F128H.a(port_set_bits_lib.o)
 .reginfo       0x00000000       0x18 /home/opt/microchip/xc32/v1.00/bin/../lib/gcc/pic32mx/4.5.1/../../../../pic32mx/lib/libmchp_peripheral_32MX440F128H.a(_ports_tbl_libp.o)
 .pdr           0x00000000        0x0 /home/opt/microchip/xc32/v1.00/bin/../lib/gcc/pic32mx/4.5.1/../../../../pic32mx/lib/libmchp_peripheral_32MX440F128H.a(_ports_tbl_libp.o)
 .reginfo       0x00000000       0x18 /home/opt/microchip/xc32/v1.00/bin/../lib/gcc/pic32mx/4.5.1/../../../../pic32mx/lib/libmchp_peripheral_32MX440F128H.a(uart_lib.o)
 .pdr           0x00000000      0x100 /home/opt/microchip/xc32/v1.00/bin/../lib/gcc/pic32mx/4.5.1/../../../../pic32mx/lib/libmchp_peripheral_32MX440F128H.a(uart_lib.o)
 .reginfo       0x00000000       0x18 /home/opt/microchip/xc32/v1.00/bin/../lib/gcc/pic32mx/4.5.1/../../../../pic32mx/lib/libmchp_peripheral_32MX440F128H.a(int_restore_interrupts_lib.o)
 .pdr           0x00000000       0x20 /home/opt/microchip/xc32/v1.00/bin/../lib/gcc/pic32mx/4.5.1/../../../../pic32mx/lib/libmchp_peripheral_32MX440F128H.a(int_restore_interrupts_lib.o)

Memory Configuration

Name             Origin             Length             Attributes
kseg0_program_mem 0x9d000000         0x00020000         xr
kseg0_boot_mem   0x9fc00490         0x00000970
exception_mem    0x9fc01000         0x00001000
kseg1_boot_mem   0xbfc00000         0x00000490
debug_exec_mem   0xbfc02000         0x00000ff0
config3          0xbfc02ff0         0x00000004
config2          0xbfc02ff4         0x00000004
config1          0xbfc02ff8         0x00000004
config0          0xbfc02ffc         0x00000004
kseg1_data_mem   0xa0000000         0x00008000         w !x
sfrs             0xbf800000         0x00100000
configsfrs       0xbfc02ff0         0x00000010
*default*        0x00000000         0xffffffff

Linker script and memory map

LOAD /home/opt/microchip/xc32/v1.00/bin/../lib/gcc/pic32mx/4.5.1/../../../../pic32mx/lib/crt0.o
LOAD build/default/production/_ext/108654538/PinFunctions.o
LOAD build/default/production/_ext/805493626/Debug_DyIO.o
LOAD build/default/production/_ext/805493626/Namespace_bcs_io.o
LOAD build/default/production/_ext/805493626/Abstract_bcs_io.o
LOAD build/default/production/_ext/805493626/Bcs_IO_AdvancedAsync.o
LOAD build/default/production/_ext/1051272628/Abstract_bcs_io_setmode.o
LOAD build/default/production/_ext/1051272628/Namespace_bcs_io_setmode.o
LOAD build/default/production/_ext/1825615050/CartesianController.o
LOAD build/default/production/_ext/1825615050/PID.o
LOAD build/default/production/_ext/1978776677/UpstreamPackets.o
LOAD build/default/production/_ext/1978776677/InitializationCallbacks.o
LOAD build/default/production/_ext/1978776677/DownStreamPackets.o
LOAD build/default/production/_ext/1978776677/AsyncManager.o
LOAD build/default/production/_ext/2110062566/UartDMARx.o
LOAD build/default/production/_ext/990863823/AVRInterface.o
LOAD build/default/production/_ext/990863823/Switches.o
LOAD build/default/production/_ext/990863823/DyIODataTableManager.o
LOAD build/default/production/_ext/990863823/CoProcCom.o
LOAD build/default/production/_ext/990863823/ADC.o
LOAD build/default/production/_ext/990863823/Counter.o
LOAD build/default/production/_ext/990863823/EEPROMMannager.o
LOAD build/default/production/_ext/990863823/SerialPassThrough.o
LOAD build/default/production/_ext/990863823/SPI.o
LOAD build/default/production/_ext/990863823/PPMReader.o
LOAD build/default/production/_ext/1020318379/Pin_State.o
LOAD build/default/production/_ext/1020318379/ChannelConfig.o
LOAD build/default/production/_ext/1020318379/ChannelValues.o
LOAD build/default/production/_ext/1020318379/ChannelMode.o
LOAD build/default/production/_ext/1281821416/Abstract_bsc_safe.o
LOAD build/default/production/_ext/1281821416/Namespace_bcs_safe.o
LOAD build/default/production/_ext/321196743/Namespace_neuronrobotics_dyio.o
LOAD build/default/production/_ext/321196743/Namespace_bcs_pid_dypid.o
LOAD build/default/production/_ext/1360937237/Main.o
LOAD build/default/production/_ext/1360937237/DyIOMain.o
LOAD ../../../../../c-bowler/firmware/library/NR-Clib/development/c-bowler.X/dist/default/production/c-bowler.X.a
                0x00000001                __MPLAB_BUILD = 0x1
LOAD /home/opt/microchip/xc32/v1.00/bin/../lib/gcc/pic32mx/4.5.1/libgcc.a
START GROUP
LOAD /home/opt/microchip/xc32/v1.00/bin/../lib/gcc/pic32mx/4.5.1/../../../../pic32mx/lib/libdebug.a
LOAD /home/opt/microchip/xc32/v1.00/bin/../lib/gcc/pic32mx/4.5.1/../../../../pic32mx/lib/libc.a
LOAD /home/opt/microchip/xc32/v1.00/bin/../lib/gcc/pic32mx/4.5.1/../../../../pic32mx/lib/libm.a
LOAD /home/opt/microchip/xc32/v1.00/bin/../lib/gcc/pic32mx/4.5.1/../../../../pic32mx/lib/libe.a
LOAD /home/opt/microchip/xc32/v1.00/bin/../lib/gcc/pic32mx/4.5.1/../../../../pic32mx/lib/libdsp.a
END GROUP
LOAD /home/opt/microchip/xc32/v1.00/bin/../lib/gcc/pic32mx/4.5.1/libgcc.a
                0x00000400                PROVIDE (_min_stack_size, 0x400)
                0x00000000                PROVIDE (_min_heap_size, 0x0)
LOAD /home/opt/microchip/xc32/v1.00/bin/../lib/gcc/pic32mx/4.5.1/../../../../pic32mx/lib/./proc/32MX440F128H/processor.o
START GROUP
LOAD /home/opt/microchip/xc32/v1.00/bin/../lib/gcc/pic32mx/4.5.1/../../../../pic32mx/lib/libmchp_peripheral.a
END GROUP
START GROUP
LOAD /home/opt/microchip/xc32/v1.00/bin/../lib/gcc/pic32mx/4.5.1/../../../../pic32mx/lib/libmchp_peripheral_32MX440F128H.a
END GROUP
                0x00000001                PROVIDE (_vector_spacing, 0x1)
                0x9fc01000                _ebase_address = 0x9fc01000
                0xbfc00000                _RESET_ADDR = 0xbfc00000
                0xbfc00380                _BEV_EXCPT_ADDR = 0xbfc00380
                0xbfc00480                _DBG_EXCPT_ADDR = 0xbfc00480
                0xbfc02000                _DBG_CODE_ADDR = 0xbfc02000
                0x00000ff0                _DBG_CODE_SIZE = 0xff0
                0x9fc01180                _GEN_EXCPT_ADDR = (_ebase_address + 0x180)

.config_BFC02FF0
 *(.config_BFC02FF0)

.config_BFC02FF4
 *(.config_BFC02FF4)

.config_BFC02FF8
 *(.config_BFC02FF8)

.config_BFC02FFC
 *(.config_BFC02FFC)
                0xbfc02000                PROVIDE (_DBG_CODE_ADDR, 0xbfc02000)
                0x00000ff0                PROVIDE (_DBG_CODE_SIZE, 0xff0)

.reset          0xbfc00000      0x1f4
 *(.reset)
 .reset         0xbfc00000       0x10 /home/opt/microchip/xc32/v1.00/bin/../lib/gcc/pic32mx/4.5.1/../../../../pic32mx/lib/crt0.o
                0xbfc00000                _reset
 *(.reset.startup)
 .reset.startup
                0xbfc00010      0x1e4 /home/opt/microchip/xc32/v1.00/bin/../lib/gcc/pic32mx/4.5.1/../../../../pic32mx/lib/crt0.o

.bev_excpt      0xbfc00380       0x10
 *(.bev_handler)
 .bev_handler   0xbfc00380       0x10 /home/opt/microchip/xc32/v1.00/bin/../lib/gcc/pic32mx/4.5.1/../../../../pic32mx/lib/crt0.o

.dbg_excpt      0xbfc00480        0x0
                0xbfc00480                . = (. + DEFINED (_DEBUGGER)?0x8:0x0)

.dbg_code       0xbfc02000        0x0
                0xbfc02000                . = (. + DEFINED (_DEBUGGER)?_DBG_CODE_SIZE:0x0)

.app_excpt      0x9fc01180       0x10
 *(.gen_handler)
 .gen_handler   0x9fc01180       0x10 /home/opt/microchip/xc32/v1.00/bin/../lib/gcc/pic32mx/4.5.1/../../../../pic32mx/lib/crt0.o

.vector_0       0x9fc01200        0x0
 *(.vector_0)
                0x00000001                ASSERT (((_vector_spacing == 0x0) || (SIZEOF (.vector_0) <= (_vector_spacing << 0x5))), function at exception vector 0 too large)

.vector_1       0x9fc01220        0x0
 *(.vector_1)
                0x00000001                ASSERT (((_vector_spacing == 0x0) || (SIZEOF (.vector_1) <= (_vector_spacing << 0x5))), function at exception vector 1 too large)

.vector_2       0x9fc01240        0x0
 *(.vector_2)
                0x00000001                ASSERT (((_vector_spacing == 0x0) || (SIZEOF (.vector_2) <= (_vector_spacing << 0x5))), function at exception vector 2 too large)

.vector_3       0x9fc01260        0x0
 *(.vector_3)
                0x00000001                ASSERT (((_vector_spacing == 0x0) || (SIZEOF (.vector_3) <= (_vector_spacing << 0x5))), function at exception vector 3 too large)

.vector_4       0x9fc01280        0x8
 *(.vector_4)
 .vector_4      0x9fc01280        0x8 ../../../../../c-bowler/firmware/library/NR-Clib/development/c-bowler.X/dist/default/production/c-bowler.X.a(Tick.o)
                0x00000001                ASSERT (((_vector_spacing == 0x0) || (SIZEOF (.vector_4) <= (_vector_spacing << 0x5))), function at exception vector 4 too large)

.vector_5       0x9fc012a0        0x0
 *(.vector_5)
                0x00000001                ASSERT (((_vector_spacing == 0x0) || (SIZEOF (.vector_5) <= (_vector_spacing << 0x5))), function at exception vector 5 too large)

.vector_6       0x9fc012c0        0x0
 *(.vector_6)
                0x00000001                ASSERT (((_vector_spacing == 0x0) || (SIZEOF (.vector_6) <= (_vector_spacing << 0x5))), function at exception vector 6 too large)

.vector_7       0x9fc012e0        0x8
 *(.vector_7)
 .vector_7      0x9fc012e0        0x8 build/default/production/_ext/990863823/Counter.o
                0x00000001                ASSERT (((_vector_spacing == 0x0) || (SIZEOF (.vector_7) <= (_vector_spacing << 0x5))), function at exception vector 7 too large)

.vector_8       0x9fc01300        0x0
 *(.vector_8)
                0x00000001                ASSERT (((_vector_spacing == 0x0) || (SIZEOF (.vector_8) <= (_vector_spacing << 0x5))), function at exception vector 8 too large)

.vector_9       0x9fc01320        0x0
 *(.vector_9)
                0x00000001                ASSERT (((_vector_spacing == 0x0) || (SIZEOF (.vector_9) <= (_vector_spacing << 0x5))), function at exception vector 9 too large)

.vector_10      0x9fc01340        0x0
 *(.vector_10)
                0x00000001                ASSERT (((_vector_spacing == 0x0) || (SIZEOF (.vector_10) <= (_vector_spacing << 0x5))), function at exception vector 10 too large)

.vector_11      0x9fc01360        0x8
 *(.vector_11)
 .vector_11     0x9fc01360        0x8 build/default/production/_ext/990863823/Counter.o
                0x00000001                ASSERT (((_vector_spacing == 0x0) || (SIZEOF (.vector_11) <= (_vector_spacing << 0x5))), function at exception vector 11 too large)

.vector_12      0x9fc01380        0x8
 *(.vector_12)
 .vector_12     0x9fc01380        0x8 build/default/production/_ext/990863823/Counter.o
                0x00000001                ASSERT (((_vector_spacing == 0x0) || (SIZEOF (.vector_12) <= (_vector_spacing << 0x5))), function at exception vector 12 too large)

.vector_13      0x9fc013a0        0x0
 *(.vector_13)
                0x00000001                ASSERT (((_vector_spacing == 0x0) || (SIZEOF (.vector_13) <= (_vector_spacing << 0x5))), function at exception vector 13 too large)

.vector_14      0x9fc013c0        0x0
 *(.vector_14)
                0x00000001                ASSERT (((_vector_spacing == 0x0) || (SIZEOF (.vector_14) <= (_vector_spacing << 0x5))), function at exception vector 14 too large)

.vector_15      0x9fc013e0        0x8
 *(.vector_15)
 .vector_15     0x9fc013e0        0x8 build/default/production/_ext/990863823/Counter.o
                0x00000001                ASSERT (((_vector_spacing == 0x0) || (SIZEOF (.vector_15) <= (_vector_spacing << 0x5))), function at exception vector 15 too large)

.vector_16      0x9fc01400        0x0
 *(.vector_16)
                0x00000001                ASSERT (((_vector_spacing == 0x0) || (SIZEOF (.vector_16) <= (_vector_spacing << 0x5))), function at exception vector 16 too large)

.vector_17      0x9fc01420        0x0
 *(.vector_17)
                0x00000001                ASSERT (((_vector_spacing == 0x0) || (SIZEOF (.vector_17) <= (_vector_spacing << 0x5))), function at exception vector 17 too large)

.vector_18      0x9fc01440        0x0
 *(.vector_18)
                0x00000001                ASSERT (((_vector_spacing == 0x0) || (SIZEOF (.vector_18) <= (_vector_spacing << 0x5))), function at exception vector 18 too large)

.vector_19      0x9fc01460        0x8
 *(.vector_19)
 .vector_19     0x9fc01460        0x8 build/default/production/_ext/990863823/Counter.o
                0x00000001                ASSERT (((_vector_spacing == 0x0) || (SIZEOF (.vector_19) <= (_vector_spacing << 0x5))), function at exception vector 19 too large)

.vector_20      0x9fc01480        0x0
 *(.vector_20)
                0x00000001                ASSERT (((_vector_spacing == 0x0) || (SIZEOF (.vector_20) <= (_vector_spacing << 0x5))), function at exception vector 20 too large)

.vector_21      0x9fc014a0        0x0
 *(.vector_21)
                0x00000001                ASSERT (((_vector_spacing == 0x0) || (SIZEOF (.vector_21) <= (_vector_spacing << 0x5))), function at exception vector 21 too large)

.vector_22      0x9fc014c0        0x0
 *(.vector_22)
                0x00000001                ASSERT (((_vector_spacing == 0x0) || (SIZEOF (.vector_22) <= (_vector_spacing << 0x5))), function at exception vector 22 too large)

.vector_23      0x9fc014e0        0x0
 *(.vector_23)
                0x00000001                ASSERT (((_vector_spacing == 0x0) || (SIZEOF (.vector_23) <= (_vector_spacing << 0x5))), function at exception vector 23 too large)

.vector_24      0x9fc01500        0x8
 *(.vector_24)
 .vector_24     0x9fc01500        0x8 ../../../../../c-bowler/firmware/library/NR-Clib/development/c-bowler.X/dist/default/production/c-bowler.X.a(Bowler_UART_HAL.o)
                0x00000001                ASSERT (((_vector_spacing == 0x0) || (SIZEOF (.vector_24) <= (_vector_spacing << 0x5))), function at exception vector 24 too large)

.vector_25      0x9fc01520        0x0
 *(.vector_25)
                0x00000001                ASSERT (((_vector_spacing == 0x0) || (SIZEOF (.vector_25) <= (_vector_spacing << 0x5))), function at exception vector 25 too large)

.vector_26      0x9fc01540        0x0
 *(.vector_26)
                0x00000001                ASSERT (((_vector_spacing == 0x0) || (SIZEOF (.vector_26) <= (_vector_spacing << 0x5))), function at exception vector 26 too large)

.vector_27      0x9fc01560        0x0
 *(.vector_27)
                0x00000001                ASSERT (((_vector_spacing == 0x0) || (SIZEOF (.vector_27) <= (_vector_spacing << 0x5))), function at exception vector 27 too large)

.vector_28      0x9fc01580        0x0
 *(.vector_28)
                0x00000001                ASSERT (((_vector_spacing == 0x0) || (SIZEOF (.vector_28) <= (_vector_spacing << 0x5))), function at exception vector 28 too large)

.vector_29      0x9fc015a0        0x0
 *(.vector_29)
                0x00000001                ASSERT (((_vector_spacing == 0x0) || (SIZEOF (.vector_29) <= (_vector_spacing << 0x5))), function at exception vector 29 too large)

.vector_30      0x9fc015c0        0x0
 *(.vector_30)
                0x00000001                ASSERT (((_vector_spacing == 0x0) || (SIZEOF (.vector_30) <= (_vector_spacing << 0x5))), function at exception vector 30 too large)

.vector_31      0x9fc015e0        0x0
 *(.vector_31)
                0x00000001                ASSERT (((_vector_spacing == 0x0) || (SIZEOF (.vector_31) <= (_vector_spacing << 0x5))), function at exception vector 31 too large)

.vector_32      0x9fc01600        0x8
 *(.vector_32)
 .vector_32     0x9fc01600        0x8 build/default/production/_ext/990863823/CoProcCom.o
                0x00000001                ASSERT (((_vector_spacing == 0x0) || (SIZEOF (.vector_32) <= (_vector_spacing << 0x5))), function at exception vector 32 too large)

.vector_33      0x9fc01620        0x0
 *(.vector_33)
                0x00000001                ASSERT (((_vector_spacing == 0x0) || (SIZEOF (.vector_33) <= (_vector_spacing << 0x5))), function at exception vector 33 too large)

.vector_34      0x9fc01640        0x0
 *(.vector_34)
                0x00000001                ASSERT (((_vector_spacing == 0x0) || (SIZEOF (.vector_34) <= (_vector_spacing << 0x5))), function at exception vector 34 too large)

.vector_35      0x9fc01660        0x0
 *(.vector_35)
                0x00000001                ASSERT (((_vector_spacing == 0x0) || (SIZEOF (.vector_35) <= (_vector_spacing << 0x5))), function at exception vector 35 too large)

.vector_36      0x9fc01680        0x0
 *(.vector_36)
                0x00000001                ASSERT (((_vector_spacing == 0x0) || (SIZEOF (.vector_36) <= (_vector_spacing << 0x5))), function at exception vector 36 too large)

.vector_37      0x9fc016a0        0x0
 *(.vector_37)
                0x00000001                ASSERT (((_vector_spacing == 0x0) || (SIZEOF (.vector_37) <= (_vector_spacing << 0x5))), function at exception vector 37 too large)

.vector_38      0x9fc016c0        0x0
 *(.vector_38)
                0x00000001                ASSERT (((_vector_spacing == 0x0) || (SIZEOF (.vector_38) <= (_vector_spacing << 0x5))), function at exception vector 38 too large)

.vector_39      0x9fc016e0        0x0
 *(.vector_39)
                0x00000001                ASSERT (((_vector_spacing == 0x0) || (SIZEOF (.vector_39) <= (_vector_spacing << 0x5))), function at exception vector 39 too large)

.vector_40      0x9fc01700        0x0
 *(.vector_40)
                0x00000001                ASSERT (((_vector_spacing == 0x0) || (SIZEOF (.vector_40) <= (_vector_spacing << 0x5))), function at exception vector 40 too large)

.vector_41      0x9fc01720        0x0
 *(.vector_41)
                0x00000001                ASSERT (((_vector_spacing == 0x0) || (SIZEOF (.vector_41) <= (_vector_spacing << 0x5))), function at exception vector 41 too large)

.vector_42      0x9fc01740        0x0
 *(.vector_42)
                0x00000001                ASSERT (((_vector_spacing == 0x0) || (SIZEOF (.vector_42) <= (_vector_spacing << 0x5))), function at exception vector 42 too large)

.vector_43      0x9fc01760        0x0
 *(.vector_43)
                0x00000001                ASSERT (((_vector_spacing == 0x0) || (SIZEOF (.vector_43) <= (_vector_spacing << 0x5))), function at exception vector 43 too large)

.vector_44      0x9fc01780        0x0
 *(.vector_44)
                0x00000001                ASSERT (((_vector_spacing == 0x0) || (SIZEOF (.vector_44) <= (_vector_spacing << 0x5))), function at exception vector 44 too large)

.vector_45      0x9fc017a0        0x8
 *(.vector_45)
 .vector_45     0x9fc017a0        0x8 ../../../../../c-bowler/firmware/library/NR-Clib/development/c-bowler.X/dist/default/production/c-bowler.X.a(usb_device.o)
                0x00000001                ASSERT (((_vector_spacing == 0x0) || (SIZEOF (.vector_45) <= (_vector_spacing << 0x5))), function at exception vector 45 too large)

.vector_46      0x9fc017c0        0x0
 *(.vector_46)
                0x00000001                ASSERT (((_vector_spacing == 0x0) || (SIZEOF (.vector_46) <= (_vector_spacing << 0x5))), function at exception vector 46 too large)

.vector_47      0x9fc017e0        0x0
 *(.vector_47)
                0x00000001                ASSERT (((_vector_spacing == 0x0) || (SIZEOF (.vector_47) <= (_vector_spacing << 0x5))), function at exception vector 47 too large)

.vector_48      0x9fc01800        0x0
 *(.vector_48)
                0x00000001                ASSERT (((_vector_spacing == 0x0) || (SIZEOF (.vector_48) <= (_vector_spacing << 0x5))), function at exception vector 48 too large)

.vector_49      0x9fc01820        0x0
 *(.vector_49)
                0x00000001                ASSERT (((_vector_spacing == 0x0) || (SIZEOF (.vector_49) <= (_vector_spacing << 0x5))), function at exception vector 49 too large)

.vector_50      0x9fc01840        0x0
 *(.vector_50)
                0x00000001                ASSERT (((_vector_spacing == 0x0) || (SIZEOF (.vector_50) <= (_vector_spacing << 0x5))), function at exception vector 50 too large)

.vector_51      0x9fc01860        0x0
 *(.vector_51)
                0x00000001                ASSERT (((_vector_spacing == 0x0) || (SIZEOF (.vector_51) <= (_vector_spacing << 0x5))), function at exception vector 51 too large)

.vector_52      0x9fc01880        0x0
 *(.vector_52)
                0x00000001                ASSERT (((_vector_spacing == 0x0) || (SIZEOF (.vector_52) <= (_vector_spacing << 0x5))), function at exception vector 52 too large)

.vector_53      0x9fc018a0        0x0
 *(.vector_53)
                0x00000001                ASSERT (((_vector_spacing == 0x0) || (SIZEOF (.vector_53) <= (_vector_spacing << 0x5))), function at exception vector 53 too large)

.vector_54      0x9fc018c0        0x0
 *(.vector_54)
                0x00000001                ASSERT (((_vector_spacing == 0x0) || (SIZEOF (.vector_54) <= (_vector_spacing << 0x5))), function at exception vector 54 too large)

.vector_55      0x9fc018e0        0x0
 *(.vector_55)
                0x00000001                ASSERT (((_vector_spacing == 0x0) || (SIZEOF (.vector_55) <= (_vector_spacing << 0x5))), function at exception vector 55 too large)

.vector_56      0x9fc01900        0x0
 *(.vector_56)
                0x00000001                ASSERT (((_vector_spacing == 0x0) || (SIZEOF (.vector_56) <= (_vector_spacing << 0x5))), function at exception vector 56 too large)

.vector_57      0x9fc01920        0x0
 *(.vector_57)
                0x00000001                ASSERT (((_vector_spacing == 0x0) || (SIZEOF (.vector_57) <= (_vector_spacing << 0x5))), function at exception vector 57 too large)

.vector_58      0x9fc01940        0x0
 *(.vector_58)
                0x00000001                ASSERT (((_vector_spacing == 0x0) || (SIZEOF (.vector_58) <= (_vector_spacing << 0x5))), function at exception vector 58 too large)

.vector_59      0x9fc01960        0x0
 *(.vector_59)
                0x00000001                ASSERT (((_vector_spacing == 0x0) || (SIZEOF (.vector_59) <= (_vector_spacing << 0x5))), function at exception vector 59 too large)

.vector_60      0x9fc01980        0x0
 *(.vector_60)
                0x00000001                ASSERT (((_vector_spacing == 0x0) || (SIZEOF (.vector_60) <= (_vector_spacing << 0x5))), function at exception vector 60 too large)

.vector_61      0x9fc019a0        0x0
 *(.vector_61)
                0x00000001                ASSERT (((_vector_spacing == 0x0) || (SIZEOF (.vector_61) <= (_vector_spacing << 0x5))), function at exception vector 61 too large)

.vector_62      0x9fc019c0        0x0
 *(.vector_62)
                0x00000001                ASSERT (((_vector_spacing == 0x0) || (SIZEOF (.vector_62) <= (_vector_spacing << 0x5))), function at exception vector 62 too large)

.vector_63      0x9fc019e0        0x0
 *(.vector_63)
                0x00000001                ASSERT (((_vector_spacing == 0x0) || (SIZEOF (.vector_63) <= (_vector_spacing << 0x5))), function at exception vector 63 too large)

.startup
 *(.startup)

.text
 *(.stub .gnu.linkonce.t.*)
 *(.text.*personality*)
 *(.mips16.fn.*)
 *(.mips16.call.*)
 *(.gnu.warning)

.rodata         0x9d000000        0x0
 *(.rodata.* .gnu.linkonce.r.*)
 *(.rodata1)
                0x9d000000                . = ALIGN (0x4)

.sdata2         0x9fc00490        0x0
 *(.sdata2 .sdata2.* .gnu.linkonce.s2.*)
                0x9fc00490                . = ALIGN (0x4)

.sbss2          0x9fc00490        0x0
 *(.sbss2 .sbss2.* .gnu.linkonce.sb2.*)
                0x9fc00490                . = ALIGN (0x4)

.eh_frame_hdr
 *(.eh_frame_hdr)

.eh_frame
 *(.eh_frame)

.dbg_data       0xa0000000        0x0
                0xa0000000                . = (. + DEFINED (_DEBUGGER)?0x200:0x0)

.persist        0xa0000000        0x0
                0xa0000000                _persist_begin = .
 *(.persist .persist.*)
                0xa0000000                . = ALIGN (0x4)
                0xa0000000                _persist_end = .

.eh_frame
 *(.eh_frame)
                0xa0000000                . = .
                0xa0007ff0                _gp = (ALIGN (0x10) + 0x7ff0)

.got
 *(.got.plt)
 *(.got)

.sdata          0xa0000000       0xfc
                0xa0000000                _sdata_begin = .
 *(.sdata .sdata.* .gnu.linkonce.s.*)
 .sdata         0xa0000000        0x8 build/default/production/_ext/1978776677/DownStreamPackets.o
                0xa0000000                bankA
                0xa0000004                bankB
 .sdata         0xa0000008        0x8 build/default/production/_ext/990863823/DyIODataTableManager.o
                0xa0000008                printData
 .sdata         0xa0000010       0x1c build/default/production/_ext/990863823/PPMReader.o
 .sdata         0xa000002c        0x4 build/default/production/_ext/1020318379/ChannelMode.o
                0xa000002c                brownOutDetect
 .sdata         0xa0000030       0x18 build/default/production/_ext/321196743/Namespace_neuronrobotics_dyio.o
                0xa0000030                syncVolt
                0xa0000038                ppm
 .sdata         0xa0000048       0x10 build/default/production/_ext/321196743/Namespace_bcs_pid_dypid.o
                0xa0000048                pid
                0xa0000050                vel
 .sdata         0xa0000058        0x8 ../../../../../c-bowler/firmware/library/NR-Clib/development/c-bowler.X/dist/default/production/c-bowler.X.a(Namespace_bcs_core.o)
 .sdata         0xa0000060        0x8 ../../../../../c-bowler/firmware/library/NR-Clib/development/c-bowler.X/dist/default/production/c-bowler.X.a(Bowler_Server.o)
                0xa0000060                MyMAC
 .sdata         0xa0000068       0x54 ../../../../../c-bowler/firmware/library/NR-Clib/development/c-bowler.X/dist/default/production/c-bowler.X.a(Namespace_bcs_pid.o)
 .sdata         0xa00000bc        0x4 ../../../../../c-bowler/firmware/library/NR-Clib/development/c-bowler.X/dist/default/production/c-bowler.X.a(usb_fifo.o)
 .sdata         0xa00000c0       0x10 ../../../../../c-bowler/firmware/library/NR-Clib/development/c-bowler.X/dist/default/production/c-bowler.X.a(FlashStorage.o)
                0xa00000c0                defMac
                0xa00000c8                MEMORY_BASE
                0xa00000cc                VirtualBase
 .sdata         0xa00000d0       0x18 ../../../../../c-bowler/firmware/library/NR-Clib/development/c-bowler.X/dist/default/production/c-bowler.X.a(Namespace_bcs_rpc.o)
 .sdata         0xa00000e8        0x4 ../../../../../c-bowler/firmware/library/NR-Clib/development/c-bowler.X/dist/default/production/c-bowler.X.a(PidRpc.o)
                0xa00000e8                zone
 .sdata         0xa00000ec        0x8 ../../../../../c-bowler/firmware/library/NR-Clib/development/c-bowler.X/dist/default/production/c-bowler.X.a(PidAsync.o)
 .sdata         0xa00000f4        0x8 ../../../../../c-bowler/firmware/library/NR-Clib/development/c-bowler.X/dist/default/production/c-bowler.X.a(usb_descriptors.o)
                0xa00000f4                sd000
                0xa00000f8                USB_CD_Ptr
                0xa00000fc                _sdata_end = .

.lit8
 *(.lit8)

.lit4
 *(.lit4)
                0xa00000fc                . = ALIGN (0x4)
                0xa00000fc                _data_end = .
                0xa00000fc                _bss_begin = .

.sbss           0xa00000fc      0x270
                0xa00000fc                _sbss_begin = .
 *(.dynsbss)
 *(.sbss .sbss.* .gnu.linkonce.sb.*)
 .sbss          0xa00000fc        0x4 build/default/production/_ext/805493626/Debug_DyIO.o
                0xa00000fc                maxNumCharsInModes
 .sbss          0xa0000100       0x6c build/default/production/_ext/805493626/Namespace_bcs_io.o
 .sbss          0xa000016c        0x8 build/default/production/_ext/805493626/Abstract_bcs_io.o
 .sbss          0xa0000174        0x4 build/default/production/_ext/805493626/Bcs_IO_AdvancedAsync.o
                0xa0000174                isInit
 .sbss          0xa0000178        0x4 build/default/production/_ext/1051272628/Abstract_bcs_io_setmode.o
                0xa0000178                setChanelModeHWPtr
 .sbss          0xa000017c       0x14 build/default/production/_ext/1051272628/Namespace_bcs_io_setmode.o
 .sbss          0xa0000190        0x1 build/default/production/_ext/1978776677/InitializationCallbacks.o
                0xa0000190                SaveTheState
 .sbss          0xa0000191        0x2 build/default/production/_ext/1978776677/DownStreamPackets.o
                0xa0000191                batteryCode0
                0xa0000192                batteryCode1
 *fill*         0xa0000193        0x1 00
 .sbss          0xa0000194       0x10 build/default/production/_ext/990863823/Switches.o
 .sbss          0xa00001a4       0x10 build/default/production/_ext/990863823/CoProcCom.o
                0xa00001b0                coProcRunning
 .sbss          0xa00001b4       0x14 build/default/production/_ext/990863823/ADC.o
                0xa00001b4                init
                0xa00001b8                lastHighTime
                0xa00001bc                lastLowTime
 .sbss          0xa00001c8        0x1 build/default/production/_ext/990863823/EEPROMMannager.o
                0xa00001c8                loadEEDone
 *fill*         0xa00001c9        0x3 00
 .sbss          0xa00001cc        0xc build/default/production/_ext/990863823/PPMReader.o
 .sbss          0xa00001d8       0x14 build/default/production/_ext/1281821416/Namespace_bcs_safe.o
 .sbss          0xa00001ec       0x38 build/default/production/_ext/321196743/Namespace_neuronrobotics_dyio.o
                0xa00001ec                pwr
 .sbss          0xa0000224       0x14 build/default/production/_ext/321196743/Namespace_bcs_pid_dypid.o
 .sbss          0xa0000238        0x4 ../../../../../c-bowler/firmware/library/NR-Clib/development/c-bowler.X/dist/default/production/c-bowler.X.a(Namespace_bcs_core.o)
 .sbss          0xa000023c        0x4 ../../../../../c-bowler/firmware/library/NR-Clib/development/c-bowler.X/dist/default/production/c-bowler.X.a(Bowler_Server.o)
 .sbss          0xa0000240        0xc ../../../../../c-bowler/firmware/library/NR-Clib/development/c-bowler.X/dist/default/production/c-bowler.X.a(Debug.o)
                0xa0000240                level
 .sbss          0xa000024c        0x4 ../../../../../c-bowler/firmware/library/NR-Clib/development/c-bowler.X/dist/default/production/c-bowler.X.a(Namespace_bcs_pid.o)
 .sbss          0xa0000250        0xc ../../../../../c-bowler/firmware/library/NR-Clib/development/c-bowler.X/dist/default/production/c-bowler.X.a(AbstractPID.o)
                0xa0000250                number_of_pid_groups
 .sbss          0xa000025c       0x10 ../../../../../c-bowler/firmware/library/NR-Clib/development/c-bowler.X/dist/default/production/c-bowler.X.a(usb_fifo.o)
 .sbss          0xa000026c        0x4 ../../../../../c-bowler/firmware/library/NR-Clib/development/c-bowler.X/dist/default/production/c-bowler.X.a(ADC.o)
                0xa000026c                ADCMask
 .sbss          0xa0000270       0x18 ../../../../../c-bowler/firmware/library/NR-Clib/development/c-bowler.X/dist/default/production/c-bowler.X.a(HAL_P32.o)
 .sbss          0xa0000288        0x4 ../../../../../c-bowler/firmware/library/NR-Clib/development/c-bowler.X/dist/default/production/c-bowler.X.a(FlashStorage.o)
                0xa0000288                streamSize
 .sbss          0xa000028c        0x8 ../../../../../c-bowler/firmware/library/NR-Clib/development/c-bowler.X/dist/default/production/c-bowler.X.a(Bowler_UART_HAL.o)
 .sbss          0xa0000294        0x8 ../../../../../c-bowler/firmware/library/NR-Clib/development/c-bowler.X/dist/default/production/c-bowler.X.a(Tick.o)
 .sbss          0xa000029c        0x8 ../../../../../c-bowler/firmware/library/NR-Clib/development/c-bowler.X/dist/default/production/c-bowler.X.a(UART.o)
                0xa000029c                useUart2
                0xa00002a0                useUart1
 .sbss          0xa00002a4        0x4 ../../../../../c-bowler/firmware/library/NR-Clib/development/c-bowler.X/dist/default/production/c-bowler.X.a(Namespace_bcs_rpc.o)
 .sbss          0xa00002a8        0x2 ../../../../../c-bowler/firmware/library/NR-Clib/development/c-bowler.X/dist/default/production/c-bowler.X.a(usb_callback.o)
 *(.scommon)
 *fill*         0xa00002aa        0x2 00
 .scommon       0xa00002ac       0x14 build/default/production/_ext/805493626/Abstract_bcs_io.o
                0xa00002ac                getAllChanelValueHWPtr
                0xa00002b0                getChanelValueHWPtr
                0xa00002b4                setAllChanelValueHWPtr
                0xa00002b8                setChanelValueHWPtr
                0xa00002bc                configChannelHWPtr
 .scommon       0xa00002c0        0x8 build/default/production/_ext/990863823/ADC.o
                0xa00002c0                lockOutTimeout
 .scommon       0xa00002c8       0x1c ../../../../../c-bowler/firmware/library/NR-Clib/development/c-bowler.X/dist/default/production/c-bowler.X.a(AbstractPID.o)
                0xa00002c8                resetPosition
                0xa00002cc                MathCalculationVelocity
                0xa00002d0                setOutputLocal
                0xa00002d4                MathCalculationPosition
                0xa00002d8                onPidConfigureLocal
                0xa00002dc                getPosition
                0xa00002e0                checkPIDLimitEvents
 .scommon       0xa00002e4       0x41 ../../../../../c-bowler/firmware/library/NR-Clib/development/c-bowler.X/dist/default/production/c-bowler.X.a(usb_device.o)
                0xa00002e4                pDst
                0xa00002e8                USBDeviceState
                0xa00002ec                controlTransferState
                0xa00002f0                USBInMaxPacketSize
                0xa00002f8                inPipes
                0xa0000300                BothEP0OutUOWNsSet
                0xa0000304                pBDTEntryEP0OutNext
                0xa0000308                SetupPkt
                0xa0000310                shortPacketStatus
                0xa0000314                pBDTEntryEP0OutCurrent
                0xa0000318                USBActiveConfiguration
                0xa000031c                RemoteWakeup
                0xa0000320                USTATcopy
                0xa0000324                USBAlternateInterface
 *fill*         0xa0000325        0x3 00
 .scommon       0xa0000328        0x4 ../../../../../c-bowler/firmware/library/NR-Clib/development/c-bowler.X/dist/default/production/c-bowler.X.a(FlashStorage.o)
                0xa0000328                stream
 .scommon       0xa000032c       0x40 ../../../../../c-bowler/firmware/library/NR-Clib/development/c-bowler.X/dist/default/production/c-bowler.X.a(usb_function_cdc.o)
                0xa000032c                control_signal_bitmap
                0xa0000330                cdc_tx_len
                0xa0000334                pCDCSrc
                0xa0000338                CDCDataOutHandle
                0xa000033c                cdc_rx_len
                0xa0000340                line_coding
                0xa0000348                BaudRateGen
                0xa000034c                CDCDataInHandle
                0xa0000350                cdc_notice
                0xa0000358                cdc_trf_state
                0xa000035c                pCDCDst
                0xa0000360                cdc_mem_type
                0xa0000364                dummy_encapsulated_cmd_response
                0xa000036c                _sbss_end = .

.bss            0xa0000400      0x3f8
 *(.dynbss)
 *(COMMON)
 COMMON         0xa0000400      0x158 build/default/production/_ext/990863823/ADC.o
                0xa0000400                adc
 COMMON         0xa0000558       0x8c build/default/production/_ext/990863823/Counter.o
                0xa0000558                Counter
 COMMON         0xa00005e4       0x16 build/default/production/_ext/1020318379/Pin_State.o
                0xa00005e4                self
 *fill*         0xa00005fa        0x6 00
 COMMON         0xa0000600       0xf7 ../../../../../c-bowler/firmware/library/NR-Clib/development/c-bowler.X/dist/default/production/c-bowler.X.a(usb_device.o)
                0xa0000600                BDT
                0xa0000680                CtrlTrfData
                0xa00006c0                pBDTEntryIn
                0xa00006d0                pBDTEntryOut
                0xa00006e0                USBInData
                0xa00006ec                outPipes
 *fill*         0xa00006f7        0x1 00
 COMMON         0xa00006f8       0x80 ../../../../../c-bowler/firmware/library/NR-Clib/development/c-bowler.X/dist/default/production/c-bowler.X.a(FlashStorage.o)
                0xa00006f8                flash
 COMMON         0xa0000778       0x80 ../../../../../c-bowler/firmware/library/NR-Clib/development/c-bowler.X/dist/default/production/c-bowler.X.a(usb_function_cdc.o)
                0xa0000778                cdc_data_tx
                0xa00007b8                cdc_data_rx
                0xa00007f8                . = ALIGN (0x4)
                0xa00007f8                . = ALIGN (0x4)
                0xa00007f8                _end = .
                0xa00007f8                _bss_end = .
                0x00008000                _bmxdudba_address = 0x8000
                0x00008000                _bmxdupba_address = 0x8000

/DISCARD/
 *(.pdr)
 *(.reginfo)
 *(.rel.dyn)
 *(.note.GNU-stack)
 *(.note.GNU-stack)
 *(.gnu_debuglink)
 *(.gnu.lto_*)
 *(.discard)

.stab
 *(.stab)

.stabstr
 *(.stabstr)

.stab.excl
 *(.stab.excl)

.stab.exclstr
 *(.stab.exclstr)

.stab.index
 *(.stab.index)

.stab.indexstr
 *(.stab.indexstr)

.comment        0x00000000       0x84
 *(.comment)
 .comment       0x00000000       0x33 build/default/production/_ext/108654538/PinFunctions.o
                                 0x34 (size before relaxing)
 .comment       0x00000000       0x34 build/default/production/_ext/805493626/Debug_DyIO.o
 .comment       0x00000000       0x34 build/default/production/_ext/805493626/Namespace_bcs_io.o
 .comment       0x00000000       0x34 build/default/production/_ext/805493626/Abstract_bcs_io.o
 .comment       0x00000000       0x34 build/default/production/_ext/805493626/Bcs_IO_AdvancedAsync.o
 .comment       0x00000000       0x34 build/default/production/_ext/1051272628/Abstract_bcs_io_setmode.o
 .comment       0x00000000       0x34 build/default/production/_ext/1051272628/Namespace_bcs_io_setmode.o
 .comment       0x00000000       0x34 build/default/production/_ext/1825615050/CartesianController.o
 .comment       0x00000000       0x34 build/default/production/_ext/1825615050/PID.o
 .comment       0x00000000       0x34 build/default/production/_ext/1978776677/UpstreamPackets.o
 .comment       0x00000000       0x34 build/default/production/_ext/1978776677/InitializationCallbacks.o
 .comment       0x00000000       0x34 build/default/production/_ext/1978776677/DownStreamPackets.o
 .comment       0x00000000       0x34 build/default/production/_ext/1978776677/AsyncManager.o
 .comment       0x00000000       0x34 build/default/production/_ext/2110062566/UartDMARx.o
 .comment       0x00000000       0x34 build/default/production/_ext/990863823/AVRInterface.o
 .comment       0x00000000       0x34 build/default/production/_ext/990863823/Switches.o
 .comment       0x00000000       0x34 build/default/production/_ext/990863823/DyIODataTableManager.o
 .comment       0x00000000       0x34 build/default/production/_ext/990863823/CoProcCom.o
 .comment       0x00000000       0x34 build/default/production/_ext/990863823/ADC.o
 .comment       0x00000000       0x34 build/default/production/_ext/990863823/Counter.o
 .comment       0x00000000       0x34 build/default/production/_ext/990863823/EEPROMMannager.o
 .comment       0x00000000       0x34 build/default/production/_ext/990863823/SerialPassThrough.o
 .comment       0x00000000       0x34 build/default/production/_ext/990863823/SPI.o
 .comment       0x00000000       0x34 build/default/production/_ext/990863823/PPMReader.o
 .comment       0x00000000       0x34 build/default/production/_ext/1020318379/Pin_State.o
 .comment       0x00000000       0x34 build/default/production/_ext/1020318379/ChannelConfig.o
 .comment       0x00000000       0x34 build/default/production/_ext/1020318379/ChannelValues.o
 .comment       0x00000000       0x34 build/default/production/_ext/1020318379/ChannelMode.o
 .comment       0x00000000       0x34 build/default/production/_ext/1281821416/Abstract_bsc_safe.o
 .comment       0x00000000       0x34 build/default/production/_ext/1281821416/Namespace_bcs_safe.o
 .comment       0x00000000       0x34 build/default/production/_ext/321196743/Namespace_neuronrobotics_dyio.o
 .comment       0x00000000       0x34 build/default/production/_ext/321196743/Namespace_bcs_pid_dypid.o
 .comment       0x00000000       0x34 build/default/production/_ext/1360937237/Main.o
 .comment       0x00000000       0x34 build/default/production/_ext/1360937237/DyIOMain.o
 .comment       0x00000000       0x34 ../../../../../c-bowler/firmware/library/NR-Clib/development/c-bowler.X/dist/default/production/c-bowler.X.a(BowlerPacketParser.o)
 .comment       0x00000000       0x34 ../../../../../c-bowler/firmware/library/NR-Clib/development/c-bowler.X/dist/default/production/c-bowler.X.a(Namespace_bcs_core.o)
 .comment       0x00000000       0x34 ../../../../../c-bowler/firmware/library/NR-Clib/development/c-bowler.X/dist/default/production/c-bowler.X.a(Bowler_Server.o)
 .comment       0x00000000       0x34 ../../../../../c-bowler/firmware/library/NR-Clib/development/c-bowler.X/dist/default/production/c-bowler.X.a(Debug.o)
 .comment       0x00000000       0x34 ../../../../../c-bowler/firmware/library/NR-Clib/development/c-bowler.X/dist/default/production/c-bowler.X.a(FIFO.o)
 .comment       0x00000000       0x34 ../../../../../c-bowler/firmware/library/NR-Clib/development/c-bowler.X/dist/default/production/c-bowler.X.a(Bowler_Helper.o)
 .comment       0x00000000       0x34 ../../../../../c-bowler/firmware/library/NR-Clib/development/c-bowler.X/dist/default/production/c-bowler.X.a(Scheduler.o)
 .comment       0x00000000       0x34 ../../../../../c-bowler/firmware/library/NR-Clib/development/c-bowler.X/dist/default/production/c-bowler.X.a(Namespace_bcs_pid.o)
 .comment       0x00000000       0x34 ../../../../../c-bowler/firmware/library/NR-Clib/development/c-bowler.X/dist/default/production/c-bowler.X.a(AbstractPID.o)
 .comment       0x00000000       0x34 ../../../../../c-bowler/firmware/library/NR-Clib/development/c-bowler.X/dist/default/production/c-bowler.X.a(usb_fifo.o)
 .comment       0x00000000       0x34 ../../../../../c-bowler/firmware/library/NR-Clib/development/c-bowler.X/dist/default/production/c-bowler.X.a(usb_device.o)
 .comment       0x00000000       0x34 ../../../../../c-bowler/firmware/library/NR-Clib/development/c-bowler.X/dist/default/production/c-bowler.X.a(LED.o)
 .comment       0x00000000       0x34 ../../../../../c-bowler/firmware/library/NR-Clib/development/c-bowler.X/dist/default/production/c-bowler.X.a(ADC.o)
 .comment       0x00000000       0x34 ../../../../../c-bowler/firmware/library/NR-Clib/development/c-bowler.X/dist/default/production/c-bowler.X.a(HAL_P32.o)
 .comment       0x00000000       0x34 ../../../../../c-bowler/firmware/library/NR-Clib/development/c-bowler.X/dist/default/production/c-bowler.X.a(Delay.o)
 .comment       0x00000000       0x34 ../../../../../c-bowler/firmware/library/NR-Clib/development/c-bowler.X/dist/default/production/c-bowler.X.a(Bowler_USB_HAL.o)
 .comment       0x00000000       0x34 ../../../../../c-bowler/firmware/library/NR-Clib/development/c-bowler.X/dist/default/production/c-bowler.X.a(FlashStorage.o)
 .comment       0x00000000       0x34 ../../../../../c-bowler/firmware/library/NR-Clib/development/c-bowler.X/dist/default/production/c-bowler.X.a(Bowler_UART_HAL.o)
 .comment       0x00000000       0x34 ../../../../../c-bowler/firmware/library/NR-Clib/development/c-bowler.X/dist/default/production/c-bowler.X.a(Tick.o)
 .comment       0x00000000       0x34 ../../../../../c-bowler/firmware/library/NR-Clib/development/c-bowler.X/dist/default/production/c-bowler.X.a(UART.o)
 .comment       0x00000000       0x34 ../../../../../c-bowler/firmware/library/NR-Clib/development/c-bowler.X/dist/default/production/c-bowler.X.a(Namespace_bcs_rpc.o)
 .comment       0x00000000       0x34 ../../../../../c-bowler/firmware/library/NR-Clib/development/c-bowler.X/dist/default/production/c-bowler.X.a(PidRpc.o)
 .comment       0x00000000       0x34 ../../../../../c-bowler/firmware/library/NR-Clib/development/c-bowler.X/dist/default/production/c-bowler.X.a(PidHysteresis.o)
 .comment       0x00000000       0x34 ../../../../../c-bowler/firmware/library/NR-Clib/development/c-bowler.X/dist/default/production/c-bowler.X.a(PidAsync.o)
 .comment       0x00000000       0x34 ../../../../../c-bowler/firmware/library/NR-Clib/development/c-bowler.X/dist/default/production/c-bowler.X.a(usb_callback.o)
 .comment       0x00000000       0x34 ../../../../../c-bowler/firmware/library/NR-Clib/development/c-bowler.X/dist/default/production/c-bowler.X.a(usb_function_cdc.o)
 .comment       0x00000000       0x34 ../../../../../c-bowler/firmware/library/NR-Clib/development/c-bowler.X/dist/default/production/c-bowler.X.a(usb_descriptors.o)
 .comment       0x00000000       0x34 ../../../../../c-bowler/firmware/library/NR-Clib/development/c-bowler.X/dist/default/production/c-bowler.X.a(PidVelocity.o)
 .comment       0x00000000       0x34 /home/opt/microchip/xc32/v1.00/bin/../lib/gcc/pic32mx/4.5.1/libgcc.a(floatunsisf.o)
 .comment       0x00000000       0x34 /home/opt/microchip/xc32/v1.00/bin/../lib/gcc/pic32mx/4.5.1/../../../../pic32mx/lib/libc.a(default-bootstrap-exception-handler.o)
 .comment       0x00000000       0x34 /home/opt/microchip/xc32/v1.00/bin/../lib/gcc/pic32mx/4.5.1/../../../../pic32mx/lib/libc.a(default-on-reset.o)
 .comment       0x00000000       0x34 /home/opt/microchip/xc32/v1.00/bin/../lib/gcc/pic32mx/4.5.1/../../../../pic32mx/lib/libc.a(default-on-bootstrap.o)
 .comment       0x00000033       0x51 /home/opt/microchip/xc32/v1.00/bin/../lib/gcc/pic32mx/4.5.1/../../../../pic32mx/lib/libmchp_peripheral_32MX440F128H.a(soft_reset_lib.o)
                                 0x52 (size before relaxing)
 .comment       0x00000000       0x52 /home/opt/microchip/xc32/v1.00/bin/../lib/gcc/pic32mx/4.5.1/../../../../pic32mx/lib/libmchp_peripheral_32MX440F128H.a(int_enable_interrupts_lib.o)
 .comment       0x00000000       0x52 /home/opt/microchip/xc32/v1.00/bin/../lib/gcc/pic32mx/4.5.1/../../../../pic32mx/lib/libmchp_peripheral_32MX440F128H.a(int_disable_interrupts_lib.o)
 .comment       0x00000000       0x52 /home/opt/microchip/xc32/v1.00/bin/../lib/gcc/pic32mx/4.5.1/../../../../pic32mx/lib/libmchp_peripheral_32MX440F128H.a(int_enable_mv_int_lib.o)
 .comment       0x00000000       0x52 /home/opt/microchip/xc32/v1.00/bin/../lib/gcc/pic32mx/4.5.1/../../../../pic32mx/lib/libmchp_peripheral_32MX440F128H.a(int_tbl_lib.o)
 .comment       0x00000000       0x52 /home/opt/microchip/xc32/v1.00/bin/../lib/gcc/pic32mx/4.5.1/../../../../pic32mx/lib/libmchp_peripheral_32MX440F128H.a(spi_getc_spi2_lib_legacy.o)
 .comment       0x00000000       0x52 /home/opt/microchip/xc32/v1.00/bin/../lib/gcc/pic32mx/4.5.1/../../../../pic32mx/lib/libmchp_peripheral_32MX440F128H.a(spi_open_spi2_lib_legacy.o)
 .comment       0x00000000       0x52 /home/opt/microchip/xc32/v1.00/bin/../lib/gcc/pic32mx/4.5.1/../../../../pic32mx/lib/libmchp_peripheral_32MX440F128H.a(spi_brg_tbl_lib_legacy.o)
 .comment       0x00000000       0x52 /home/opt/microchip/xc32/v1.00/bin/../lib/gcc/pic32mx/4.5.1/../../../../pic32mx/lib/libmchp_peripheral_32MX440F128H.a(nvm_erase_page_lib.o)
 .comment       0x00000000       0x52 /home/opt/microchip/xc32/v1.00/bin/../lib/gcc/pic32mx/4.5.1/../../../../pic32mx/lib/libmchp_peripheral_32MX440F128H.a(nvm_operation_lib.o)
 .comment       0x00000000       0x52 /home/opt/microchip/xc32/v1.00/bin/../lib/gcc/pic32mx/4.5.1/../../../../pic32mx/lib/libmchp_peripheral_32MX440F128H.a(nvm_write_word_lib.o)
 .comment       0x00000000       0x52 /home/opt/microchip/xc32/v1.00/bin/../lib/gcc/pic32mx/4.5.1/../../../../pic32mx/lib/libmchp_peripheral_32MX440F128H.a(port_set_pins_digital_out_lib.o)
 .comment       0x00000000       0x52 /home/opt/microchip/xc32/v1.00/bin/../lib/gcc/pic32mx/4.5.1/../../../../pic32mx/lib/libmchp_peripheral_32MX440F128H.a(port_clear_bits_lib.o)
 .comment       0x00000000       0x52 /home/opt/microchip/xc32/v1.00/bin/../lib/gcc/pic32mx/4.5.1/../../../../pic32mx/lib/libmchp_peripheral_32MX440F128H.a(port_set_bits_lib.o)
 .comment       0x00000000       0x52 /home/opt/microchip/xc32/v1.00/bin/../lib/gcc/pic32mx/4.5.1/../../../../pic32mx/lib/libmchp_peripheral_32MX440F128H.a(_ports_tbl_libp.o)
 .comment       0x00000000       0x52 /home/opt/microchip/xc32/v1.00/bin/../lib/gcc/pic32mx/4.5.1/../../../../pic32mx/lib/libmchp_peripheral_32MX440F128H.a(uart_lib.o)
 .comment       0x00000000       0x52 /home/opt/microchip/xc32/v1.00/bin/../lib/gcc/pic32mx/4.5.1/../../../../pic32mx/lib/libmchp_peripheral_32MX440F128H.a(int_restore_interrupts_lib.o)

.debug
 *(.debug)

.line
 *(.line)

.debug_srcinfo
 *(.debug_srcinfo)

.debug_sfnames
 *(.debug_sfnames)

.debug_aranges  0x00000000      0xa58
 *(.debug_aranges)
 .debug_aranges
                0x00000000       0x20 build/default/production/_ext/108654538/PinFunctions.o
 .debug_aranges
                0x00000020       0x20 build/default/production/_ext/805493626/Debug_DyIO.o
 .debug_aranges
                0x00000040       0x20 build/default/production/_ext/805493626/Namespace_bcs_io.o
 .debug_aranges
                0x00000060       0x20 build/default/production/_ext/805493626/Abstract_bcs_io.o
 .debug_aranges
                0x00000080       0x20 build/default/production/_ext/805493626/Bcs_IO_AdvancedAsync.o
 .debug_aranges
                0x000000a0       0x20 build/default/production/_ext/1051272628/Abstract_bcs_io_setmode.o
 .debug_aranges
                0x000000c0       0x20 build/default/production/_ext/1051272628/Namespace_bcs_io_setmode.o
 .debug_aranges
                0x000000e0       0x20 build/default/production/_ext/1825615050/CartesianController.o
 .debug_aranges
                0x00000100       0x20 build/default/production/_ext/1825615050/PID.o
 .debug_aranges
                0x00000120       0x20 build/default/production/_ext/1978776677/UpstreamPackets.o
 .debug_aranges
                0x00000140       0x20 build/default/production/_ext/1978776677/InitializationCallbacks.o
 .debug_aranges
                0x00000160       0x20 build/default/production/_ext/1978776677/DownStreamPackets.o
 .debug_aranges
                0x00000180       0x20 build/default/production/_ext/1978776677/AsyncManager.o
 .debug_aranges
                0x000001a0       0x20 build/default/production/_ext/990863823/AVRInterface.o
 .debug_aranges
                0x000001c0       0x20 build/default/production/_ext/990863823/Switches.o
 .debug_aranges
                0x000001e0       0x20 build/default/production/_ext/990863823/DyIODataTableManager.o
 .debug_aranges
                0x00000200       0x20 build/default/production/_ext/990863823/CoProcCom.o
 .debug_aranges
                0x00000220       0x20 build/default/production/_ext/990863823/ADC.o
 .debug_aranges
                0x00000240       0x20 build/default/production/_ext/990863823/Counter.o
 .debug_aranges
                0x00000260       0x20 build/default/production/_ext/990863823/EEPROMMannager.o
 .debug_aranges
                0x00000280       0x20 build/default/production/_ext/990863823/SerialPassThrough.o
 .debug_aranges
                0x000002a0       0x20 build/default/production/_ext/990863823/SPI.o
 .debug_aranges
                0x000002c0       0x20 build/default/production/_ext/990863823/PPMReader.o
 .debug_aranges
                0x000002e0       0x20 build/default/production/_ext/1020318379/Pin_State.o
 .debug_aranges
                0x00000300       0x20 build/default/production/_ext/1020318379/ChannelConfig.o
 .debug_aranges
                0x00000320       0x20 build/default/production/_ext/1020318379/ChannelValues.o
 .debug_aranges
                0x00000340       0x20 build/default/production/_ext/1020318379/ChannelMode.o
 .debug_aranges
                0x00000360       0x20 build/default/production/_ext/1281821416/Namespace_bcs_safe.o
 .debug_aranges
                0x00000380       0x20 build/default/production/_ext/321196743/Namespace_neuronrobotics_dyio.o
 .debug_aranges
                0x000003a0       0x20 build/default/production/_ext/321196743/Namespace_bcs_pid_dypid.o
 .debug_aranges
                0x000003c0       0x20 build/default/production/_ext/1360937237/Main.o
 .debug_aranges
                0x000003e0       0x20 build/default/production/_ext/1360937237/DyIOMain.o
 .debug_aranges
                0x00000400       0x20 ../../../../../c-bowler/firmware/library/NR-Clib/development/c-bowler.X/dist/default/production/c-bowler.X.a(BowlerPacketParser.o)
 .debug_aranges
                0x00000420       0x20 ../../../../../c-bowler/firmware/library/NR-Clib/development/c-bowler.X/dist/default/production/c-bowler.X.a(Namespace_bcs_core.o)
 .debug_aranges
                0x00000440       0x20 ../../../../../c-bowler/firmware/library/NR-Clib/development/c-bowler.X/dist/default/production/c-bowler.X.a(Bowler_Server.o)
 .debug_aranges
                0x00000460       0x20 ../../../../../c-bowler/firmware/library/NR-Clib/development/c-bowler.X/dist/default/production/c-bowler.X.a(Debug.o)
 .debug_aranges
                0x00000480       0x20 ../../../../../c-bowler/firmware/library/NR-Clib/development/c-bowler.X/dist/default/production/c-bowler.X.a(FIFO.o)
 .debug_aranges
                0x000004a0       0x20 ../../../../../c-bowler/firmware/library/NR-Clib/development/c-bowler.X/dist/default/production/c-bowler.X.a(Bowler_Helper.o)
 .debug_aranges
                0x000004c0       0x20 ../../../../../c-bowler/firmware/library/NR-Clib/development/c-bowler.X/dist/default/production/c-bowler.X.a(Scheduler.o)
 .debug_aranges
                0x000004e0       0x20 ../../../../../c-bowler/firmware/library/NR-Clib/development/c-bowler.X/dist/default/production/c-bowler.X.a(Namespace_bcs_pid.o)
 .debug_aranges
                0x00000500       0x20 ../../../../../c-bowler/firmware/library/NR-Clib/development/c-bowler.X/dist/default/production/c-bowler.X.a(AbstractPID.o)
 .debug_aranges
                0x00000520       0x20 ../../../../../c-bowler/firmware/library/NR-Clib/development/c-bowler.X/dist/default/production/c-bowler.X.a(usb_fifo.o)
 .debug_aranges
                0x00000540       0x20 ../../../../../c-bowler/firmware/library/NR-Clib/development/c-bowler.X/dist/default/production/c-bowler.X.a(usb_device.o)
 .debug_aranges
                0x00000560       0x20 ../../../../../c-bowler/firmware/library/NR-Clib/development/c-bowler.X/dist/default/production/c-bowler.X.a(LED.o)
 .debug_aranges
                0x00000580       0x20 ../../../../../c-bowler/firmware/library/NR-Clib/development/c-bowler.X/dist/default/production/c-bowler.X.a(ADC.o)
 .debug_aranges
                0x000005a0       0x20 ../../../../../c-bowler/firmware/library/NR-Clib/development/c-bowler.X/dist/default/production/c-bowler.X.a(HAL_P32.o)
 .debug_aranges
                0x000005c0       0x20 ../../../../../c-bowler/firmware/library/NR-Clib/development/c-bowler.X/dist/default/production/c-bowler.X.a(Delay.o)
 .debug_aranges
                0x000005e0       0x20 ../../../../../c-bowler/firmware/library/NR-Clib/development/c-bowler.X/dist/default/production/c-bowler.X.a(Bowler_USB_HAL.o)
 .debug_aranges
                0x00000600       0x20 ../../../../../c-bowler/firmware/library/NR-Clib/development/c-bowler.X/dist/default/production/c-bowler.X.a(FlashStorage.o)
 .debug_aranges
                0x00000620       0x20 ../../../../../c-bowler/firmware/library/NR-Clib/development/c-bowler.X/dist/default/production/c-bowler.X.a(Bowler_UART_HAL.o)
 .debug_aranges
                0x00000640       0x20 ../../../../../c-bowler/firmware/library/NR-Clib/development/c-bowler.X/dist/default/production/c-bowler.X.a(Tick.o)
 .debug_aranges
                0x00000660       0x20 ../../../../../c-bowler/firmware/library/NR-Clib/development/c-bowler.X/dist/default/production/c-bowler.X.a(UART.o)
 .debug_aranges
                0x00000680       0x20 ../../../../../c-bowler/firmware/library/NR-Clib/development/c-bowler.X/dist/default/production/c-bowler.X.a(Namespace_bcs_rpc.o)
 .debug_aranges
                0x000006a0       0x20 ../../../../../c-bowler/firmware/library/NR-Clib/development/c-bowler.X/dist/default/production/c-bowler.X.a(PidRpc.o)
 .debug_aranges
                0x000006c0       0x20 ../../../../../c-bowler/firmware/library/NR-Clib/development/c-bowler.X/dist/default/production/c-bowler.X.a(PidHysteresis.o)
 .debug_aranges
                0x000006e0       0x20 ../../../../../c-bowler/firmware/library/NR-Clib/development/c-bowler.X/dist/default/production/c-bowler.X.a(PidAsync.o)
 .debug_aranges
                0x00000700       0x20 ../../../../../c-bowler/firmware/library/NR-Clib/development/c-bowler.X/dist/default/production/c-bowler.X.a(usb_callback.o)
 .debug_aranges
                0x00000720       0x20 ../../../../../c-bowler/firmware/library/NR-Clib/development/c-bowler.X/dist/default/production/c-bowler.X.a(usb_function_cdc.o)
 .debug_aranges
                0x00000740       0x20 ../../../../../c-bowler/firmware/library/NR-Clib/development/c-bowler.X/dist/default/production/c-bowler.X.a(usb_descriptors.o)
 .debug_aranges
                0x00000760       0x20 ../../../../../c-bowler/firmware/library/NR-Clib/development/c-bowler.X/dist/default/production/c-bowler.X.a(PidVelocity.o)
 .debug_aranges
                0x00000780       0x20 /home/opt/microchip/xc32/v1.00/bin/../lib/gcc/pic32mx/4.5.1/libgcc.a(floatunsisf.o)
 .debug_aranges
                0x000007a0       0x20 /home/opt/microchip/xc32/v1.00/bin/../lib/gcc/pic32mx/4.5.1/../../../../pic32mx/lib/libc.a(default-bootstrap-exception-handler.o)
 .debug_aranges
                0x000007c0       0x20 /home/opt/microchip/xc32/v1.00/bin/../lib/gcc/pic32mx/4.5.1/../../../../pic32mx/lib/libc.a(default-on-reset.o)
 .debug_aranges
                0x000007e0       0x20 /home/opt/microchip/xc32/v1.00/bin/../lib/gcc/pic32mx/4.5.1/../../../../pic32mx/lib/libc.a(default-on-bootstrap.o)
 .debug_aranges
                0x00000800       0x20 /home/opt/microchip/xc32/v1.00/bin/../lib/gcc/pic32mx/4.5.1/../../../../pic32mx/lib/libmchp_peripheral_32MX440F128H.a(soft_reset_lib.o)
 .debug_aranges
                0x00000820       0x20 /home/opt/microchip/xc32/v1.00/bin/../lib/gcc/pic32mx/4.5.1/../../../../pic32mx/lib/libmchp_peripheral_32MX440F128H.a(int_enable_interrupts_lib.o)
 .debug_aranges
                0x00000840       0x20 /home/opt/microchip/xc32/v1.00/bin/../lib/gcc/pic32mx/4.5.1/../../../../pic32mx/lib/libmchp_peripheral_32MX440F128H.a(int_disable_interrupts_lib.o)
 .debug_aranges
                0x00000860       0x20 /home/opt/microchip/xc32/v1.00/bin/../lib/gcc/pic32mx/4.5.1/../../../../pic32mx/lib/libmchp_peripheral_32MX440F128H.a(int_enable_mv_int_lib.o)
 .debug_aranges
                0x00000880       0x60 /home/opt/microchip/xc32/v1.00/bin/../lib/gcc/pic32mx/4.5.1/../../../../pic32mx/lib/libmchp_peripheral_32MX440F128H.a(int_tbl_lib.o)
 .debug_aranges
                0x000008e0       0x20 /home/opt/microchip/xc32/v1.00/bin/../lib/gcc/pic32mx/4.5.1/../../../../pic32mx/lib/libmchp_peripheral_32MX440F128H.a(spi_getc_spi2_lib_legacy.o)
 .debug_aranges
                0x00000900       0x20 /home/opt/microchip/xc32/v1.00/bin/../lib/gcc/pic32mx/4.5.1/../../../../pic32mx/lib/libmchp_peripheral_32MX440F128H.a(spi_open_spi2_lib_legacy.o)
 .debug_aranges
                0x00000920       0x20 /home/opt/microchip/xc32/v1.00/bin/../lib/gcc/pic32mx/4.5.1/../../../../pic32mx/lib/libmchp_peripheral_32MX440F128H.a(nvm_erase_page_lib.o)
 .debug_aranges
                0x00000940       0x20 /home/opt/microchip/xc32/v1.00/bin/../lib/gcc/pic32mx/4.5.1/../../../../pic32mx/lib/libmchp_peripheral_32MX440F128H.a(nvm_operation_lib.o)
 .debug_aranges
                0x00000960       0x20 /home/opt/microchip/xc32/v1.00/bin/../lib/gcc/pic32mx/4.5.1/../../../../pic32mx/lib/libmchp_peripheral_32MX440F128H.a(nvm_write_word_lib.o)
 .debug_aranges
                0x00000980       0x20 /home/opt/microchip/xc32/v1.00/bin/../lib/gcc/pic32mx/4.5.1/../../../../pic32mx/lib/libmchp_peripheral_32MX440F128H.a(port_set_pins_digital_out_lib.o)
 .debug_aranges
                0x000009a0       0x20 /home/opt/microchip/xc32/v1.00/bin/../lib/gcc/pic32mx/4.5.1/../../../../pic32mx/lib/libmchp_peripheral_32MX440F128H.a(port_clear_bits_lib.o)
 .debug_aranges
                0x000009c0       0x20 /home/opt/microchip/xc32/v1.00/bin/../lib/gcc/pic32mx/4.5.1/../../../../pic32mx/lib/libmchp_peripheral_32MX440F128H.a(port_set_bits_lib.o)
 .debug_aranges
                0x000009e0       0x58 /home/opt/microchip/xc32/v1.00/bin/../lib/gcc/pic32mx/4.5.1/../../../../pic32mx/lib/libmchp_peripheral_32MX440F128H.a(uart_lib.o)
 .debug_aranges
                0x00000a38       0x20 /home/opt/microchip/xc32/v1.00/bin/../lib/gcc/pic32mx/4.5.1/../../../../pic32mx/lib/libmchp_peripheral_32MX440F128H.a(int_restore_interrupts_lib.o)

.debug_pubnames
                0x00000000     0x346b
 *(.debug_pubnames)
 .debug_pubnames
                0x00000000       0x26 build/default/production/_ext/108654538/PinFunctions.o
 .debug_pubnames
                0x00000026       0x44 build/default/production/_ext/805493626/Debug_DyIO.o
 .debug_pubnames
                0x0000006a       0x52 build/default/production/_ext/805493626/Namespace_bcs_io.o
 .debug_pubnames
                0x000000bc      0x277 build/default/production/_ext/805493626/Abstract_bcs_io.o
 .debug_pubnames
                0x00000333      0x191 build/default/production/_ext/805493626/Bcs_IO_AdvancedAsync.o
 .debug_pubnames
                0x000004c4       0xa6 build/default/production/_ext/1051272628/Abstract_bcs_io_setmode.o
 .debug_pubnames
                0x0000056a       0x65 build/default/production/_ext/1051272628/Namespace_bcs_io_setmode.o
 .debug_pubnames
                0x000005cf       0xb3 build/default/production/_ext/1825615050/CartesianController.o
 .debug_pubnames
                0x00000682       0xff build/default/production/_ext/1825615050/PID.o
 .debug_pubnames
                0x00000781       0x9c build/default/production/_ext/1978776677/UpstreamPackets.o
 .debug_pubnames
                0x0000081d       0x54 build/default/production/_ext/1978776677/InitializationCallbacks.o
 .debug_pubnames
                0x00000871      0x1c3 build/default/production/_ext/1978776677/DownStreamPackets.o
 .debug_pubnames
                0x00000a34       0x4c build/default/production/_ext/1978776677/AsyncManager.o
 .debug_pubnames
                0x00000a80       0xd0 build/default/production/_ext/990863823/AVRInterface.o
 .debug_pubnames
                0x00000b50       0x34 build/default/production/_ext/990863823/Switches.o
 .debug_pubnames
                0x00000b84       0x9f build/default/production/_ext/990863823/DyIODataTableManager.o
 .debug_pubnames
                0x00000c23      0x12e build/default/production/_ext/990863823/CoProcCom.o
 .debug_pubnames
                0x00000d51      0x123 build/default/production/_ext/990863823/ADC.o
 .debug_pubnames
                0x00000e74      0x1f9 build/default/production/_ext/990863823/Counter.o
 .debug_pubnames
                0x0000106d       0xa5 build/default/production/_ext/990863823/EEPROMMannager.o
 .debug_pubnames
                0x00001112       0x2e build/default/production/_ext/990863823/SerialPassThrough.o
 .debug_pubnames
                0x00001140       0x74 build/default/production/_ext/990863823/SPI.o
 .debug_pubnames
                0x000011b4       0x9e build/default/production/_ext/990863823/PPMReader.o
 .debug_pubnames
                0x00001252       0x28 build/default/production/_ext/1020318379/Pin_State.o
 .debug_pubnames
                0x0000127a       0x24 build/default/production/_ext/1020318379/ChannelConfig.o
 .debug_pubnames
                0x0000129e       0x92 build/default/production/_ext/1020318379/ChannelValues.o
 .debug_pubnames
                0x00001330       0x6f build/default/production/_ext/1020318379/ChannelMode.o
 .debug_pubnames
                0x0000139f       0x86 build/default/production/_ext/1281821416/Namespace_bcs_safe.o
 .debug_pubnames
                0x00001425      0x142 build/default/production/_ext/321196743/Namespace_neuronrobotics_dyio.o
 .debug_pubnames
                0x00001567       0xa7 build/default/production/_ext/321196743/Namespace_bcs_pid_dypid.o
 .debug_pubnames
                0x0000160e       0x1b build/default/production/_ext/1360937237/Main.o
 .debug_pubnames
                0x00001629       0x3f build/default/production/_ext/1360937237/DyIOMain.o
 .debug_pubnames
                0x00001668       0x9f ../../../../../c-bowler/firmware/library/NR-Clib/development/c-bowler.X/dist/default/production/c-bowler.X.a(BowlerPacketParser.o)
 .debug_pubnames
                0x00001707       0xf3 ../../../../../c-bowler/firmware/library/NR-Clib/development/c-bowler.X/dist/default/production/c-bowler.X.a(Namespace_bcs_core.o)
 .debug_pubnames
                0x000017fa       0x9f ../../../../../c-bowler/firmware/library/NR-Clib/development/c-bowler.X/dist/default/production/c-bowler.X.a(Bowler_Server.o)
 .debug_pubnames
                0x00001899      0x1be ../../../../../c-bowler/firmware/library/NR-Clib/development/c-bowler.X/dist/default/production/c-bowler.X.a(Debug.o)
 .debug_pubnames
                0x00001a57      0x154 ../../../../../c-bowler/firmware/library/NR-Clib/development/c-bowler.X/dist/default/production/c-bowler.X.a(FIFO.o)
 .debug_pubnames
                0x00001bab      0x136 ../../../../../c-bowler/firmware/library/NR-Clib/development/c-bowler.X/dist/default/production/c-bowler.X.a(Bowler_Helper.o)
 .debug_pubnames
                0x00001ce1       0x1f ../../../../../c-bowler/firmware/library/NR-Clib/development/c-bowler.X/dist/default/production/c-bowler.X.a(Scheduler.o)
 .debug_pubnames
                0x00001d00       0x48 ../../../../../c-bowler/firmware/library/NR-Clib/development/c-bowler.X/dist/default/production/c-bowler.X.a(Namespace_bcs_pid.o)
 .debug_pubnames
                0x00001d48      0x2df ../../../../../c-bowler/firmware/library/NR-Clib/development/c-bowler.X/dist/default/production/c-bowler.X.a(AbstractPID.o)
 .debug_pubnames
                0x00002027       0xfc ../../../../../c-bowler/firmware/library/NR-Clib/development/c-bowler.X/dist/default/production/c-bowler.X.a(usb_fifo.o)
 .debug_pubnames
                0x00002123      0x3d5 ../../../../../c-bowler/firmware/library/NR-Clib/development/c-bowler.X/dist/default/production/c-bowler.X.a(usb_device.o)
 .debug_pubnames
                0x000024f8       0x50 ../../../../../c-bowler/firmware/library/NR-Clib/development/c-bowler.X/dist/default/production/c-bowler.X.a(LED.o)
 .debug_pubnames
                0x00002548       0x52 ../../../../../c-bowler/firmware/library/NR-Clib/development/c-bowler.X/dist/default/production/c-bowler.X.a(ADC.o)
 .debug_pubnames
                0x0000259a      0x10c ../../../../../c-bowler/firmware/library/NR-Clib/development/c-bowler.X/dist/default/production/c-bowler.X.a(HAL_P32.o)
 .debug_pubnames
                0x000026a6       0x5d ../../../../../c-bowler/firmware/library/NR-Clib/development/c-bowler.X/dist/default/production/c-bowler.X.a(Delay.o)
 .debug_pubnames
                0x00002703       0x4c ../../../../../c-bowler/firmware/library/NR-Clib/development/c-bowler.X/dist/default/production/c-bowler.X.a(Bowler_USB_HAL.o)
 .debug_pubnames
                0x0000274f      0x13a ../../../../../c-bowler/firmware/library/NR-Clib/development/c-bowler.X/dist/default/production/c-bowler.X.a(FlashStorage.o)
 .debug_pubnames
                0x00002889       0xe8 ../../../../../c-bowler/firmware/library/NR-Clib/development/c-bowler.X/dist/default/production/c-bowler.X.a(Bowler_UART_HAL.o)
 .debug_pubnames
                0x00002971       0x8d ../../../../../c-bowler/firmware/library/NR-Clib/development/c-bowler.X/dist/default/production/c-bowler.X.a(Tick.o)
 .debug_pubnames
                0x000029fe       0x4e ../../../../../c-bowler/firmware/library/NR-Clib/development/c-bowler.X/dist/default/production/c-bowler.X.a(UART.o)
 .debug_pubnames
                0x00002a4c       0x3f ../../../../../c-bowler/firmware/library/NR-Clib/development/c-bowler.X/dist/default/production/c-bowler.X.a(Namespace_bcs_rpc.o)
 .debug_pubnames
                0x00002a8b       0xb4 ../../../../../c-bowler/firmware/library/NR-Clib/development/c-bowler.X/dist/default/production/c-bowler.X.a(PidRpc.o)
 .debug_pubnames
                0x00002b3f      0x11f ../../../../../c-bowler/firmware/library/NR-Clib/development/c-bowler.X/dist/default/production/c-bowler.X.a(PidHysteresis.o)
 .debug_pubnames
                0x00002c5e       0x5f ../../../../../c-bowler/firmware/library/NR-Clib/development/c-bowler.X/dist/default/production/c-bowler.X.a(PidAsync.o)
 .debug_pubnames
                0x00002cbd       0xfc ../../../../../c-bowler/firmware/library/NR-Clib/development/c-bowler.X/dist/default/production/c-bowler.X.a(usb_callback.o)
 .debug_pubnames
                0x00002db9      0x1b1 ../../../../../c-bowler/firmware/library/NR-Clib/development/c-bowler.X/dist/default/production/c-bowler.X.a(usb_function_cdc.o)
 .debug_pubnames
                0x00002f6a       0xc2 ../../../../../c-bowler/firmware/library/NR-Clib/development/c-bowler.X/dist/default/production/c-bowler.X.a(usb_descriptors.o)
 .debug_pubnames
                0x0000302c       0x39 ../../../../../c-bowler/firmware/library/NR-Clib/development/c-bowler.X/dist/default/production/c-bowler.X.a(PidVelocity.o)
 .debug_pubnames
                0x00003065       0x24 /home/opt/microchip/xc32/v1.00/bin/../lib/gcc/pic32mx/4.5.1/libgcc.a(floatunsisf.o)
 .debug_pubnames
                0x00003089       0x33 /home/opt/microchip/xc32/v1.00/bin/../lib/gcc/pic32mx/4.5.1/../../../../pic32mx/lib/libc.a(default-bootstrap-exception-handler.o)
 .debug_pubnames
                0x000030bc       0x20 /home/opt/microchip/xc32/v1.00/bin/../lib/gcc/pic32mx/4.5.1/../../../../pic32mx/lib/libc.a(default-on-reset.o)
 .debug_pubnames
                0x000030dc       0x24 /home/opt/microchip/xc32/v1.00/bin/../lib/gcc/pic32mx/4.5.1/../../../../pic32mx/lib/libc.a(default-on-bootstrap.o)
 .debug_pubnames
                0x00003100       0x20 /home/opt/microchip/xc32/v1.00/bin/../lib/gcc/pic32mx/4.5.1/../../../../pic32mx/lib/libmchp_peripheral_32MX440F128H.a(soft_reset_lib.o)
 .debug_pubnames
                0x00003120       0x2a /home/opt/microchip/xc32/v1.00/bin/../lib/gcc/pic32mx/4.5.1/../../../../pic32mx/lib/libmchp_peripheral_32MX440F128H.a(int_enable_interrupts_lib.o)
 .debug_pubnames
                0x0000314a       0x2b /home/opt/microchip/xc32/v1.00/bin/../lib/gcc/pic32mx/4.5.1/../../../../pic32mx/lib/libmchp_peripheral_32MX440F128H.a(int_disable_interrupts_lib.o)
 .debug_pubnames
                0x00003175       0x36 /home/opt/microchip/xc32/v1.00/bin/../lib/gcc/pic32mx/4.5.1/../../../../pic32mx/lib/libmchp_peripheral_32MX440F128H.a(int_enable_mv_int_lib.o)
 .debug_pubnames
                0x000031ab       0xca /home/opt/microchip/xc32/v1.00/bin/../lib/gcc/pic32mx/4.5.1/../../../../pic32mx/lib/libmchp_peripheral_32MX440F128H.a(int_tbl_lib.o)
 .debug_pubnames
                0x00003275       0x1f /home/opt/microchip/xc32/v1.00/bin/../lib/gcc/pic32mx/4.5.1/../../../../pic32mx/lib/libmchp_peripheral_32MX440F128H.a(spi_getc_spi2_lib_legacy.o)
 .debug_pubnames
                0x00003294       0x1f /home/opt/microchip/xc32/v1.00/bin/../lib/gcc/pic32mx/4.5.1/../../../../pic32mx/lib/libmchp_peripheral_32MX440F128H.a(spi_open_spi2_lib_legacy.o)
 .debug_pubnames
                0x000032b3       0x23 /home/opt/microchip/xc32/v1.00/bin/../lib/gcc/pic32mx/4.5.1/../../../../pic32mx/lib/libmchp_peripheral_32MX440F128H.a(nvm_erase_page_lib.o)
 .debug_pubnames
                0x000032d6       0x24 /home/opt/microchip/xc32/v1.00/bin/../lib/gcc/pic32mx/4.5.1/../../../../pic32mx/lib/libmchp_peripheral_32MX440F128H.a(nvm_operation_lib.o)
 .debug_pubnames
                0x000032fa       0x23 /home/opt/microchip/xc32/v1.00/bin/../lib/gcc/pic32mx/4.5.1/../../../../pic32mx/lib/libmchp_peripheral_32MX440F128H.a(nvm_write_word_lib.o)
 .debug_pubnames
                0x0000331d       0x2c /home/opt/microchip/xc32/v1.00/bin/../lib/gcc/pic32mx/4.5.1/../../../../pic32mx/lib/libmchp_peripheral_32MX440F128H.a(port_set_pins_digital_out_lib.o)
 .debug_pubnames
                0x00003349       0x24 /home/opt/microchip/xc32/v1.00/bin/../lib/gcc/pic32mx/4.5.1/../../../../pic32mx/lib/libmchp_peripheral_32MX440F128H.a(port_clear_bits_lib.o)
 .debug_pubnames
                0x0000336d       0x22 /home/opt/microchip/xc32/v1.00/bin/../lib/gcc/pic32mx/4.5.1/../../../../pic32mx/lib/libmchp_peripheral_32MX440F128H.a(port_set_bits_lib.o)
 .debug_pubnames
                0x0000338f       0xb1 /home/opt/microchip/xc32/v1.00/bin/../lib/gcc/pic32mx/4.5.1/../../../../pic32mx/lib/libmchp_peripheral_32MX440F128H.a(uart_lib.o)
 .debug_pubnames
                0x00003440       0x2b /home/opt/microchip/xc32/v1.00/bin/../lib/gcc/pic32mx/4.5.1/../../../../pic32mx/lib/libmchp_peripheral_32MX440F128H.a(int_restore_interrupts_lib.o)

.debug_info     0x00000000    0x5f45f
 *(.debug_info .gnu.linkonce.wi.*)
 .debug_info    0x00000000     0x160a build/default/production/_ext/108654538/PinFunctions.o
 .debug_info    0x0000160a     0x12fb build/default/production/_ext/805493626/Debug_DyIO.o
 .debug_info    0x00002905     0x181f build/default/production/_ext/805493626/Namespace_bcs_io.o
 .debug_info    0x00004124     0x20cc build/default/production/_ext/805493626/Abstract_bcs_io.o
 .debug_info    0x000061f0     0x1a12 build/default/production/_ext/805493626/Bcs_IO_AdvancedAsync.o
 .debug_info    0x00007c02     0x15ec build/default/production/_ext/1051272628/Abstract_bcs_io_setmode.o
 .debug_info    0x000091ee     0x16ce build/default/production/_ext/1051272628/Namespace_bcs_io_setmode.o
 .debug_info    0x0000a8bc     0x1240 build/default/production/_ext/1825615050/CartesianController.o
 .debug_info    0x0000bafc     0x1fb2 build/default/production/_ext/1825615050/PID.o
 .debug_info    0x0000daae     0x171c build/default/production/_ext/1978776677/UpstreamPackets.o
 .debug_info    0x0000f1ca     0x1e4e build/default/production/_ext/1978776677/InitializationCallbacks.o
 .debug_info    0x00011018     0x1c44 build/default/production/_ext/1978776677/DownStreamPackets.o
 .debug_info    0x00012c5c     0x13a8 build/default/production/_ext/1978776677/AsyncManager.o
 .debug_info    0x00014004      0xf61 build/default/production/_ext/2110062566/UartDMARx.o
 .debug_info    0x00014f65     0x12c9 build/default/production/_ext/990863823/AVRInterface.o
 .debug_info    0x0001622e     0x136e build/default/production/_ext/990863823/Switches.o
 .debug_info    0x0001759c     0x16f0 build/default/production/_ext/990863823/DyIODataTableManager.o
 .debug_info    0x00018c8c     0x2bad build/default/production/_ext/990863823/CoProcCom.o
 .debug_info    0x0001b839     0x1680 build/default/production/_ext/990863823/ADC.o
 .debug_info    0x0001ceb9     0x2148 build/default/production/_ext/990863823/Counter.o
 .debug_info    0x0001f001     0x1b38 build/default/production/_ext/990863823/EEPROMMannager.o
 .debug_info    0x00020b39     0x1130 build/default/production/_ext/990863823/SerialPassThrough.o
 .debug_info    0x00021c69     0x161f build/default/production/_ext/990863823/SPI.o
 .debug_info    0x00023288     0x1ac8 build/default/production/_ext/990863823/PPMReader.o
 .debug_info    0x00024d50     0x133b build/default/production/_ext/1020318379/Pin_State.o
 .debug_info    0x0002608b     0x114d build/default/production/_ext/1020318379/ChannelConfig.o
 .debug_info    0x000271d8     0x12ea build/default/production/_ext/1020318379/ChannelValues.o
 .debug_info    0x000284c2     0x135f build/default/production/_ext/1020318379/ChannelMode.o
 .debug_info    0x00029821      0xf66 build/default/production/_ext/1281821416/Abstract_bsc_safe.o
 .debug_info    0x0002a787     0x17cf build/default/production/_ext/1281821416/Namespace_bcs_safe.o
 .debug_info    0x0002bf56     0x1afd build/default/production/_ext/321196743/Namespace_neuronrobotics_dyio.o
 .debug_info    0x0002da53     0x17db build/default/production/_ext/321196743/Namespace_bcs_pid_dypid.o
 .debug_info    0x0002f22e      0xf68 build/default/production/_ext/1360937237/Main.o
 .debug_info    0x00030196     0x160b build/default/production/_ext/1360937237/DyIOMain.o
 .debug_info    0x000317a1     0x1516 ../../../../../c-bowler/firmware/library/NR-Clib/development/c-bowler.X/dist/default/production/c-bowler.X.a(BowlerPacketParser.o)
 .debug_info    0x00032cb7     0x19de ../../../../../c-bowler/firmware/library/NR-Clib/development/c-bowler.X/dist/default/production/c-bowler.X.a(Namespace_bcs_core.o)
 .debug_info    0x00034695     0x1968 ../../../../../c-bowler/firmware/library/NR-Clib/development/c-bowler.X/dist/default/production/c-bowler.X.a(Bowler_Server.o)
 .debug_info    0x00035ffd     0x1b34 ../../../../../c-bowler/firmware/library/NR-Clib/development/c-bowler.X/dist/default/production/c-bowler.X.a(Debug.o)
 .debug_info    0x00037b31     0x17f1 ../../../../../c-bowler/firmware/library/NR-Clib/development/c-bowler.X/dist/default/production/c-bowler.X.a(FIFO.o)
 .debug_info    0x00039322     0x19e2 ../../../../../c-bowler/firmware/library/NR-Clib/development/c-bowler.X/dist/default/production/c-bowler.X.a(Bowler_Helper.o)
 .debug_info    0x0003ad04     0x100e ../../../../../c-bowler/firmware/library/NR-Clib/development/c-bowler.X/dist/default/production/c-bowler.X.a(Scheduler.o)
 .debug_info    0x0003bd12     0x17b3 ../../../../../c-bowler/firmware/library/NR-Clib/development/c-bowler.X/dist/default/production/c-bowler.X.a(Namespace_bcs_pid.o)
 .debug_info    0x0003d4c5     0x254f ../../../../../c-bowler/firmware/library/NR-Clib/development/c-bowler.X/dist/default/production/c-bowler.X.a(AbstractPID.o)
 .debug_info    0x0003fa14     0x1b48 ../../../../../c-bowler/firmware/library/NR-Clib/development/c-bowler.X/dist/default/production/c-bowler.X.a(usb_fifo.o)
 .debug_info    0x0004155c     0x3647 ../../../../../c-bowler/firmware/library/NR-Clib/development/c-bowler.X/dist/default/production/c-bowler.X.a(usb_device.o)
 .debug_info    0x00044ba3     0x1176 ../../../../../c-bowler/firmware/library/NR-Clib/development/c-bowler.X/dist/default/production/c-bowler.X.a(LED.o)
 .debug_info    0x00045d19     0x1b83 ../../../../../c-bowler/firmware/library/NR-Clib/development/c-bowler.X/dist/default/production/c-bowler.X.a(ADC.o)
 .debug_info    0x0004789c     0x18c8 ../../../../../c-bowler/firmware/library/NR-Clib/development/c-bowler.X/dist/default/production/c-bowler.X.a(HAL_P32.o)
 .debug_info    0x00049164     0x1082 ../../../../../c-bowler/firmware/library/NR-Clib/development/c-bowler.X/dist/default/production/c-bowler.X.a(Delay.o)
 .debug_info    0x0004a1e6     0x105f ../../../../../c-bowler/firmware/library/NR-Clib/development/c-bowler.X/dist/default/production/c-bowler.X.a(Bowler_USB_HAL.o)
 .debug_info    0x0004b245     0x1773 ../../../../../c-bowler/firmware/library/NR-Clib/development/c-bowler.X/dist/default/production/c-bowler.X.a(FlashStorage.o)
 .debug_info    0x0004c9b8     0x24ef ../../../../../c-bowler/firmware/library/NR-Clib/development/c-bowler.X/dist/default/production/c-bowler.X.a(Bowler_UART_HAL.o)
 .debug_info    0x0004eea7     0x1465 ../../../../../c-bowler/firmware/library/NR-Clib/development/c-bowler.X/dist/default/production/c-bowler.X.a(Tick.o)
 .debug_info    0x0005030c     0x16c8 ../../../../../c-bowler/firmware/library/NR-Clib/development/c-bowler.X/dist/default/production/c-bowler.X.a(UART.o)
 .debug_info    0x000519d4     0x1810 ../../../../../c-bowler/firmware/library/NR-Clib/development/c-bowler.X/dist/default/production/c-bowler.X.a(Namespace_bcs_rpc.o)
 .debug_info    0x000531e4     0x16a9 ../../../../../c-bowler/firmware/library/NR-Clib/development/c-bowler.X/dist/default/production/c-bowler.X.a(PidRpc.o)
 .debug_info    0x0005488d     0x15b7 ../../../../../c-bowler/firmware/library/NR-Clib/development/c-bowler.X/dist/default/production/c-bowler.X.a(PidHysteresis.o)
 .debug_info    0x00055e44     0x179f ../../../../../c-bowler/firmware/library/NR-Clib/development/c-bowler.X/dist/default/production/c-bowler.X.a(PidAsync.o)
 .debug_info    0x000575e3     0x1c57 ../../../../../c-bowler/firmware/library/NR-Clib/development/c-bowler.X/dist/default/production/c-bowler.X.a(usb_callback.o)
 .debug_info    0x0005923a     0x28de ../../../../../c-bowler/firmware/library/NR-Clib/development/c-bowler.X/dist/default/production/c-bowler.X.a(usb_function_cdc.o)
 .debug_info    0x0005bb18     0x1692 ../../../../../c-bowler/firmware/library/NR-Clib/development/c-bowler.X/dist/default/production/c-bowler.X.a(usb_descriptors.o)
 .debug_info    0x0005d1aa     0x120f ../../../../../c-bowler/firmware/library/NR-Clib/development/c-bowler.X/dist/default/production/c-bowler.X.a(PidVelocity.o)
 .debug_info    0x0005e3b9      0x146 /home/opt/microchip/xc32/v1.00/bin/../lib/gcc/pic32mx/4.5.1/libgcc.a(floatunsisf.o)
 .debug_info    0x0005e4ff       0xcb /home/opt/microchip/xc32/v1.00/bin/../lib/gcc/pic32mx/4.5.1/../../../../pic32mx/lib/libc.a(default-bootstrap-exception-handler.o)
 .debug_info    0x0005e5ca       0xa5 /home/opt/microchip/xc32/v1.00/bin/../lib/gcc/pic32mx/4.5.1/../../../../pic32mx/lib/libc.a(default-on-reset.o)
 .debug_info    0x0005e66f       0xad /home/opt/microchip/xc32/v1.00/bin/../lib/gcc/pic32mx/4.5.1/../../../../pic32mx/lib/libc.a(default-on-bootstrap.o)
 .debug_info    0x0005e71c       0xc7 /home/opt/microchip/xc32/v1.00/bin/../lib/gcc/pic32mx/4.5.1/../../../../pic32mx/lib/libmchp_peripheral_32MX440F128H.a(soft_reset_lib.o)
 .debug_info    0x0005e7e3       0xc9 /home/opt/microchip/xc32/v1.00/bin/../lib/gcc/pic32mx/4.5.1/../../../../pic32mx/lib/libmchp_peripheral_32MX440F128H.a(int_enable_interrupts_lib.o)
 .debug_info    0x0005e8ac       0xcb /home/opt/microchip/xc32/v1.00/bin/../lib/gcc/pic32mx/4.5.1/../../../../pic32mx/lib/libmchp_peripheral_32MX440F128H.a(int_disable_interrupts_lib.o)
 .debug_info    0x0005e977       0xd1 /home/opt/microchip/xc32/v1.00/bin/../lib/gcc/pic32mx/4.5.1/../../../../pic32mx/lib/libmchp_peripheral_32MX440F128H.a(int_enable_mv_int_lib.o)
 .debug_info    0x0005ea48      0x1ab /home/opt/microchip/xc32/v1.00/bin/../lib/gcc/pic32mx/4.5.1/../../../../pic32mx/lib/libmchp_peripheral_32MX440F128H.a(int_tbl_lib.o)
 .debug_info    0x0005ebf3       0xbd /home/opt/microchip/xc32/v1.00/bin/../lib/gcc/pic32mx/4.5.1/../../../../pic32mx/lib/libmchp_peripheral_32MX440F128H.a(spi_getc_spi2_lib_legacy.o)
 .debug_info    0x0005ecb0       0xbd /home/opt/microchip/xc32/v1.00/bin/../lib/gcc/pic32mx/4.5.1/../../../../pic32mx/lib/libmchp_peripheral_32MX440F128H.a(spi_open_spi2_lib_legacy.o)
 .debug_info    0x0005ed6d        0x0 /home/opt/microchip/xc32/v1.00/bin/../lib/gcc/pic32mx/4.5.1/../../../../pic32mx/lib/libmchp_peripheral_32MX440F128H.a(spi_brg_tbl_lib_legacy.o)
 .debug_info    0x0005ed6d       0xbb /home/opt/microchip/xc32/v1.00/bin/../lib/gcc/pic32mx/4.5.1/../../../../pic32mx/lib/libmchp_peripheral_32MX440F128H.a(nvm_erase_page_lib.o)
 .debug_info    0x0005ee28       0xdc /home/opt/microchip/xc32/v1.00/bin/../lib/gcc/pic32mx/4.5.1/../../../../pic32mx/lib/libmchp_peripheral_32MX440F128H.a(nvm_operation_lib.o)
 .debug_info    0x0005ef04       0xbb /home/opt/microchip/xc32/v1.00/bin/../lib/gcc/pic32mx/4.5.1/../../../../pic32mx/lib/libmchp_peripheral_32MX440F128H.a(nvm_write_word_lib.o)
 .debug_info    0x0005efbf       0xd1 /home/opt/microchip/xc32/v1.00/bin/../lib/gcc/pic32mx/4.5.1/../../../../pic32mx/lib/libmchp_peripheral_32MX440F128H.a(port_set_pins_digital_out_lib.o)
 .debug_info    0x0005f090       0xbf /home/opt/microchip/xc32/v1.00/bin/../lib/gcc/pic32mx/4.5.1/../../../../pic32mx/lib/libmchp_peripheral_32MX440F128H.a(port_clear_bits_lib.o)
 .debug_info    0x0005f14f       0xbb /home/opt/microchip/xc32/v1.00/bin/../lib/gcc/pic32mx/4.5.1/../../../../pic32mx/lib/libmchp_peripheral_32MX440F128H.a(port_set_bits_lib.o)
 .debug_info    0x0005f20a        0x0 /home/opt/microchip/xc32/v1.00/bin/../lib/gcc/pic32mx/4.5.1/../../../../pic32mx/lib/libmchp_peripheral_32MX440F128H.a(_ports_tbl_libp.o)
 .debug_info    0x0005f20a      0x18a /home/opt/microchip/xc32/v1.00/bin/../lib/gcc/pic32mx/4.5.1/../../../../pic32mx/lib/libmchp_peripheral_32MX440F128H.a(uart_lib.o)
 .debug_info    0x0005f394       0xcb /home/opt/microchip/xc32/v1.00/bin/../lib/gcc/pic32mx/4.5.1/../../../../pic32mx/lib/libmchp_peripheral_32MX440F128H.a(int_restore_interrupts_lib.o)

.debug_abbrev   0x00000000     0x9099
 *(.debug_abbrev)
 .debug_abbrev  0x00000000      0x1c9 build/default/production/_ext/108654538/PinFunctions.o
 .debug_abbrev  0x000001c9      0x1ea build/default/production/_ext/805493626/Debug_DyIO.o
 .debug_abbrev  0x000003b3      0x244 build/default/production/_ext/805493626/Namespace_bcs_io.o
 .debug_abbrev  0x000005f7      0x315 build/default/production/_ext/805493626/Abstract_bcs_io.o
 .debug_abbrev  0x0000090c      0x29c build/default/production/_ext/805493626/Bcs_IO_AdvancedAsync.o
 .debug_abbrev  0x00000ba8      0x246 build/default/production/_ext/1051272628/Abstract_bcs_io_setmode.o
 .debug_abbrev  0x00000dee      0x244 build/default/production/_ext/1051272628/Namespace_bcs_io_setmode.o
 .debug_abbrev  0x00001032      0x205 build/default/production/_ext/1825615050/CartesianController.o
 .debug_abbrev  0x00001237      0x282 build/default/production/_ext/1825615050/PID.o
 .debug_abbrev  0x000014b9      0x243 build/default/production/_ext/1978776677/UpstreamPackets.o
 .debug_abbrev  0x000016fc      0x26d build/default/production/_ext/1978776677/InitializationCallbacks.o
 .debug_abbrev  0x00001969      0x2f0 build/default/production/_ext/1978776677/DownStreamPackets.o
 .debug_abbrev  0x00001c59      0x242 build/default/production/_ext/1978776677/AsyncManager.o
 .debug_abbrev  0x00001e9b      0x166 build/default/production/_ext/2110062566/UartDMARx.o
 .debug_abbrev  0x00002001      0x1f4 build/default/production/_ext/990863823/AVRInterface.o
 .debug_abbrev  0x000021f5      0x1e2 build/default/production/_ext/990863823/Switches.o
 .debug_abbrev  0x000023d7      0x29d build/default/production/_ext/990863823/DyIODataTableManager.o
 .debug_abbrev  0x00002674      0x382 build/default/production/_ext/990863823/CoProcCom.o
 .debug_abbrev  0x000029f6      0x246 build/default/production/_ext/990863823/ADC.o
 .debug_abbrev  0x00002c3c      0x2e2 build/default/production/_ext/990863823/Counter.o
 .debug_abbrev  0x00002f1e      0x23a build/default/production/_ext/990863823/EEPROMMannager.o
 .debug_abbrev  0x00003158      0x1d6 build/default/production/_ext/990863823/SerialPassThrough.o
 .debug_abbrev  0x0000332e      0x22b build/default/production/_ext/990863823/SPI.o
 .debug_abbrev  0x00003559      0x237 build/default/production/_ext/990863823/PPMReader.o
 .debug_abbrev  0x00003790      0x1da build/default/production/_ext/1020318379/Pin_State.o
 .debug_abbrev  0x0000396a      0x1f0 build/default/production/_ext/1020318379/ChannelConfig.o
 .debug_abbrev  0x00003b5a      0x1fd build/default/production/_ext/1020318379/ChannelValues.o
 .debug_abbrev  0x00003d57      0x1ff build/default/production/_ext/1020318379/ChannelMode.o
 .debug_abbrev  0x00003f56      0x166 build/default/production/_ext/1281821416/Abstract_bsc_safe.o
 .debug_abbrev  0x000040bc      0x271 build/default/production/_ext/1281821416/Namespace_bcs_safe.o
 .debug_abbrev  0x0000432d      0x2d7 build/default/production/_ext/321196743/Namespace_neuronrobotics_dyio.o
 .debug_abbrev  0x00004604      0x271 build/default/production/_ext/321196743/Namespace_bcs_pid_dypid.o
 .debug_abbrev  0x00004875      0x17d build/default/production/_ext/1360937237/Main.o
 .debug_abbrev  0x000049f2      0x232 build/default/production/_ext/1360937237/DyIOMain.o
 .debug_abbrev  0x00004c24      0x251 ../../../../../c-bowler/firmware/library/NR-Clib/development/c-bowler.X/dist/default/production/c-bowler.X.a(BowlerPacketParser.o)
 .debug_abbrev  0x00004e75      0x2c4 ../../../../../c-bowler/firmware/library/NR-Clib/development/c-bowler.X/dist/default/production/c-bowler.X.a(Namespace_bcs_core.o)
 .debug_abbrev  0x00005139      0x2be ../../../../../c-bowler/firmware/library/NR-Clib/development/c-bowler.X/dist/default/production/c-bowler.X.a(Bowler_Server.o)
 .debug_abbrev  0x000053f7      0x2d9 ../../../../../c-bowler/firmware/library/NR-Clib/development/c-bowler.X/dist/default/production/c-bowler.X.a(Debug.o)
 .debug_abbrev  0x000056d0      0x25b ../../../../../c-bowler/firmware/library/NR-Clib/development/c-bowler.X/dist/default/production/c-bowler.X.a(FIFO.o)
 .debug_abbrev  0x0000592b      0x275 ../../../../../c-bowler/firmware/library/NR-Clib/development/c-bowler.X/dist/default/production/c-bowler.X.a(Bowler_Helper.o)
 .debug_abbrev  0x00005ba0      0x1ac ../../../../../c-bowler/firmware/library/NR-Clib/development/c-bowler.X/dist/default/production/c-bowler.X.a(Scheduler.o)
 .debug_abbrev  0x00005d4c      0x233 ../../../../../c-bowler/firmware/library/NR-Clib/development/c-bowler.X/dist/default/production/c-bowler.X.a(Namespace_bcs_pid.o)
 .debug_abbrev  0x00005f7f      0x340 ../../../../../c-bowler/firmware/library/NR-Clib/development/c-bowler.X/dist/default/production/c-bowler.X.a(AbstractPID.o)
 .debug_abbrev  0x000062bf      0x2a3 ../../../../../c-bowler/firmware/library/NR-Clib/development/c-bowler.X/dist/default/production/c-bowler.X.a(usb_fifo.o)
 .debug_abbrev  0x00006562      0x2c6 ../../../../../c-bowler/firmware/library/NR-Clib/development/c-bowler.X/dist/default/production/c-bowler.X.a(usb_device.o)
 .debug_abbrev  0x00006828      0x1b7 ../../../../../c-bowler/firmware/library/NR-Clib/development/c-bowler.X/dist/default/production/c-bowler.X.a(LED.o)
 .debug_abbrev  0x000069df      0x1db ../../../../../c-bowler/firmware/library/NR-Clib/development/c-bowler.X/dist/default/production/c-bowler.X.a(ADC.o)
 .debug_abbrev  0x00006bba      0x288 ../../../../../c-bowler/firmware/library/NR-Clib/development/c-bowler.X/dist/default/production/c-bowler.X.a(HAL_P32.o)
 .debug_abbrev  0x00006e42      0x1b0 ../../../../../c-bowler/firmware/library/NR-Clib/development/c-bowler.X/dist/default/production/c-bowler.X.a(Delay.o)
 .debug_abbrev  0x00006ff2      0x1d4 ../../../../../c-bowler/firmware/library/NR-Clib/development/c-bowler.X/dist/default/production/c-bowler.X.a(Bowler_USB_HAL.o)
 .debug_abbrev  0x000071c6      0x24f ../../../../../c-bowler/firmware/library/NR-Clib/development/c-bowler.X/dist/default/production/c-bowler.X.a(FlashStorage.o)
 .debug_abbrev  0x00007415      0x2b0 ../../../../../c-bowler/firmware/library/NR-Clib/development/c-bowler.X/dist/default/production/c-bowler.X.a(Bowler_UART_HAL.o)
 .debug_abbrev  0x000076c5      0x21a ../../../../../c-bowler/firmware/library/NR-Clib/development/c-bowler.X/dist/default/production/c-bowler.X.a(Tick.o)
 .debug_abbrev  0x000078df      0x231 ../../../../../c-bowler/firmware/library/NR-Clib/development/c-bowler.X/dist/default/production/c-bowler.X.a(UART.o)
 .debug_abbrev  0x00007b10      0x27c ../../../../../c-bowler/firmware/library/NR-Clib/development/c-bowler.X/dist/default/production/c-bowler.X.a(Namespace_bcs_rpc.o)
 .debug_abbrev  0x00007d8c      0x23d ../../../../../c-bowler/firmware/library/NR-Clib/development/c-bowler.X/dist/default/production/c-bowler.X.a(PidRpc.o)
 .debug_abbrev  0x00007fc9      0x23d ../../../../../c-bowler/firmware/library/NR-Clib/development/c-bowler.X/dist/default/production/c-bowler.X.a(PidHysteresis.o)
 .debug_abbrev  0x00008206      0x26c ../../../../../c-bowler/firmware/library/NR-Clib/development/c-bowler.X/dist/default/production/c-bowler.X.a(PidAsync.o)
 .debug_abbrev  0x00008472      0x23e ../../../../../c-bowler/firmware/library/NR-Clib/development/c-bowler.X/dist/default/production/c-bowler.X.a(usb_callback.o)
 .debug_abbrev  0x000086b0      0x2da ../../../../../c-bowler/firmware/library/NR-Clib/development/c-bowler.X/dist/default/production/c-bowler.X.a(usb_function_cdc.o)
 .debug_abbrev  0x0000898a      0x218 ../../../../../c-bowler/firmware/library/NR-Clib/development/c-bowler.X/dist/default/production/c-bowler.X.a(usb_descriptors.o)
 .debug_abbrev  0x00008ba2      0x1c9 ../../../../../c-bowler/firmware/library/NR-Clib/development/c-bowler.X/dist/default/production/c-bowler.X.a(PidVelocity.o)
 .debug_abbrev  0x00008d6b       0x61 /home/opt/microchip/xc32/v1.00/bin/../lib/gcc/pic32mx/4.5.1/libgcc.a(floatunsisf.o)
 .debug_abbrev  0x00008dcc       0x25 /home/opt/microchip/xc32/v1.00/bin/../lib/gcc/pic32mx/4.5.1/../../../../pic32mx/lib/libc.a(default-bootstrap-exception-handler.o)
 .debug_abbrev  0x00008df1       0x25 /home/opt/microchip/xc32/v1.00/bin/../lib/gcc/pic32mx/4.5.1/../../../../pic32mx/lib/libc.a(default-on-reset.o)
 .debug_abbrev  0x00008e16       0x25 /home/opt/microchip/xc32/v1.00/bin/../lib/gcc/pic32mx/4.5.1/../../../../pic32mx/lib/libc.a(default-on-bootstrap.o)
 .debug_abbrev  0x00008e3b       0x34 /home/opt/microchip/xc32/v1.00/bin/../lib/gcc/pic32mx/4.5.1/../../../../pic32mx/lib/libmchp_peripheral_32MX440F128H.a(soft_reset_lib.o)
 .debug_abbrev  0x00008e6f       0x25 /home/opt/microchip/xc32/v1.00/bin/../lib/gcc/pic32mx/4.5.1/../../../../pic32mx/lib/libmchp_peripheral_32MX440F128H.a(int_enable_interrupts_lib.o)
 .debug_abbrev  0x00008e94       0x25 /home/opt/microchip/xc32/v1.00/bin/../lib/gcc/pic32mx/4.5.1/../../../../pic32mx/lib/libmchp_peripheral_32MX440F128H.a(int_disable_interrupts_lib.o)
 .debug_abbrev  0x00008eb9       0x25 /home/opt/microchip/xc32/v1.00/bin/../lib/gcc/pic32mx/4.5.1/../../../../pic32mx/lib/libmchp_peripheral_32MX440F128H.a(int_enable_mv_int_lib.o)
 .debug_abbrev  0x00008ede       0x25 /home/opt/microchip/xc32/v1.00/bin/../lib/gcc/pic32mx/4.5.1/../../../../pic32mx/lib/libmchp_peripheral_32MX440F128H.a(int_tbl_lib.o)
 .debug_abbrev  0x00008f03       0x25 /home/opt/microchip/xc32/v1.00/bin/../lib/gcc/pic32mx/4.5.1/../../../../pic32mx/lib/libmchp_peripheral_32MX440F128H.a(spi_getc_spi2_lib_legacy.o)
 .debug_abbrev  0x00008f28       0x25 /home/opt/microchip/xc32/v1.00/bin/../lib/gcc/pic32mx/4.5.1/../../../../pic32mx/lib/libmchp_peripheral_32MX440F128H.a(spi_open_spi2_lib_legacy.o)
 .debug_abbrev  0x00008f4d        0x1 /home/opt/microchip/xc32/v1.00/bin/../lib/gcc/pic32mx/4.5.1/../../../../pic32mx/lib/libmchp_peripheral_32MX440F128H.a(spi_brg_tbl_lib_legacy.o)
 .debug_abbrev  0x00008f4e       0x25 /home/opt/microchip/xc32/v1.00/bin/../lib/gcc/pic32mx/4.5.1/../../../../pic32mx/lib/libmchp_peripheral_32MX440F128H.a(nvm_erase_page_lib.o)
 .debug_abbrev  0x00008f73       0x34 /home/opt/microchip/xc32/v1.00/bin/../lib/gcc/pic32mx/4.5.1/../../../../pic32mx/lib/libmchp_peripheral_32MX440F128H.a(nvm_operation_lib.o)
 .debug_abbrev  0x00008fa7       0x25 /home/opt/microchip/xc32/v1.00/bin/../lib/gcc/pic32mx/4.5.1/../../../../pic32mx/lib/libmchp_peripheral_32MX440F128H.a(nvm_write_word_lib.o)
 .debug_abbrev  0x00008fcc       0x25 /home/opt/microchip/xc32/v1.00/bin/../lib/gcc/pic32mx/4.5.1/../../../../pic32mx/lib/libmchp_peripheral_32MX440F128H.a(port_set_pins_digital_out_lib.o)
 .debug_abbrev  0x00008ff1       0x25 /home/opt/microchip/xc32/v1.00/bin/../lib/gcc/pic32mx/4.5.1/../../../../pic32mx/lib/libmchp_peripheral_32MX440F128H.a(port_clear_bits_lib.o)
 .debug_abbrev  0x00009016       0x25 /home/opt/microchip/xc32/v1.00/bin/../lib/gcc/pic32mx/4.5.1/../../../../pic32mx/lib/libmchp_peripheral_32MX440F128H.a(port_set_bits_lib.o)
 .debug_abbrev  0x0000903b        0x1 /home/opt/microchip/xc32/v1.00/bin/../lib/gcc/pic32mx/4.5.1/../../../../pic32mx/lib/libmchp_peripheral_32MX440F128H.a(_ports_tbl_libp.o)
 .debug_abbrev  0x0000903c       0x38 /home/opt/microchip/xc32/v1.00/bin/../lib/gcc/pic32mx/4.5.1/../../../../pic32mx/lib/libmchp_peripheral_32MX440F128H.a(uart_lib.o)
 .debug_abbrev  0x00009074       0x25 /home/opt/microchip/xc32/v1.00/bin/../lib/gcc/pic32mx/4.5.1/../../../../pic32mx/lib/libmchp_peripheral_32MX440F128H.a(int_restore_interrupts_lib.o)

.debug_line     0x00000000     0xa282
 *(.debug_line)
 .debug_line    0x00000000      0x2e2 build/default/production/_ext/108654538/PinFunctions.o
 .debug_line    0x000002e2      0x227 build/default/production/_ext/805493626/Debug_DyIO.o
 .debug_line    0x00000509      0x27d build/default/production/_ext/805493626/Namespace_bcs_io.o
 .debug_line    0x00000786      0x457 build/default/production/_ext/805493626/Abstract_bcs_io.o
 .debug_line    0x00000bdd      0x3e7 build/default/production/_ext/805493626/Bcs_IO_AdvancedAsync.o
 .debug_line    0x00000fc4      0x28d build/default/production/_ext/1051272628/Abstract_bcs_io_setmode.o
 .debug_line    0x00001251      0x258 build/default/production/_ext/1051272628/Namespace_bcs_io_setmode.o
 .debug_line    0x000014a9      0x1bf build/default/production/_ext/1825615050/CartesianController.o
 .debug_line    0x00001668      0x420 build/default/production/_ext/1825615050/PID.o
 .debug_line    0x00001a88      0x328 build/default/production/_ext/1978776677/UpstreamPackets.o
 .debug_line    0x00001db0      0x2ac build/default/production/_ext/1978776677/InitializationCallbacks.o
 .debug_line    0x0000205c      0x4d1 build/default/production/_ext/1978776677/DownStreamPackets.o
 .debug_line    0x0000252d      0x22e build/default/production/_ext/1978776677/AsyncManager.o
 .debug_line    0x0000275b      0x15f build/default/production/_ext/2110062566/UartDMARx.o
 .debug_line    0x000028ba      0x1e4 build/default/production/_ext/990863823/AVRInterface.o
 .debug_line    0x00002a9e      0x24a build/default/production/_ext/990863823/Switches.o
 .debug_line    0x00002ce8      0x259 build/default/production/_ext/990863823/DyIODataTableManager.o
 .debug_line    0x00002f41      0x433 build/default/production/_ext/990863823/CoProcCom.o
 .debug_line    0x00003374      0x2a2 build/default/production/_ext/990863823/ADC.o
 .debug_line    0x00003616      0x544 build/default/production/_ext/990863823/Counter.o
 .debug_line    0x00003b5a      0x2e0 build/default/production/_ext/990863823/EEPROMMannager.o
 .debug_line    0x00003e3a      0x1b3 build/default/production/_ext/990863823/SerialPassThrough.o
 .debug_line    0x00003fed      0x206 build/default/production/_ext/990863823/SPI.o
 .debug_line    0x000041f3      0x2ee build/default/production/_ext/990863823/PPMReader.o
 .debug_line    0x000044e1      0x259 build/default/production/_ext/1020318379/Pin_State.o
 .debug_line    0x0000473a      0x1a4 build/default/production/_ext/1020318379/ChannelConfig.o
 .debug_line    0x000048de      0x22b build/default/production/_ext/1020318379/ChannelValues.o
 .debug_line    0x00004b09      0x258 build/default/production/_ext/1020318379/ChannelMode.o
 .debug_line    0x00004d61      0x15f build/default/production/_ext/1281821416/Abstract_bsc_safe.o
 .debug_line    0x00004ec0      0x260 build/default/production/_ext/1281821416/Namespace_bcs_safe.o
 .debug_line    0x00005120      0x310 build/default/production/_ext/321196743/Namespace_neuronrobotics_dyio.o
 .debug_line    0x00005430      0x270 build/default/production/_ext/321196743/Namespace_bcs_pid_dypid.o
 .debug_line    0x000056a0      0x182 build/default/production/_ext/1360937237/Main.o
 .debug_line    0x00005822      0x234 build/default/production/_ext/1360937237/DyIOMain.o
 .debug_line    0x00005a56      0x1fe ../../../../../c-bowler/firmware/library/NR-Clib/development/c-bowler.X/dist/default/production/c-bowler.X.a(BowlerPacketParser.o)
 .debug_line    0x00005c54      0x258 ../../../../../c-bowler/firmware/library/NR-Clib/development/c-bowler.X/dist/default/production/c-bowler.X.a(Namespace_bcs_core.o)
 .debug_line    0x00005eac      0x257 ../../../../../c-bowler/firmware/library/NR-Clib/development/c-bowler.X/dist/default/production/c-bowler.X.a(Bowler_Server.o)
 .debug_line    0x00006103      0x2b5 ../../../../../c-bowler/firmware/library/NR-Clib/development/c-bowler.X/dist/default/production/c-bowler.X.a(Debug.o)
 .debug_line    0x000063b8      0x22d ../../../../../c-bowler/firmware/library/NR-Clib/development/c-bowler.X/dist/default/production/c-bowler.X.a(FIFO.o)
 .debug_line    0x000065e5      0x223 ../../../../../c-bowler/firmware/library/NR-Clib/development/c-bowler.X/dist/default/production/c-bowler.X.a(Bowler_Helper.o)
 .debug_line    0x00006808      0x178 ../../../../../c-bowler/firmware/library/NR-Clib/development/c-bowler.X/dist/default/production/c-bowler.X.a(Scheduler.o)
 .debug_line    0x00006980      0x1d1 ../../../../../c-bowler/firmware/library/NR-Clib/development/c-bowler.X/dist/default/production/c-bowler.X.a(Namespace_bcs_pid.o)
 .debug_line    0x00006b51      0x308 ../../../../../c-bowler/firmware/library/NR-Clib/development/c-bowler.X/dist/default/production/c-bowler.X.a(AbstractPID.o)
 .debug_line    0x00006e59      0x2e8 ../../../../../c-bowler/firmware/library/NR-Clib/development/c-bowler.X/dist/default/production/c-bowler.X.a(usb_fifo.o)
 .debug_line    0x00007141      0x51e ../../../../../c-bowler/firmware/library/NR-Clib/development/c-bowler.X/dist/default/production/c-bowler.X.a(usb_device.o)
 .debug_line    0x0000765f      0x1a8 ../../../../../c-bowler/firmware/library/NR-Clib/development/c-bowler.X/dist/default/production/c-bowler.X.a(LED.o)
 .debug_line    0x00007807      0x1e0 ../../../../../c-bowler/firmware/library/NR-Clib/development/c-bowler.X/dist/default/production/c-bowler.X.a(ADC.o)
 .debug_line    0x000079e7      0x270 ../../../../../c-bowler/firmware/library/NR-Clib/development/c-bowler.X/dist/default/production/c-bowler.X.a(HAL_P32.o)
 .debug_line    0x00007c57      0x1a2 ../../../../../c-bowler/firmware/library/NR-Clib/development/c-bowler.X/dist/default/production/c-bowler.X.a(Delay.o)
 .debug_line    0x00007df9      0x19a ../../../../../c-bowler/firmware/library/NR-Clib/development/c-bowler.X/dist/default/production/c-bowler.X.a(Bowler_USB_HAL.o)
 .debug_line    0x00007f93      0x260 ../../../../../c-bowler/firmware/library/NR-Clib/development/c-bowler.X/dist/default/production/c-bowler.X.a(FlashStorage.o)
 .debug_line    0x000081f3      0x236 ../../../../../c-bowler/firmware/library/NR-Clib/development/c-bowler.X/dist/default/production/c-bowler.X.a(Bowler_UART_HAL.o)
 .debug_line    0x00008429      0x1e8 ../../../../../c-bowler/firmware/library/NR-Clib/development/c-bowler.X/dist/default/production/c-bowler.X.a(Tick.o)
 .debug_line    0x00008611      0x1d7 ../../../../../c-bowler/firmware/library/NR-Clib/development/c-bowler.X/dist/default/production/c-bowler.X.a(UART.o)
 .debug_line    0x000087e8      0x206 ../../../../../c-bowler/firmware/library/NR-Clib/development/c-bowler.X/dist/default/production/c-bowler.X.a(Namespace_bcs_rpc.o)
 .debug_line    0x000089ee      0x292 ../../../../../c-bowler/firmware/library/NR-Clib/development/c-bowler.X/dist/default/production/c-bowler.X.a(PidRpc.o)
 .debug_line    0x00008c80      0x215 ../../../../../c-bowler/firmware/library/NR-Clib/development/c-bowler.X/dist/default/production/c-bowler.X.a(PidHysteresis.o)
 .debug_line    0x00008e95      0x233 ../../../../../c-bowler/firmware/library/NR-Clib/development/c-bowler.X/dist/default/production/c-bowler.X.a(PidAsync.o)
 .debug_line    0x000090c8      0x228 ../../../../../c-bowler/firmware/library/NR-Clib/development/c-bowler.X/dist/default/production/c-bowler.X.a(usb_callback.o)
 .debug_line    0x000092f0      0x2e2 ../../../../../c-bowler/firmware/library/NR-Clib/development/c-bowler.X/dist/default/production/c-bowler.X.a(usb_function_cdc.o)
 .debug_line    0x000095d2      0x202 ../../../../../c-bowler/firmware/library/NR-Clib/development/c-bowler.X/dist/default/production/c-bowler.X.a(usb_descriptors.o)
 .debug_line    0x000097d4      0x1bb ../../../../../c-bowler/firmware/library/NR-Clib/development/c-bowler.X/dist/default/production/c-bowler.X.a(PidVelocity.o)
 .debug_line    0x0000998f       0x6d /home/opt/microchip/xc32/v1.00/bin/../lib/gcc/pic32mx/4.5.1/libgcc.a(floatunsisf.o)
 .debug_line    0x000099fc       0x89 /home/opt/microchip/xc32/v1.00/bin/../lib/gcc/pic32mx/4.5.1/../../../../pic32mx/lib/libc.a(default-bootstrap-exception-handler.o)
 .debug_line    0x00009a85       0x76 /home/opt/microchip/xc32/v1.00/bin/../lib/gcc/pic32mx/4.5.1/../../../../pic32mx/lib/libc.a(default-on-reset.o)
 .debug_line    0x00009afb       0x7a /home/opt/microchip/xc32/v1.00/bin/../lib/gcc/pic32mx/4.5.1/../../../../pic32mx/lib/libc.a(default-on-bootstrap.o)
 .debug_line    0x00009b75       0xbb /home/opt/microchip/xc32/v1.00/bin/../lib/gcc/pic32mx/4.5.1/../../../../pic32mx/lib/libmchp_peripheral_32MX440F128H.a(soft_reset_lib.o)
 .debug_line    0x00009c30       0x72 /home/opt/microchip/xc32/v1.00/bin/../lib/gcc/pic32mx/4.5.1/../../../../pic32mx/lib/libmchp_peripheral_32MX440F128H.a(int_enable_interrupts_lib.o)
 .debug_line    0x00009ca2       0x73 /home/opt/microchip/xc32/v1.00/bin/../lib/gcc/pic32mx/4.5.1/../../../../pic32mx/lib/libmchp_peripheral_32MX440F128H.a(int_disable_interrupts_lib.o)
 .debug_line    0x00009d15       0x6e /home/opt/microchip/xc32/v1.00/bin/../lib/gcc/pic32mx/4.5.1/../../../../pic32mx/lib/libmchp_peripheral_32MX440F128H.a(int_enable_mv_int_lib.o)
 .debug_line    0x00009d83       0x64 /home/opt/microchip/xc32/v1.00/bin/../lib/gcc/pic32mx/4.5.1/../../../../pic32mx/lib/libmchp_peripheral_32MX440F128H.a(int_tbl_lib.o)
 .debug_line    0x00009de7       0x71 /home/opt/microchip/xc32/v1.00/bin/../lib/gcc/pic32mx/4.5.1/../../../../pic32mx/lib/libmchp_peripheral_32MX440F128H.a(spi_getc_spi2_lib_legacy.o)
 .debug_line    0x00009e58       0x71 /home/opt/microchip/xc32/v1.00/bin/../lib/gcc/pic32mx/4.5.1/../../../../pic32mx/lib/libmchp_peripheral_32MX440F128H.a(spi_open_spi2_lib_legacy.o)
 .debug_line    0x00009ec9        0x0 /home/opt/microchip/xc32/v1.00/bin/../lib/gcc/pic32mx/4.5.1/../../../../pic32mx/lib/libmchp_peripheral_32MX440F128H.a(spi_brg_tbl_lib_legacy.o)
 .debug_line    0x00009ec9       0x6b /home/opt/microchip/xc32/v1.00/bin/../lib/gcc/pic32mx/4.5.1/../../../../pic32mx/lib/libmchp_peripheral_32MX440F128H.a(nvm_erase_page_lib.o)
 .debug_line    0x00009f34       0xbc /home/opt/microchip/xc32/v1.00/bin/../lib/gcc/pic32mx/4.5.1/../../../../pic32mx/lib/libmchp_peripheral_32MX440F128H.a(nvm_operation_lib.o)
 .debug_line    0x00009ff0       0x6b /home/opt/microchip/xc32/v1.00/bin/../lib/gcc/pic32mx/4.5.1/../../../../pic32mx/lib/libmchp_peripheral_32MX440F128H.a(nvm_write_word_lib.o)
 .debug_line    0x0000a05b       0x78 /home/opt/microchip/xc32/v1.00/bin/../lib/gcc/pic32mx/4.5.1/../../../../pic32mx/lib/libmchp_peripheral_32MX440F128H.a(port_set_pins_digital_out_lib.o)
 .debug_line    0x0000a0d3       0x6e /home/opt/microchip/xc32/v1.00/bin/../lib/gcc/pic32mx/4.5.1/../../../../pic32mx/lib/libmchp_peripheral_32MX440F128H.a(port_clear_bits_lib.o)
 .debug_line    0x0000a141       0x6c /home/opt/microchip/xc32/v1.00/bin/../lib/gcc/pic32mx/4.5.1/../../../../pic32mx/lib/libmchp_peripheral_32MX440F128H.a(port_set_bits_lib.o)
 .debug_line    0x0000a1ad        0x0 /home/opt/microchip/xc32/v1.00/bin/../lib/gcc/pic32mx/4.5.1/../../../../pic32mx/lib/libmchp_peripheral_32MX440F128H.a(_ports_tbl_libp.o)
 .debug_line    0x0000a1ad       0x62 /home/opt/microchip/xc32/v1.00/bin/../lib/gcc/pic32mx/4.5.1/../../../../pic32mx/lib/libmchp_peripheral_32MX440F128H.a(uart_lib.o)
 .debug_line    0x0000a20f       0x73 /home/opt/microchip/xc32/v1.00/bin/../lib/gcc/pic32mx/4.5.1/../../../../pic32mx/lib/libmchp_peripheral_32MX440F128H.a(int_restore_interrupts_lib.o)

.debug_frame    0x00000000     0x38bc
 *(.debug_frame)
 .debug_frame   0x00000000       0x2c build/default/production/_ext/108654538/PinFunctions.o
 .debug_frame   0x0000002c       0x48 build/default/production/_ext/805493626/Debug_DyIO.o
 .debug_frame   0x00000074       0x48 build/default/production/_ext/805493626/Namespace_bcs_io.o
 .debug_frame   0x000000bc      0x24c build/default/production/_ext/805493626/Abstract_bcs_io.o
 .debug_frame   0x00000308      0x1ec build/default/production/_ext/805493626/Bcs_IO_AdvancedAsync.o
 .debug_frame   0x000004f4       0x9c build/default/production/_ext/1051272628/Abstract_bcs_io_setmode.o
 .debug_frame   0x00000590       0x48 build/default/production/_ext/1051272628/Namespace_bcs_io_setmode.o
 .debug_frame   0x000005d8       0x9c build/default/production/_ext/1825615050/CartesianController.o
 .debug_frame   0x00000674      0x184 build/default/production/_ext/1825615050/PID.o
 .debug_frame   0x000007f8       0xf0 build/default/production/_ext/1978776677/UpstreamPackets.o
 .debug_frame   0x000008e8       0x48 build/default/production/_ext/1978776677/InitializationCallbacks.o
 .debug_frame   0x00000930      0x268 build/default/production/_ext/1978776677/DownStreamPackets.o
 .debug_frame   0x00000b98       0x68 build/default/production/_ext/1978776677/AsyncManager.o
 .debug_frame   0x00000c00      0x10c build/default/production/_ext/990863823/AVRInterface.o
 .debug_frame   0x00000d0c       0x50 build/default/production/_ext/990863823/Switches.o
 .debug_frame   0x00000d5c       0x9c build/default/production/_ext/990863823/DyIODataTableManager.o
 .debug_frame   0x00000df8      0x1c0 build/default/production/_ext/990863823/CoProcCom.o
 .debug_frame   0x00000fb8      0x164 build/default/production/_ext/990863823/ADC.o
 .debug_frame   0x0000111c      0x2fc build/default/production/_ext/990863823/Counter.o
 .debug_frame   0x00001418       0xd8 build/default/production/_ext/990863823/EEPROMMannager.o
 .debug_frame   0x000014f0       0x2c build/default/production/_ext/990863823/SerialPassThrough.o
 .debug_frame   0x0000151c       0xbc build/default/production/_ext/990863823/SPI.o
 .debug_frame   0x000015d8      0x100 build/default/production/_ext/990863823/PPMReader.o
 .debug_frame   0x000016d8       0x2c build/default/production/_ext/1020318379/Pin_State.o
 .debug_frame   0x00001704       0x2c build/default/production/_ext/1020318379/ChannelConfig.o
 .debug_frame   0x00001730       0xbc build/default/production/_ext/1020318379/ChannelValues.o
 .debug_frame   0x000017ec       0x84 build/default/production/_ext/1020318379/ChannelMode.o
 .debug_frame   0x00001870       0x80 build/default/production/_ext/1281821416/Namespace_bcs_safe.o
 .debug_frame   0x000018f0      0x110 build/default/production/_ext/321196743/Namespace_neuronrobotics_dyio.o
 .debug_frame   0x00001a00       0x84 build/default/production/_ext/321196743/Namespace_bcs_pid_dypid.o
 .debug_frame   0x00001a84       0x2c build/default/production/_ext/1360937237/Main.o
 .debug_frame   0x00001ab0       0x64 build/default/production/_ext/1360937237/DyIOMain.o
 .debug_frame   0x00001b14       0xe0 ../../../../../c-bowler/firmware/library/NR-Clib/development/c-bowler.X/dist/default/production/c-bowler.X.a(BowlerPacketParser.o)
 .debug_frame   0x00001bf4      0x11c ../../../../../c-bowler/firmware/library/NR-Clib/development/c-bowler.X/dist/default/production/c-bowler.X.a(Namespace_bcs_core.o)
 .debug_frame   0x00001d10       0xac ../../../../../c-bowler/firmware/library/NR-Clib/development/c-bowler.X/dist/default/production/c-bowler.X.a(Bowler_Server.o)
 .debug_frame   0x00001dbc      0x1f0 ../../../../../c-bowler/firmware/library/NR-Clib/development/c-bowler.X/dist/default/production/c-bowler.X.a(Debug.o)
 .debug_frame   0x00001fac      0x1b8 ../../../../../c-bowler/firmware/library/NR-Clib/development/c-bowler.X/dist/default/production/c-bowler.X.a(FIFO.o)
 .debug_frame   0x00002164      0x198 ../../../../../c-bowler/firmware/library/NR-Clib/development/c-bowler.X/dist/default/production/c-bowler.X.a(Bowler_Helper.o)
 .debug_frame   0x000022fc       0x2c ../../../../../c-bowler/firmware/library/NR-Clib/development/c-bowler.X/dist/default/production/c-bowler.X.a(Scheduler.o)
 .debug_frame   0x00002328       0x40 ../../../../../c-bowler/firmware/library/NR-Clib/development/c-bowler.X/dist/default/production/c-bowler.X.a(Namespace_bcs_pid.o)
 .debug_frame   0x00002368      0x2bc ../../../../../c-bowler/firmware/library/NR-Clib/development/c-bowler.X/dist/default/production/c-bowler.X.a(AbstractPID.o)
 .debug_frame   0x00002624      0x14c ../../../../../c-bowler/firmware/library/NR-Clib/development/c-bowler.X/dist/default/production/c-bowler.X.a(usb_fifo.o)
 .debug_frame   0x00002770      0x27c ../../../../../c-bowler/firmware/library/NR-Clib/development/c-bowler.X/dist/default/production/c-bowler.X.a(usb_device.o)
 .debug_frame   0x000029ec       0x8c ../../../../../c-bowler/firmware/library/NR-Clib/development/c-bowler.X/dist/default/production/c-bowler.X.a(LED.o)
 .debug_frame   0x00002a78       0x58 ../../../../../c-bowler/firmware/library/NR-Clib/development/c-bowler.X/dist/default/production/c-bowler.X.a(ADC.o)
 .debug_frame   0x00002ad0      0x134 ../../../../../c-bowler/firmware/library/NR-Clib/development/c-bowler.X/dist/default/production/c-bowler.X.a(HAL_P32.o)
 .debug_frame   0x00002c04       0x78 ../../../../../c-bowler/firmware/library/NR-Clib/development/c-bowler.X/dist/default/production/c-bowler.X.a(Delay.o)
 .debug_frame   0x00002c7c       0x58 ../../../../../c-bowler/firmware/library/NR-Clib/development/c-bowler.X/dist/default/production/c-bowler.X.a(Bowler_USB_HAL.o)
 .debug_frame   0x00002cd4      0x128 ../../../../../c-bowler/firmware/library/NR-Clib/development/c-bowler.X/dist/default/production/c-bowler.X.a(FlashStorage.o)
 .debug_frame   0x00002dfc      0x104 ../../../../../c-bowler/firmware/library/NR-Clib/development/c-bowler.X/dist/default/production/c-bowler.X.a(Bowler_UART_HAL.o)
 .debug_frame   0x00002f00       0xac ../../../../../c-bowler/firmware/library/NR-Clib/development/c-bowler.X/dist/default/production/c-bowler.X.a(Tick.o)
 .debug_frame   0x00002fac       0x48 ../../../../../c-bowler/firmware/library/NR-Clib/development/c-bowler.X/dist/default/production/c-bowler.X.a(UART.o)
 .debug_frame   0x00002ff4       0x60 ../../../../../c-bowler/firmware/library/NR-Clib/development/c-bowler.X/dist/default/production/c-bowler.X.a(Namespace_bcs_rpc.o)
 .debug_frame   0x00003054       0xe8 ../../../../../c-bowler/firmware/library/NR-Clib/development/c-bowler.X/dist/default/production/c-bowler.X.a(PidRpc.o)
 .debug_frame   0x0000313c      0x148 ../../../../../c-bowler/firmware/library/NR-Clib/development/c-bowler.X/dist/default/production/c-bowler.X.a(PidHysteresis.o)
 .debug_frame   0x00003284       0x94 ../../../../../c-bowler/firmware/library/NR-Clib/development/c-bowler.X/dist/default/production/c-bowler.X.a(PidAsync.o)
 .debug_frame   0x00003318       0xc8 ../../../../../c-bowler/firmware/library/NR-Clib/development/c-bowler.X/dist/default/production/c-bowler.X.a(usb_callback.o)
 .debug_frame   0x000033e0       0xb4 ../../../../../c-bowler/firmware/library/NR-Clib/development/c-bowler.X/dist/default/production/c-bowler.X.a(usb_function_cdc.o)
 .debug_frame   0x00003494       0x40 ../../../../../c-bowler/firmware/library/NR-Clib/development/c-bowler.X/dist/default/production/c-bowler.X.a(usb_descriptors.o)
 .debug_frame   0x000034d4       0x68 ../../../../../c-bowler/firmware/library/NR-Clib/development/c-bowler.X/dist/default/production/c-bowler.X.a(PidVelocity.o)
 .debug_frame   0x0000353c       0x28 /home/opt/microchip/xc32/v1.00/bin/../lib/gcc/pic32mx/4.5.1/libgcc.a(floatunsisf.o)
 .debug_frame   0x00003564       0x20 /home/opt/microchip/xc32/v1.00/bin/../lib/gcc/pic32mx/4.5.1/../../../../pic32mx/lib/libc.a(default-bootstrap-exception-handler.o)
 .debug_frame   0x00003584       0x20 /home/opt/microchip/xc32/v1.00/bin/../lib/gcc/pic32mx/4.5.1/../../../../pic32mx/lib/libc.a(default-on-reset.o)
 .debug_frame   0x000035a4       0x20 /home/opt/microchip/xc32/v1.00/bin/../lib/gcc/pic32mx/4.5.1/../../../../pic32mx/lib/libc.a(default-on-bootstrap.o)
 .debug_frame   0x000035c4       0x28 /home/opt/microchip/xc32/v1.00/bin/../lib/gcc/pic32mx/4.5.1/../../../../pic32mx/lib/libmchp_peripheral_32MX440F128H.a(soft_reset_lib.o)
 .debug_frame   0x000035ec       0x20 /home/opt/microchip/xc32/v1.00/bin/../lib/gcc/pic32mx/4.5.1/../../../../pic32mx/lib/libmchp_peripheral_32MX440F128H.a(int_enable_interrupts_lib.o)
 .debug_frame   0x0000360c       0x20 /home/opt/microchip/xc32/v1.00/bin/../lib/gcc/pic32mx/4.5.1/../../../../pic32mx/lib/libmchp_peripheral_32MX440F128H.a(int_disable_interrupts_lib.o)
 .debug_frame   0x0000362c       0x28 /home/opt/microchip/xc32/v1.00/bin/../lib/gcc/pic32mx/4.5.1/../../../../pic32mx/lib/libmchp_peripheral_32MX440F128H.a(int_enable_mv_int_lib.o)
 .debug_frame   0x00003654       0xa0 /home/opt/microchip/xc32/v1.00/bin/../lib/gcc/pic32mx/4.5.1/../../../../pic32mx/lib/libmchp_peripheral_32MX440F128H.a(int_tbl_lib.o)
 .debug_frame   0x000036f4       0x20 /home/opt/microchip/xc32/v1.00/bin/../lib/gcc/pic32mx/4.5.1/../../../../pic32mx/lib/libmchp_peripheral_32MX440F128H.a(spi_getc_spi2_lib_legacy.o)
 .debug_frame   0x00003714       0x20 /home/opt/microchip/xc32/v1.00/bin/../lib/gcc/pic32mx/4.5.1/../../../../pic32mx/lib/libmchp_peripheral_32MX440F128H.a(spi_open_spi2_lib_legacy.o)
 .debug_frame   0x00003734       0x28 /home/opt/microchip/xc32/v1.00/bin/../lib/gcc/pic32mx/4.5.1/../../../../pic32mx/lib/libmchp_peripheral_32MX440F128H.a(nvm_erase_page_lib.o)
 .debug_frame   0x0000375c       0x28 /home/opt/microchip/xc32/v1.00/bin/../lib/gcc/pic32mx/4.5.1/../../../../pic32mx/lib/libmchp_peripheral_32MX440F128H.a(nvm_operation_lib.o)
 .debug_frame   0x00003784       0x28 /home/opt/microchip/xc32/v1.00/bin/../lib/gcc/pic32mx/4.5.1/../../../../pic32mx/lib/libmchp_peripheral_32MX440F128H.a(nvm_write_word_lib.o)
 .debug_frame   0x000037ac       0x20 /home/opt/microchip/xc32/v1.00/bin/../lib/gcc/pic32mx/4.5.1/../../../../pic32mx/lib/libmchp_peripheral_32MX440F128H.a(port_set_pins_digital_out_lib.o)
 .debug_frame   0x000037cc       0x20 /home/opt/microchip/xc32/v1.00/bin/../lib/gcc/pic32mx/4.5.1/../../../../pic32mx/lib/libmchp_peripheral_32MX440F128H.a(port_clear_bits_lib.o)
 .debug_frame   0x000037ec       0x20 /home/opt/microchip/xc32/v1.00/bin/../lib/gcc/pic32mx/4.5.1/../../../../pic32mx/lib/libmchp_peripheral_32MX440F128H.a(port_set_bits_lib.o)
 .debug_frame   0x0000380c       0x90 /home/opt/microchip/xc32/v1.00/bin/../lib/gcc/pic32mx/4.5.1/../../../../pic32mx/lib/libmchp_peripheral_32MX440F128H.a(uart_lib.o)
 .debug_frame   0x0000389c       0x20 /home/opt/microchip/xc32/v1.00/bin/../lib/gcc/pic32mx/4.5.1/../../../../pic32mx/lib/libmchp_peripheral_32MX440F128H.a(int_restore_interrupts_lib.o)

.debug_str      0x00000000     0x3fa4
 *(.debug_str)
 .debug_str     0x00000000       0xe2 build/default/production/_ext/108654538/PinFunctions.o
 .debug_str     0x000000e2       0xe2 build/default/production/_ext/805493626/Debug_DyIO.o
 .debug_str     0x000001c4       0xeb build/default/production/_ext/805493626/Namespace_bcs_io.o
 .debug_str     0x000002af      0x157 build/default/production/_ext/805493626/Abstract_bcs_io.o
 .debug_str     0x00000406       0xea build/default/production/_ext/805493626/Bcs_IO_AdvancedAsync.o
 .debug_str     0x000004f0       0xf5 build/default/production/_ext/1051272628/Abstract_bcs_io_setmode.o
 .debug_str     0x000005e5       0xf0 build/default/production/_ext/1051272628/Namespace_bcs_io_setmode.o
 .debug_str     0x000006d5       0xe9 build/default/production/_ext/1825615050/CartesianController.o
 .debug_str     0x000007be      0x106 build/default/production/_ext/1825615050/PID.o
 .debug_str     0x000008c4       0xe2 build/default/production/_ext/1978776677/UpstreamPackets.o
 .debug_str     0x000009a6      0x12c build/default/production/_ext/1978776677/InitializationCallbacks.o
 .debug_str     0x00000ad2       0xfc build/default/production/_ext/1978776677/DownStreamPackets.o
 .debug_str     0x00000bce       0xe9 build/default/production/_ext/1978776677/AsyncManager.o
 .debug_str     0x00000cb7       0xe2 build/default/production/_ext/2110062566/UartDMARx.o
 .debug_str     0x00000d99       0xec build/default/production/_ext/990863823/AVRInterface.o
 .debug_str     0x00000e85       0xe2 build/default/production/_ext/990863823/Switches.o
 .debug_str     0x00000f67       0xf6 build/default/production/_ext/990863823/DyIODataTableManager.o
 .debug_str     0x0000105d      0x131 build/default/production/_ext/990863823/CoProcCom.o
 .debug_str     0x0000118e      0x10a build/default/production/_ext/990863823/ADC.o
 .debug_str     0x00001298      0x13e build/default/production/_ext/990863823/Counter.o
 .debug_str     0x000013d6      0x126 build/default/production/_ext/990863823/EEPROMMannager.o
 .debug_str     0x000014fc       0xe2 build/default/production/_ext/990863823/SerialPassThrough.o
 .debug_str     0x000015de      0x121 build/default/production/_ext/990863823/SPI.o
 .debug_str     0x000016ff       0xf6 build/default/production/_ext/990863823/PPMReader.o
 .debug_str     0x000017f5       0xe2 build/default/production/_ext/1020318379/Pin_State.o
 .debug_str     0x000018d7       0xe2 build/default/production/_ext/1020318379/ChannelConfig.o
 .debug_str     0x000019b9       0xec build/default/production/_ext/1020318379/ChannelValues.o
 .debug_str     0x00001aa5       0xf1 build/default/production/_ext/1020318379/ChannelMode.o
 .debug_str     0x00001b96       0xe2 build/default/production/_ext/1281821416/Abstract_bsc_safe.o
 .debug_str     0x00001c78       0xfe build/default/production/_ext/1281821416/Namespace_bcs_safe.o
 .debug_str     0x00001d76       0xf4 build/default/production/_ext/321196743/Namespace_neuronrobotics_dyio.o
 .debug_str     0x00001e6a       0xf5 build/default/production/_ext/321196743/Namespace_bcs_pid_dypid.o
 .debug_str     0x00001f5f       0xe2 build/default/production/_ext/1360937237/Main.o
 .debug_str     0x00002041       0xec build/default/production/_ext/1360937237/DyIOMain.o
 .debug_str     0x0000212d       0xee ../../../../../c-bowler/firmware/library/NR-Clib/development/c-bowler.X/dist/default/production/c-bowler.X.a(BowlerPacketParser.o)
 .debug_str     0x0000221b      0x109 ../../../../../c-bowler/firmware/library/NR-Clib/development/c-bowler.X/dist/default/production/c-bowler.X.a(Namespace_bcs_core.o)
 .debug_str     0x00002324       0xf3 ../../../../../c-bowler/firmware/library/NR-Clib/development/c-bowler.X/dist/default/production/c-bowler.X.a(Bowler_Server.o)
 .debug_str     0x00002417      0x11d ../../../../../c-bowler/firmware/library/NR-Clib/development/c-bowler.X/dist/default/production/c-bowler.X.a(Debug.o)
 .debug_str     0x00002534      0x126 ../../../../../c-bowler/firmware/library/NR-Clib/development/c-bowler.X/dist/default/production/c-bowler.X.a(FIFO.o)
 .debug_str     0x0000265a       0xf0 ../../../../../c-bowler/firmware/library/NR-Clib/development/c-bowler.X/dist/default/production/c-bowler.X.a(Bowler_Helper.o)
 .debug_str     0x0000274a       0xe2 ../../../../../c-bowler/firmware/library/NR-Clib/development/c-bowler.X/dist/default/production/c-bowler.X.a(Scheduler.o)
 .debug_str     0x0000282c       0xe2 ../../../../../c-bowler/firmware/library/NR-Clib/development/c-bowler.X/dist/default/production/c-bowler.X.a(Namespace_bcs_pid.o)
 .debug_str     0x0000290e      0x18d ../../../../../c-bowler/firmware/library/NR-Clib/development/c-bowler.X/dist/default/production/c-bowler.X.a(AbstractPID.o)
 .debug_str     0x00002a9b      0x11a ../../../../../c-bowler/firmware/library/NR-Clib/development/c-bowler.X/dist/default/production/c-bowler.X.a(usb_fifo.o)
 .debug_str     0x00002bb5      0x2ab ../../../../../c-bowler/firmware/library/NR-Clib/development/c-bowler.X/dist/default/production/c-bowler.X.a(usb_device.o)
 .debug_str     0x00002e60       0xe2 ../../../../../c-bowler/firmware/library/NR-Clib/development/c-bowler.X/dist/default/production/c-bowler.X.a(LED.o)
 .debug_str     0x00002f42      0x15f ../../../../../c-bowler/firmware/library/NR-Clib/development/c-bowler.X/dist/default/production/c-bowler.X.a(ADC.o)
 .debug_str     0x000030a1       0xe9 ../../../../../c-bowler/firmware/library/NR-Clib/development/c-bowler.X/dist/default/production/c-bowler.X.a(HAL_P32.o)
 .debug_str     0x0000318a       0xe2 ../../../../../c-bowler/firmware/library/NR-Clib/development/c-bowler.X/dist/default/production/c-bowler.X.a(Delay.o)
 .debug_str     0x0000326c       0xe2 ../../../../../c-bowler/firmware/library/NR-Clib/development/c-bowler.X/dist/default/production/c-bowler.X.a(Bowler_USB_HAL.o)
 .debug_str     0x0000334e      0x10c ../../../../../c-bowler/firmware/library/NR-Clib/development/c-bowler.X/dist/default/production/c-bowler.X.a(FlashStorage.o)
 .debug_str     0x0000345a      0x100 ../../../../../c-bowler/firmware/library/NR-Clib/development/c-bowler.X/dist/default/production/c-bowler.X.a(Bowler_UART_HAL.o)
 .debug_str     0x0000355a       0xeb ../../../../../c-bowler/firmware/library/NR-Clib/development/c-bowler.X/dist/default/production/c-bowler.X.a(Tick.o)
 .debug_str     0x00003645       0xe2 ../../../../../c-bowler/firmware/library/NR-Clib/development/c-bowler.X/dist/default/production/c-bowler.X.a(UART.o)
 .debug_str     0x00003727       0xeb ../../../../../c-bowler/firmware/library/NR-Clib/development/c-bowler.X/dist/default/production/c-bowler.X.a(Namespace_bcs_rpc.o)
 .debug_str     0x00003812       0xe9 ../../../../../c-bowler/firmware/library/NR-Clib/development/c-bowler.X/dist/default/production/c-bowler.X.a(PidRpc.o)
 .debug_str     0x000038fb       0xf1 ../../../../../c-bowler/firmware/library/NR-Clib/development/c-bowler.X/dist/default/production/c-bowler.X.a(PidHysteresis.o)
 .debug_str     0x000039ec       0xfd ../../../../../c-bowler/firmware/library/NR-Clib/development/c-bowler.X/dist/default/production/c-bowler.X.a(PidAsync.o)
 .debug_str     0x00003ae9       0xf7 ../../../../../c-bowler/firmware/library/NR-Clib/development/c-bowler.X/dist/default/production/c-bowler.X.a(usb_callback.o)
 .debug_str     0x00003be0      0x1cb ../../../../../c-bowler/firmware/library/NR-Clib/development/c-bowler.X/dist/default/production/c-bowler.X.a(usb_function_cdc.o)
 .debug_str     0x00003dab      0x117 ../../../../../c-bowler/firmware/library/NR-Clib/development/c-bowler.X/dist/default/production/c-bowler.X.a(usb_descriptors.o)
 .debug_str     0x00003ec2       0xe2 ../../../../../c-bowler/firmware/library/NR-Clib/development/c-bowler.X/dist/default/production/c-bowler.X.a(PidVelocity.o)
 .debug_str     0x00003fa4        0x0 /home/opt/microchip/xc32/v1.00/bin/../lib/gcc/pic32mx/4.5.1/libgcc.a(floatunsisf.o)
 .debug_str     0x00003fa4        0x0 /home/opt/microchip/xc32/v1.00/bin/../lib/gcc/pic32mx/4.5.1/../../../../pic32mx/lib/libc.a(default-bootstrap-exception-handler.o)
 .debug_str     0x00003fa4        0x0 /home/opt/microchip/xc32/v1.00/bin/../lib/gcc/pic32mx/4.5.1/../../../../pic32mx/lib/libc.a(default-on-reset.o)
 .debug_str     0x00003fa4        0x0 /home/opt/microchip/xc32/v1.00/bin/../lib/gcc/pic32mx/4.5.1/../../../../pic32mx/lib/libc.a(default-on-bootstrap.o)
 .debug_str     0x00003fa4        0x0 /home/opt/microchip/xc32/v1.00/bin/../lib/gcc/pic32mx/4.5.1/../../../../pic32mx/lib/libmchp_peripheral_32MX440F128H.a(soft_reset_lib.o)
 .debug_str     0x00003fa4        0x0 /home/opt/microchip/xc32/v1.00/bin/../lib/gcc/pic32mx/4.5.1/../../../../pic32mx/lib/libmchp_peripheral_32MX440F128H.a(int_enable_interrupts_lib.o)
 .debug_str     0x00003fa4        0x0 /home/opt/microchip/xc32/v1.00/bin/../lib/gcc/pic32mx/4.5.1/../../../../pic32mx/lib/libmchp_peripheral_32MX440F128H.a(int_disable_interrupts_lib.o)
 .debug_str     0x00003fa4        0x0 /home/opt/microchip/xc32/v1.00/bin/../lib/gcc/pic32mx/4.5.1/../../../../pic32mx/lib/libmchp_peripheral_32MX440F128H.a(int_enable_mv_int_lib.o)
 .debug_str     0x00003fa4        0x0 /home/opt/microchip/xc32/v1.00/bin/../lib/gcc/pic32mx/4.5.1/../../../../pic32mx/lib/libmchp_peripheral_32MX440F128H.a(int_tbl_lib.o)
 .debug_str     0x00003fa4        0x0 /home/opt/microchip/xc32/v1.00/bin/../lib/gcc/pic32mx/4.5.1/../../../../pic32mx/lib/libmchp_peripheral_32MX440F128H.a(spi_getc_spi2_lib_legacy.o)
 .debug_str     0x00003fa4        0x0 /home/opt/microchip/xc32/v1.00/bin/../lib/gcc/pic32mx/4.5.1/../../../../pic32mx/lib/libmchp_peripheral_32MX440F128H.a(spi_open_spi2_lib_legacy.o)
 .debug_str     0x00003fa4        0x0 /home/opt/microchip/xc32/v1.00/bin/../lib/gcc/pic32mx/4.5.1/../../../../pic32mx/lib/libmchp_peripheral_32MX440F128H.a(spi_brg_tbl_lib_legacy.o)
 .debug_str     0x00003fa4        0x0 /home/opt/microchip/xc32/v1.00/bin/../lib/gcc/pic32mx/4.5.1/../../../../pic32mx/lib/libmchp_peripheral_32MX440F128H.a(nvm_erase_page_lib.o)
 .debug_str     0x00003fa4        0x0 /home/opt/microchip/xc32/v1.00/bin/../lib/gcc/pic32mx/4.5.1/../../../../pic32mx/lib/libmchp_peripheral_32MX440F128H.a(nvm_operation_lib.o)
 .debug_str     0x00003fa4        0x0 /home/opt/microchip/xc32/v1.00/bin/../lib/gcc/pic32mx/4.5.1/../../../../pic32mx/lib/libmchp_peripheral_32MX440F128H.a(nvm_write_word_lib.o)
 .debug_str     0x00003fa4        0x0 /home/opt/microchip/xc32/v1.00/bin/../lib/gcc/pic32mx/4.5.1/../../../../pic32mx/lib/libmchp_peripheral_32MX440F128H.a(port_set_pins_digital_out_lib.o)
 .debug_str     0x00003fa4        0x0 /home/opt/microchip/xc32/v1.00/bin/../lib/gcc/pic32mx/4.5.1/../../../../pic32mx/lib/libmchp_peripheral_32MX440F128H.a(port_clear_bits_lib.o)
 .debug_str     0x00003fa4        0x0 /home/opt/microchip/xc32/v1.00/bin/../lib/gcc/pic32mx/4.5.1/../../../../pic32mx/lib/libmchp_peripheral_32MX440F128H.a(port_set_bits_lib.o)
 .debug_str     0x00003fa4        0x0 /home/opt/microchip/xc32/v1.00/bin/../lib/gcc/pic32mx/4.5.1/../../../../pic32mx/lib/libmchp_peripheral_32MX440F128H.a(_ports_tbl_libp.o)
 .debug_str     0x00003fa4        0x0 /home/opt/microchip/xc32/v1.00/bin/../lib/gcc/pic32mx/4.5.1/../../../../pic32mx/lib/libmchp_peripheral_32MX440F128H.a(uart_lib.o)
 .debug_str     0x00003fa4        0x0 /home/opt/microchip/xc32/v1.00/bin/../lib/gcc/pic32mx/4.5.1/../../../../pic32mx/lib/libmchp_peripheral_32MX440F128H.a(int_restore_interrupts_lib.o)

.debug_loc      0x00000000     0x3b8a
 *(.debug_loc)
 .debug_loc     0x00000000      0x224 ../../../../../c-bowler/firmware/library/NR-Clib/development/c-bowler.X/dist/default/production/c-bowler.X.a(BowlerPacketParser.o)
 .debug_loc     0x00000224      0x3c9 ../../../../../c-bowler/firmware/library/NR-Clib/development/c-bowler.X/dist/default/production/c-bowler.X.a(Namespace_bcs_core.o)
 .debug_loc     0x000005ed      0x2b5 ../../../../../c-bowler/firmware/library/NR-Clib/development/c-bowler.X/dist/default/production/c-bowler.X.a(Bowler_Server.o)
 .debug_loc     0x000008a2      0x586 ../../../../../c-bowler/firmware/library/NR-Clib/development/c-bowler.X/dist/default/production/c-bowler.X.a(Debug.o)
 .debug_loc     0x00000e28      0x44d ../../../../../c-bowler/firmware/library/NR-Clib/development/c-bowler.X/dist/default/production/c-bowler.X.a(FIFO.o)
 .debug_loc     0x00001275      0x40e ../../../../../c-bowler/firmware/library/NR-Clib/development/c-bowler.X/dist/default/production/c-bowler.X.a(Bowler_Helper.o)
 .debug_loc     0x00001683       0x5b ../../../../../c-bowler/firmware/library/NR-Clib/development/c-bowler.X/dist/default/production/c-bowler.X.a(Scheduler.o)
 .debug_loc     0x000016de       0x26 ../../../../../c-bowler/firmware/library/NR-Clib/development/c-bowler.X/dist/default/production/c-bowler.X.a(Namespace_bcs_pid.o)
 .debug_loc     0x00001704      0x6d3 ../../../../../c-bowler/firmware/library/NR-Clib/development/c-bowler.X/dist/default/production/c-bowler.X.a(AbstractPID.o)
 .debug_loc     0x00001dd7      0x257 ../../../../../c-bowler/firmware/library/NR-Clib/development/c-bowler.X/dist/default/production/c-bowler.X.a(usb_fifo.o)
 .debug_loc     0x0000202e      0x362 ../../../../../c-bowler/firmware/library/NR-Clib/development/c-bowler.X/dist/default/production/c-bowler.X.a(usb_device.o)
 .debug_loc     0x00002390       0xa9 ../../../../../c-bowler/firmware/library/NR-Clib/development/c-bowler.X/dist/default/production/c-bowler.X.a(LED.o)
 .debug_loc     0x00002439       0xf0 ../../../../../c-bowler/firmware/library/NR-Clib/development/c-bowler.X/dist/default/production/c-bowler.X.a(ADC.o)
 .debug_loc     0x00002529       0xf3 ../../../../../c-bowler/firmware/library/NR-Clib/development/c-bowler.X/dist/default/production/c-bowler.X.a(HAL_P32.o)
 .debug_loc     0x0000261c       0xf5 ../../../../../c-bowler/firmware/library/NR-Clib/development/c-bowler.X/dist/default/production/c-bowler.X.a(Delay.o)
 .debug_loc     0x00002711       0x4c ../../../../../c-bowler/firmware/library/NR-Clib/development/c-bowler.X/dist/default/production/c-bowler.X.a(Bowler_USB_HAL.o)
 .debug_loc     0x0000275d      0x37b ../../../../../c-bowler/firmware/library/NR-Clib/development/c-bowler.X/dist/default/production/c-bowler.X.a(FlashStorage.o)
 .debug_loc     0x00002ad8       0xd2 ../../../../../c-bowler/firmware/library/NR-Clib/development/c-bowler.X/dist/default/production/c-bowler.X.a(Bowler_UART_HAL.o)
 .debug_loc     0x00002baa       0x31 ../../../../../c-bowler/firmware/library/NR-Clib/development/c-bowler.X/dist/default/production/c-bowler.X.a(Tick.o)
 .debug_loc     0x00002bdb      0x156 ../../../../../c-bowler/firmware/library/NR-Clib/development/c-bowler.X/dist/default/production/c-bowler.X.a(UART.o)
 .debug_loc     0x00002d31      0x258 ../../../../../c-bowler/firmware/library/NR-Clib/development/c-bowler.X/dist/default/production/c-bowler.X.a(Namespace_bcs_rpc.o)
 .debug_loc     0x00002f89      0x363 ../../../../../c-bowler/firmware/library/NR-Clib/development/c-bowler.X/dist/default/production/c-bowler.X.a(PidRpc.o)
 .debug_loc     0x000032ec      0x255 ../../../../../c-bowler/firmware/library/NR-Clib/development/c-bowler.X/dist/default/production/c-bowler.X.a(PidHysteresis.o)
 .debug_loc     0x00003541      0x1d0 ../../../../../c-bowler/firmware/library/NR-Clib/development/c-bowler.X/dist/default/production/c-bowler.X.a(PidAsync.o)
 .debug_loc     0x00003711       0x7b ../../../../../c-bowler/firmware/library/NR-Clib/development/c-bowler.X/dist/default/production/c-bowler.X.a(usb_callback.o)
 .debug_loc     0x0000378c      0x13f ../../../../../c-bowler/firmware/library/NR-Clib/development/c-bowler.X/dist/default/production/c-bowler.X.a(usb_function_cdc.o)
 .debug_loc     0x000038cb       0xae ../../../../../c-bowler/firmware/library/NR-Clib/development/c-bowler.X/dist/default/production/c-bowler.X.a(usb_descriptors.o)
 .debug_loc     0x00003979      0x1b4 ../../../../../c-bowler/firmware/library/NR-Clib/development/c-bowler.X/dist/default/production/c-bowler.X.a(PidVelocity.o)
 .debug_loc     0x00003b2d       0x5d /home/opt/microchip/xc32/v1.00/bin/../lib/gcc/pic32mx/4.5.1/libgcc.a(floatunsisf.o)

.debug_macinfo
 *(.debug_macinfo)

.debug_weaknames
 *(.debug_weaknames)

.debug_funcnames
 *(.debug_funcnames)

.debug_typenames
 *(.debug_typenames)

.debug_varnames
 *(.debug_varnames)

.debug_pubtypes
                0x00000000     0x5991
 *(.debug_pubtypes)
 .debug_pubtypes
                0x00000000      0x150 build/default/production/_ext/108654538/PinFunctions.o
 .debug_pubtypes
                0x00000150       0xe7 build/default/production/_ext/805493626/Debug_DyIO.o
 .debug_pubtypes
                0x00000237      0x1b0 build/default/production/_ext/805493626/Namespace_bcs_io.o
 .debug_pubtypes
                0x000003e7      0x1ed build/default/production/_ext/805493626/Abstract_bcs_io.o
 .debug_pubtypes
                0x000005d4      0x18a build/default/production/_ext/805493626/Bcs_IO_AdvancedAsync.o
 .debug_pubtypes
                0x0000075e      0x13f build/default/production/_ext/1051272628/Abstract_bcs_io_setmode.o
 .debug_pubtypes
                0x0000089d      0x19f build/default/production/_ext/1051272628/Namespace_bcs_io_setmode.o
 .debug_pubtypes
                0x00000a3c      0x125 build/default/production/_ext/1825615050/CartesianController.o
 .debug_pubtypes
                0x00000b61      0x2af build/default/production/_ext/1825615050/PID.o
 .debug_pubtypes
                0x00000e10      0x1a7 build/default/production/_ext/1978776677/UpstreamPackets.o
 .debug_pubtypes
                0x00000fb7      0x20a build/default/production/_ext/1978776677/InitializationCallbacks.o
 .debug_pubtypes
                0x000011c1      0x188 build/default/production/_ext/1978776677/DownStreamPackets.o
 .debug_pubtypes
                0x00001349      0x17d build/default/production/_ext/1978776677/AsyncManager.o
 .debug_pubtypes
                0x000014c6       0xbd build/default/production/_ext/2110062566/UartDMARx.o
 .debug_pubtypes
                0x00001583       0xfc build/default/production/_ext/990863823/AVRInterface.o
 .debug_pubtypes
                0x0000167f       0xfa build/default/production/_ext/990863823/Switches.o
 .debug_pubtypes
                0x00001779      0x190 build/default/production/_ext/990863823/DyIODataTableManager.o
 .debug_pubtypes
                0x00001909      0x1e6 build/default/production/_ext/990863823/CoProcCom.o
 .debug_pubtypes
                0x00001aef      0x13e build/default/production/_ext/990863823/ADC.o
 .debug_pubtypes
                0x00001c2d      0x1bf build/default/production/_ext/990863823/Counter.o
 .debug_pubtypes
                0x00001dec      0x204 build/default/production/_ext/990863823/EEPROMMannager.o
 .debug_pubtypes
                0x00001ff0      0x112 build/default/production/_ext/990863823/SerialPassThrough.o
 .debug_pubtypes
                0x00002102      0x178 build/default/production/_ext/990863823/SPI.o
 .debug_pubtypes
                0x0000227a      0x18b build/default/production/_ext/990863823/PPMReader.o
 .debug_pubtypes
                0x00002405      0x102 build/default/production/_ext/1020318379/Pin_State.o
 .debug_pubtypes
                0x00002507      0x125 build/default/production/_ext/1020318379/ChannelConfig.o
 .debug_pubtypes
                0x0000262c       0xf4 build/default/production/_ext/1020318379/ChannelValues.o
 .debug_pubtypes
                0x00002720       0xea build/default/production/_ext/1020318379/ChannelMode.o
 .debug_pubtypes
                0x0000280a       0xbd build/default/production/_ext/1281821416/Abstract_bsc_safe.o
 .debug_pubtypes
                0x000028c7      0x1cd build/default/production/_ext/1281821416/Namespace_bcs_safe.o
 .debug_pubtypes
                0x00002a94      0x1d0 build/default/production/_ext/321196743/Namespace_neuronrobotics_dyio.o
 .debug_pubtypes
                0x00002c64      0x1bf build/default/production/_ext/321196743/Namespace_bcs_pid_dypid.o
 .debug_pubtypes
                0x00002e23       0xbd build/default/production/_ext/1360937237/Main.o
 .debug_pubtypes
                0x00002ee0      0x148 build/default/production/_ext/1360937237/DyIOMain.o
 .debug_pubtypes
                0x00003028      0x18c ../../../../../c-bowler/firmware/library/NR-Clib/development/c-bowler.X/dist/default/production/c-bowler.X.a(BowlerPacketParser.o)
 .debug_pubtypes
                0x000031b4      0x1b0 ../../../../../c-bowler/firmware/library/NR-Clib/development/c-bowler.X/dist/default/production/c-bowler.X.a(Namespace_bcs_core.o)
 .debug_pubtypes
                0x00003364      0x1f8 ../../../../../c-bowler/firmware/library/NR-Clib/development/c-bowler.X/dist/default/production/c-bowler.X.a(Bowler_Server.o)
 .debug_pubtypes
                0x0000355c      0x16f ../../../../../c-bowler/firmware/library/NR-Clib/development/c-bowler.X/dist/default/production/c-bowler.X.a(Debug.o)
 .debug_pubtypes
                0x000036cb      0x1b8 ../../../../../c-bowler/firmware/library/NR-Clib/development/c-bowler.X/dist/default/production/c-bowler.X.a(FIFO.o)
 .debug_pubtypes
                0x00003883      0x1fb ../../../../../c-bowler/firmware/library/NR-Clib/development/c-bowler.X/dist/default/production/c-bowler.X.a(Bowler_Helper.o)
 .debug_pubtypes
                0x00003a7e       0xdd ../../../../../c-bowler/firmware/library/NR-Clib/development/c-bowler.X/dist/default/production/c-bowler.X.a(Scheduler.o)
 .debug_pubtypes
                0x00003b5b      0x19f ../../../../../c-bowler/firmware/library/NR-Clib/development/c-bowler.X/dist/default/production/c-bowler.X.a(Namespace_bcs_pid.o)
 .debug_pubtypes
                0x00003cfa      0x27b ../../../../../c-bowler/firmware/library/NR-Clib/development/c-bowler.X/dist/default/production/c-bowler.X.a(AbstractPID.o)
 .debug_pubtypes
                0x00003f75      0x1d3 ../../../../../c-bowler/firmware/library/NR-Clib/development/c-bowler.X/dist/default/production/c-bowler.X.a(usb_fifo.o)
 .debug_pubtypes
                0x00004148      0x287 ../../../../../c-bowler/firmware/library/NR-Clib/development/c-bowler.X/dist/default/production/c-bowler.X.a(usb_device.o)
 .debug_pubtypes
                0x000043cf       0xc6 ../../../../../c-bowler/firmware/library/NR-Clib/development/c-bowler.X/dist/default/production/c-bowler.X.a(LED.o)
 .debug_pubtypes
                0x00004495      0x128 ../../../../../c-bowler/firmware/library/NR-Clib/development/c-bowler.X/dist/default/production/c-bowler.X.a(ADC.o)
 .debug_pubtypes
                0x000045bd      0x18b ../../../../../c-bowler/firmware/library/NR-Clib/development/c-bowler.X/dist/default/production/c-bowler.X.a(HAL_P32.o)
 .debug_pubtypes
                0x00004748       0xd0 ../../../../../c-bowler/firmware/library/NR-Clib/development/c-bowler.X/dist/default/production/c-bowler.X.a(Delay.o)
 .debug_pubtypes
                0x00004818       0xe2 ../../../../../c-bowler/firmware/library/NR-Clib/development/c-bowler.X/dist/default/production/c-bowler.X.a(Bowler_USB_HAL.o)
 .debug_pubtypes
                0x000048fa      0x13b ../../../../../c-bowler/firmware/library/NR-Clib/development/c-bowler.X/dist/default/production/c-bowler.X.a(FlashStorage.o)
 .debug_pubtypes
                0x00004a35      0x175 ../../../../../c-bowler/firmware/library/NR-Clib/development/c-bowler.X/dist/default/production/c-bowler.X.a(Bowler_UART_HAL.o)
 .debug_pubtypes
                0x00004baa       0xc7 ../../../../../c-bowler/firmware/library/NR-Clib/development/c-bowler.X/dist/default/production/c-bowler.X.a(Tick.o)
 .debug_pubtypes
                0x00004c71       0xe9 ../../../../../c-bowler/firmware/library/NR-Clib/development/c-bowler.X/dist/default/production/c-bowler.X.a(UART.o)
 .debug_pubtypes
                0x00004d5a      0x1cd ../../../../../c-bowler/firmware/library/NR-Clib/development/c-bowler.X/dist/default/production/c-bowler.X.a(Namespace_bcs_rpc.o)
 .debug_pubtypes
                0x00004f27      0x13f ../../../../../c-bowler/firmware/library/NR-Clib/development/c-bowler.X/dist/default/production/c-bowler.X.a(PidRpc.o)
 .debug_pubtypes
                0x00005066      0x192 ../../../../../c-bowler/firmware/library/NR-Clib/development/c-bowler.X/dist/default/production/c-bowler.X.a(PidHysteresis.o)
 .debug_pubtypes
                0x000051f8      0x1c1 ../../../../../c-bowler/firmware/library/NR-Clib/development/c-bowler.X/dist/default/production/c-bowler.X.a(PidAsync.o)
 .debug_pubtypes
                0x000053b9      0x167 ../../../../../c-bowler/firmware/library/NR-Clib/development/c-bowler.X/dist/default/production/c-bowler.X.a(usb_callback.o)
 .debug_pubtypes
                0x00005520      0x236 ../../../../../c-bowler/firmware/library/NR-Clib/development/c-bowler.X/dist/default/production/c-bowler.X.a(usb_function_cdc.o)
 .debug_pubtypes
                0x00005756      0x104 ../../../../../c-bowler/firmware/library/NR-Clib/development/c-bowler.X/dist/default/production/c-bowler.X.a(usb_descriptors.o)
 .debug_pubtypes
                0x0000585a      0x103 ../../../../../c-bowler/firmware/library/NR-Clib/development/c-bowler.X/dist/default/production/c-bowler.X.a(PidVelocity.o)
 .debug_pubtypes
                0x0000595d       0x34 /home/opt/microchip/xc32/v1.00/bin/../lib/gcc/pic32mx/4.5.1/libgcc.a(floatunsisf.o)

.debug_ranges   0x00000000      0x228
 *(.debug_ranges)
 .debug_ranges  0x00000000       0x18 build/default/production/_ext/1978776677/AsyncManager.o
 .debug_ranges  0x00000018       0x18 ../../../../../c-bowler/firmware/library/NR-Clib/development/c-bowler.X/dist/default/production/c-bowler.X.a(BowlerPacketParser.o)
 .debug_ranges  0x00000030       0x18 ../../../../../c-bowler/firmware/library/NR-Clib/development/c-bowler.X/dist/default/production/c-bowler.X.a(Bowler_Server.o)
 .debug_ranges  0x00000048       0x18 ../../../../../c-bowler/firmware/library/NR-Clib/development/c-bowler.X/dist/default/production/c-bowler.X.a(Bowler_Helper.o)
 .debug_ranges  0x00000060       0x18 ../../../../../c-bowler/firmware/library/NR-Clib/development/c-bowler.X/dist/default/production/c-bowler.X.a(usb_fifo.o)
 .debug_ranges  0x00000078       0x18 ../../../../../c-bowler/firmware/library/NR-Clib/development/c-bowler.X/dist/default/production/c-bowler.X.a(PidAsync.o)
 .debug_ranges  0x00000090       0x10 /home/opt/microchip/xc32/v1.00/bin/../lib/gcc/pic32mx/4.5.1/../../../../pic32mx/lib/libc.a(default-bootstrap-exception-handler.o)
 .debug_ranges  0x000000a0       0x10 /home/opt/microchip/xc32/v1.00/bin/../lib/gcc/pic32mx/4.5.1/../../../../pic32mx/lib/libc.a(default-on-reset.o)
 .debug_ranges  0x000000b0       0x10 /home/opt/microchip/xc32/v1.00/bin/../lib/gcc/pic32mx/4.5.1/../../../../pic32mx/lib/libc.a(default-on-bootstrap.o)
 .debug_ranges  0x000000c0       0x10 /home/opt/microchip/xc32/v1.00/bin/../lib/gcc/pic32mx/4.5.1/../../../../pic32mx/lib/libmchp_peripheral_32MX440F128H.a(soft_reset_lib.o)
 .debug_ranges  0x000000d0       0x10 /home/opt/microchip/xc32/v1.00/bin/../lib/gcc/pic32mx/4.5.1/../../../../pic32mx/lib/libmchp_peripheral_32MX440F128H.a(int_enable_interrupts_lib.o)
 .debug_ranges  0x000000e0       0x10 /home/opt/microchip/xc32/v1.00/bin/../lib/gcc/pic32mx/4.5.1/../../../../pic32mx/lib/libmchp_peripheral_32MX440F128H.a(int_disable_interrupts_lib.o)
 .debug_ranges  0x000000f0       0x10 /home/opt/microchip/xc32/v1.00/bin/../lib/gcc/pic32mx/4.5.1/../../../../pic32mx/lib/libmchp_peripheral_32MX440F128H.a(int_enable_mv_int_lib.o)
 .debug_ranges  0x00000100       0x50 /home/opt/microchip/xc32/v1.00/bin/../lib/gcc/pic32mx/4.5.1/../../../../pic32mx/lib/libmchp_peripheral_32MX440F128H.a(int_tbl_lib.o)
 .debug_ranges  0x00000150       0x10 /home/opt/microchip/xc32/v1.00/bin/../lib/gcc/pic32mx/4.5.1/../../../../pic32mx/lib/libmchp_peripheral_32MX440F128H.a(spi_getc_spi2_lib_legacy.o)
 .debug_ranges  0x00000160       0x10 /home/opt/microchip/xc32/v1.00/bin/../lib/gcc/pic32mx/4.5.1/../../../../pic32mx/lib/libmchp_peripheral_32MX440F128H.a(spi_open_spi2_lib_legacy.o)
 .debug_ranges  0x00000170       0x10 /home/opt/microchip/xc32/v1.00/bin/../lib/gcc/pic32mx/4.5.1/../../../../pic32mx/lib/libmchp_peripheral_32MX440F128H.a(nvm_erase_page_lib.o)
 .debug_ranges  0x00000180       0x10 /home/opt/microchip/xc32/v1.00/bin/../lib/gcc/pic32mx/4.5.1/../../../../pic32mx/lib/libmchp_peripheral_32MX440F128H.a(nvm_operation_lib.o)
 .debug_ranges  0x00000190       0x10 /home/opt/microchip/xc32/v1.00/bin/../lib/gcc/pic32mx/4.5.1/../../../../pic32mx/lib/libmchp_peripheral_32MX440F128H.a(nvm_write_word_lib.o)
 .debug_ranges  0x000001a0       0x10 /home/opt/microchip/xc32/v1.00/bin/../lib/gcc/pic32mx/4.5.1/../../../../pic32mx/lib/libmchp_peripheral_32MX440F128H.a(port_set_pins_digital_out_lib.o)
 .debug_ranges  0x000001b0       0x10 /home/opt/microchip/xc32/v1.00/bin/../lib/gcc/pic32mx/4.5.1/../../../../pic32mx/lib/libmchp_peripheral_32MX440F128H.a(port_clear_bits_lib.o)
 .debug_ranges  0x000001c0       0x10 /home/opt/microchip/xc32/v1.00/bin/../lib/gcc/pic32mx/4.5.1/../../../../pic32mx/lib/libmchp_peripheral_32MX440F128H.a(port_set_bits_lib.o)
 .debug_ranges  0x000001d0       0x48 /home/opt/microchip/xc32/v1.00/bin/../lib/gcc/pic32mx/4.5.1/../../../../pic32mx/lib/libmchp_peripheral_32MX440F128H.a(uart_lib.o)
 .debug_ranges  0x00000218       0x10 /home/opt/microchip/xc32/v1.00/bin/../lib/gcc/pic32mx/4.5.1/../../../../pic32mx/lib/libmchp_peripheral_32MX440F128H.a(int_restore_interrupts_lib.o)

.gnu.attributes
                0x00000000       0x10
 *(.gnu.attributes)
 .gnu.attributes
                0x00000000       0x10 build/default/production/_ext/108654538/PinFunctions.o
 .gnu.attributes
                0x00000010       0x10 build/default/production/_ext/805493626/Debug_DyIO.o
 .gnu.attributes
                0x00000020       0x10 build/default/production/_ext/805493626/Namespace_bcs_io.o
 .gnu.attributes
                0x00000030       0x10 build/default/production/_ext/805493626/Abstract_bcs_io.o
 .gnu.attributes
                0x00000040       0x10 build/default/production/_ext/805493626/Bcs_IO_AdvancedAsync.o
 .gnu.attributes
                0x00000050       0x10 build/default/production/_ext/1051272628/Abstract_bcs_io_setmode.o
 .gnu.attributes
                0x00000060       0x10 build/default/production/_ext/1051272628/Namespace_bcs_io_setmode.o
 .gnu.attributes
                0x00000070       0x10 build/default/production/_ext/1825615050/CartesianController.o
 .gnu.attributes
                0x00000080       0x10 build/default/production/_ext/1825615050/PID.o
 .gnu.attributes
                0x00000090       0x10 build/default/production/_ext/1978776677/UpstreamPackets.o
 .gnu.attributes
                0x000000a0       0x10 build/default/production/_ext/1978776677/InitializationCallbacks.o
 .gnu.attributes
                0x000000b0       0x10 build/default/production/_ext/1978776677/DownStreamPackets.o
 .gnu.attributes
                0x000000c0       0x10 build/default/production/_ext/1978776677/AsyncManager.o
 .gnu.attributes
                0x000000d0       0x10 build/default/production/_ext/2110062566/UartDMARx.o
 .gnu.attributes
                0x000000e0       0x10 build/default/production/_ext/990863823/AVRInterface.o
 .gnu.attributes
                0x000000f0       0x10 build/default/production/_ext/990863823/Switches.o
 .gnu.attributes
                0x00000100       0x10 build/default/production/_ext/990863823/DyIODataTableManager.o
 .gnu.attributes
                0x00000110       0x10 build/default/production/_ext/990863823/CoProcCom.o
 .gnu.attributes
                0x00000120       0x10 build/default/production/_ext/990863823/ADC.o
 .gnu.attributes
                0x00000130       0x10 build/default/production/_ext/990863823/Counter.o
 .gnu.attributes
                0x00000140       0x10 build/default/production/_ext/990863823/EEPROMMannager.o
 .gnu.attributes
                0x00000150       0x10 build/default/production/_ext/990863823/SerialPassThrough.o
 .gnu.attributes
                0x00000160       0x10 build/default/production/_ext/990863823/SPI.o
 .gnu.attributes
                0x00000170       0x10 build/default/production/_ext/990863823/PPMReader.o
 .gnu.attributes
                0x00000180       0x10 build/default/production/_ext/1020318379/Pin_State.o
 .gnu.attributes
                0x00000190       0x10 build/default/production/_ext/1020318379/ChannelConfig.o
 .gnu.attributes
                0x000001a0       0x10 build/default/production/_ext/1020318379/ChannelValues.o
 .gnu.attributes
                0x000001b0       0x10 build/default/production/_ext/1020318379/ChannelMode.o
 .gnu.attributes
                0x000001c0       0x10 build/default/production/_ext/1281821416/Abstract_bsc_safe.o
 .gnu.attributes
                0x000001d0       0x10 build/default/production/_ext/1281821416/Namespace_bcs_safe.o
 .gnu.attributes
                0x000001e0       0x10 build/default/production/_ext/321196743/Namespace_neuronrobotics_dyio.o
 .gnu.attributes
                0x000001f0       0x10 build/default/production/_ext/321196743/Namespace_bcs_pid_dypid.o
 .gnu.attributes
                0x00000200       0x10 build/default/production/_ext/1360937237/Main.o
 .gnu.attributes
                0x00000210       0x10 build/default/production/_ext/1360937237/DyIOMain.o
 .gnu.attributes
                0x00000220       0x10 ../../../../../c-bowler/firmware/library/NR-Clib/development/c-bowler.X/dist/default/production/c-bowler.X.a(BowlerPacketParser.o)
 .gnu.attributes
                0x00000230       0x10 ../../../../../c-bowler/firmware/library/NR-Clib/development/c-bowler.X/dist/default/production/c-bowler.X.a(Namespace_bcs_core.o)
 .gnu.attributes
                0x00000240       0x10 ../../../../../c-bowler/firmware/library/NR-Clib/development/c-bowler.X/dist/default/production/c-bowler.X.a(Bowler_Server.o)
 .gnu.attributes
                0x00000250       0x10 ../../../../../c-bowler/firmware/library/NR-Clib/development/c-bowler.X/dist/default/production/c-bowler.X.a(Debug.o)
 .gnu.attributes
                0x00000260       0x10 ../../../../../c-bowler/firmware/library/NR-Clib/development/c-bowler.X/dist/default/production/c-bowler.X.a(FIFO.o)
 .gnu.attributes
                0x00000270       0x10 ../../../../../c-bowler/firmware/library/NR-Clib/development/c-bowler.X/dist/default/production/c-bowler.X.a(Bowler_Helper.o)
 .gnu.attributes
                0x00000280       0x10 ../../../../../c-bowler/firmware/library/NR-Clib/development/c-bowler.X/dist/default/production/c-bowler.X.a(Scheduler.o)
 .gnu.attributes
                0x00000290       0x10 ../../../../../c-bowler/firmware/library/NR-Clib/development/c-bowler.X/dist/default/production/c-bowler.X.a(Namespace_bcs_pid.o)
 .gnu.attributes
                0x000002a0       0x10 ../../../../../c-bowler/firmware/library/NR-Clib/development/c-bowler.X/dist/default/production/c-bowler.X.a(AbstractPID.o)
 .gnu.attributes
                0x000002b0       0x10 ../../../../../c-bowler/firmware/library/NR-Clib/development/c-bowler.X/dist/default/production/c-bowler.X.a(usb_fifo.o)
 .gnu.attributes
                0x000002c0       0x10 ../../../../../c-bowler/firmware/library/NR-Clib/development/c-bowler.X/dist/default/production/c-bowler.X.a(usb_device.o)
 .gnu.attributes
                0x000002d0       0x10 ../../../../../c-bowler/firmware/library/NR-Clib/development/c-bowler.X/dist/default/production/c-bowler.X.a(LED.o)
 .gnu.attributes
                0x000002e0       0x10 ../../../../../c-bowler/firmware/library/NR-Clib/development/c-bowler.X/dist/default/production/c-bowler.X.a(ADC.o)
 .gnu.attributes
                0x000002f0       0x10 ../../../../../c-bowler/firmware/library/NR-Clib/development/c-bowler.X/dist/default/production/c-bowler.X.a(HAL_P32.o)
 .gnu.attributes
                0x00000300       0x10 ../../../../../c-bowler/firmware/library/NR-Clib/development/c-bowler.X/dist/default/production/c-bowler.X.a(Delay.o)
 .gnu.attributes
                0x00000310       0x10 ../../../../../c-bowler/firmware/library/NR-Clib/development/c-bowler.X/dist/default/production/c-bowler.X.a(Bowler_USB_HAL.o)
 .gnu.attributes
                0x00000320       0x10 ../../../../../c-bowler/firmware/library/NR-Clib/development/c-bowler.X/dist/default/production/c-bowler.X.a(FlashStorage.o)
 .gnu.attributes
                0x00000330       0x10 ../../../../../c-bowler/firmware/library/NR-Clib/development/c-bowler.X/dist/default/production/c-bowler.X.a(Bowler_UART_HAL.o)
 .gnu.attributes
                0x00000340       0x10 ../../../../../c-bowler/firmware/library/NR-Clib/development/c-bowler.X/dist/default/production/c-bowler.X.a(Tick.o)
 .gnu.attributes
                0x00000350       0x10 ../../../../../c-bowler/firmware/library/NR-Clib/development/c-bowler.X/dist/default/production/c-bowler.X.a(UART.o)
 .gnu.attributes
                0x00000360       0x10 ../../../../../c-bowler/firmware/library/NR-Clib/development/c-bowler.X/dist/default/production/c-bowler.X.a(Namespace_bcs_rpc.o)
 .gnu.attributes
                0x00000370       0x10 ../../../../../c-bowler/firmware/library/NR-Clib/development/c-bowler.X/dist/default/production/c-bowler.X.a(PidRpc.o)
 .gnu.attributes
                0x00000380       0x10 ../../../../../c-bowler/firmware/library/NR-Clib/development/c-bowler.X/dist/default/production/c-bowler.X.a(PidHysteresis.o)
 .gnu.attributes
                0x00000390       0x10 ../../../../../c-bowler/firmware/library/NR-Clib/development/c-bowler.X/dist/default/production/c-bowler.X.a(PidAsync.o)
 .gnu.attributes
                0x000003a0       0x10 ../../../../../c-bowler/firmware/library/NR-Clib/development/c-bowler.X/dist/default/production/c-bowler.X.a(usb_callback.o)
 .gnu.attributes
                0x000003b0       0x10 ../../../../../c-bowler/firmware/library/NR-Clib/development/c-bowler.X/dist/default/production/c-bowler.X.a(usb_function_cdc.o)
 .gnu.attributes
                0x000003c0       0x10 ../../../../../c-bowler/firmware/library/NR-Clib/development/c-bowler.X/dist/default/production/c-bowler.X.a(usb_descriptors.o)
 .gnu.attributes
                0x000003d0       0x10 ../../../../../c-bowler/firmware/library/NR-Clib/development/c-bowler.X/dist/default/production/c-bowler.X.a(PidVelocity.o)
 .gnu.attributes
                0x000003e0       0x10 /home/opt/microchip/xc32/v1.00/bin/../lib/gcc/pic32mx/4.5.1/libgcc.a(floatunsisf.o)
 .gnu.attributes
                0x000003f0       0x10 /home/opt/microchip/xc32/v1.00/bin/../lib/gcc/pic32mx/4.5.1/../../../../pic32mx/lib/libc.a(default-bootstrap-exception-handler.o)
 .gnu.attributes
                0x00000400       0x10 /home/opt/microchip/xc32/v1.00/bin/../lib/gcc/pic32mx/4.5.1/../../../../pic32mx/lib/libc.a(default-on-reset.o)
 .gnu.attributes
                0x00000410       0x10 /home/opt/microchip/xc32/v1.00/bin/../lib/gcc/pic32mx/4.5.1/../../../../pic32mx/lib/libc.a(default-on-bootstrap.o)
 .gnu.attributes
                0x00000420       0x10 /home/opt/microchip/xc32/v1.00/bin/../lib/gcc/pic32mx/4.5.1/../../../../pic32mx/lib/libmchp_peripheral_32MX440F128H.a(soft_reset_lib.o)
 .gnu.attributes
                0x00000430       0x10 /home/opt/microchip/xc32/v1.00/bin/../lib/gcc/pic32mx/4.5.1/../../../../pic32mx/lib/libmchp_peripheral_32MX440F128H.a(int_enable_interrupts_lib.o)
 .gnu.attributes
                0x00000440       0x10 /home/opt/microchip/xc32/v1.00/bin/../lib/gcc/pic32mx/4.5.1/../../../../pic32mx/lib/libmchp_peripheral_32MX440F128H.a(int_disable_interrupts_lib.o)
 .gnu.attributes
                0x00000450       0x10 /home/opt/microchip/xc32/v1.00/bin/../lib/gcc/pic32mx/4.5.1/../../../../pic32mx/lib/libmchp_peripheral_32MX440F128H.a(int_enable_mv_int_lib.o)
 .gnu.attributes
                0x00000460       0x10 /home/opt/microchip/xc32/v1.00/bin/../lib/gcc/pic32mx/4.5.1/../../../../pic32mx/lib/libmchp_peripheral_32MX440F128H.a(int_tbl_lib.o)
 .gnu.attributes
                0x00000470       0x10 /home/opt/microchip/xc32/v1.00/bin/../lib/gcc/pic32mx/4.5.1/../../../../pic32mx/lib/libmchp_peripheral_32MX440F128H.a(spi_getc_spi2_lib_legacy.o)
 .gnu.attributes
                0x00000480       0x10 /home/opt/microchip/xc32/v1.00/bin/../lib/gcc/pic32mx/4.5.1/../../../../pic32mx/lib/libmchp_peripheral_32MX440F128H.a(spi_open_spi2_lib_legacy.o)
 .gnu.attributes
                0x00000490       0x10 /home/opt/microchip/xc32/v1.00/bin/../lib/gcc/pic32mx/4.5.1/../../../../pic32mx/lib/libmchp_peripheral_32MX440F128H.a(spi_brg_tbl_lib_legacy.o)
 .gnu.attributes
                0x000004a0       0x10 /home/opt/microchip/xc32/v1.00/bin/../lib/gcc/pic32mx/4.5.1/../../../../pic32mx/lib/libmchp_peripheral_32MX440F128H.a(nvm_erase_page_lib.o)
 .gnu.attributes
                0x000004b0       0x10 /home/opt/microchip/xc32/v1.00/bin/../lib/gcc/pic32mx/4.5.1/../../../../pic32mx/lib/libmchp_peripheral_32MX440F128H.a(nvm_operation_lib.o)
 .gnu.attributes
                0x000004c0       0x10 /home/opt/microchip/xc32/v1.00/bin/../lib/gcc/pic32mx/4.5.1/../../../../pic32mx/lib/libmchp_peripheral_32MX440F128H.a(nvm_write_word_lib.o)
 .gnu.attributes
                0x000004d0       0x10 /home/opt/microchip/xc32/v1.00/bin/../lib/gcc/pic32mx/4.5.1/../../../../pic32mx/lib/libmchp_peripheral_32MX440F128H.a(port_set_pins_digital_out_lib.o)
 .gnu.attributes
                0x000004e0       0x10 /home/opt/microchip/xc32/v1.00/bin/../lib/gcc/pic32mx/4.5.1/../../../../pic32mx/lib/libmchp_peripheral_32MX440F128H.a(port_clear_bits_lib.o)
 .gnu.attributes
                0x000004f0       0x10 /home/opt/microchip/xc32/v1.00/bin/../lib/gcc/pic32mx/4.5.1/../../../../pic32mx/lib/libmchp_peripheral_32MX440F128H.a(port_set_bits_lib.o)
 .gnu.attributes
                0x00000500       0x10 /home/opt/microchip/xc32/v1.00/bin/../lib/gcc/pic32mx/4.5.1/../../../../pic32mx/lib/libmchp_peripheral_32MX440F128H.a(_ports_tbl_libp.o)
 .gnu.attributes
                0x00000510       0x10 /home/opt/microchip/xc32/v1.00/bin/../lib/gcc/pic32mx/4.5.1/../../../../pic32mx/lib/libmchp_peripheral_32MX440F128H.a(uart_lib.o)
 .gnu.attributes
                0x00000520       0x10 /home/opt/microchip/xc32/v1.00/bin/../lib/gcc/pic32mx/4.5.1/../../../../pic32mx/lib/libmchp_peripheral_32MX440F128H.a(int_restore_interrupts_lib.o)
OUTPUT(dist/default/production/DyIO.X.production.elf elf32-tradlittlemips)
LOAD stack
LOAD data_init

.stack          0xa00028c8      0x400
 .stack         0xa00028c8      0x400 stack

.bss            0xa00007f8     0x1654
 .bss           0xa00007f8      0x688 build/default/production/_ext/1825615050/PID.o
 .bss           0xa0000e80      0x458 ../../../../../c-bowler/firmware/library/NR-Clib/development/c-bowler.X/dist/default/production/c-bowler.X.a(HAL_P32.o)
 .bss           0xa00012d8      0x354 build/default/production/_ext/990863823/DyIODataTableManager.o
 .bss           0xa000162c      0x33c build/default/production/_ext/990863823/CoProcCom.o
 .bss           0xa0001968      0x330 build/default/production/_ext/108654538/PinFunctions.o
 .bss           0xa0001c98      0x1b4 build/default/production/_ext/1978776677/DownStreamPackets.o

.data           0xa0001e4c      0x328
 .data          0xa0001e4c      0x19c ../../../../../c-bowler/firmware/library/NR-Clib/development/c-bowler.X/dist/default/production/c-bowler.X.a(Namespace_bcs_pid.o)
 .data          0xa0001fe8      0x18c build/default/production/_ext/805493626/Namespace_bcs_io.o
                0xa0001fe8                ioNSName

.bss            0xa0002174      0x368
 .bss           0xa0002174      0x150 ../../../../../c-bowler/firmware/library/NR-Clib/development/c-bowler.X/dist/default/production/c-bowler.X.a(usb_fifo.o)
 .bss           0xa00022c4      0x10c build/default/production/_ext/1978776677/UpstreamPackets.o
 .bss           0xa00023d0      0x10c build/default/production/_ext/1360937237/DyIOMain.o

.data           0xa00024dc      0x1d8
 .data          0xa00024dc      0x104 ../../../../../c-bowler/firmware/library/NR-Clib/development/c-bowler.X/dist/default/production/c-bowler.X.a(usb_descriptors.o)
                0xa00024dc                device_dsc
                0xa00024f0                configDescriptor1
                0xa0002534                sd001
                0xa0002568                sd002
                0xa000259c                sd003
                0xa00025d0                USB_SD_Ptr
 .data          0xa00025e0       0xd4 build/default/production/_ext/321196743/Namespace_neuronrobotics_dyio.o
                0xa00025e0                dyioNSName

.bss            0xa00026b4       0xa0
 .bss           0xa00026b4       0xa0 build/default/production/_ext/990863823/EEPROMMannager.o

.data           0xa000036c       0x60
 .data          0xa000036c       0x60 build/default/production/_ext/1051272628/Namespace_bcs_io_setmode.o
                0xa000036c                setModeNSName

.data           0xa0002754      0x14c
 .data          0xa0002754       0x60 build/default/production/_ext/321196743/Namespace_bcs_pid_dypid.o
                0xa0002754                dypidNSName
 .data          0xa00027b4       0x5c build/default/production/_ext/1281821416/Namespace_bcs_safe.o
                0xa00027b4                safeNSName
 .data          0xa0002810       0x48 ../../../../../c-bowler/firmware/library/NR-Clib/development/c-bowler.X/dist/default/production/c-bowler.X.a(Namespace_bcs_core.o)
 .data          0xa0002858       0x48 ../../../../../c-bowler/firmware/library/NR-Clib/development/c-bowler.X/dist/default/production/c-bowler.X.a(Namespace_bcs_rpc.o)

.data           0xa00003cc       0x18
 .data          0xa00003cc       0x18 build/default/production/_ext/990863823/PPMReader.o

.bss            0xa00003e4       0x18
 .bss           0xa00003e4       0x18 build/default/production/_ext/990863823/PPMReader.o

.data           0xa00028a0        0xc
 .data          0xa00028a0        0xc build/default/production/_ext/990863823/Counter.o
                0xa00028a0                pinmap

.mdebug.abi32%z1
                0x00000000        0x0
 .mdebug.abi32  0x00000000        0x0 /home/opt/microchip/xc32/v1.00/bin/../lib/gcc/pic32mx/4.5.1/../../../../pic32mx/lib/libmchp_peripheral_32MX440F128H.a(int_restore_interrupts_lib.o)

.bss%z2         0x00000000        0x0
 .bss           0x00000000        0x0 /home/opt/microchip/xc32/v1.00/bin/../lib/gcc/pic32mx/4.5.1/../../../../pic32mx/lib/libmchp_peripheral_32MX440F128H.a(int_restore_interrupts_lib.o)

.data%z3        0x00000000        0x0
 .data          0x00000000        0x0 /home/opt/microchip/xc32/v1.00/bin/../lib/gcc/pic32mx/4.5.1/../../../../pic32mx/lib/libmchp_peripheral_32MX440F128H.a(int_restore_interrupts_lib.o)

.mdebug.abi32%z4
                0x00000000        0x0
 .mdebug.abi32  0x00000000        0x0 /home/opt/microchip/xc32/v1.00/bin/../lib/gcc/pic32mx/4.5.1/../../../../pic32mx/lib/libmchp_peripheral_32MX440F128H.a(uart_lib.o)

.bss%z5         0x00000000        0x0
 .bss           0x00000000        0x0 /home/opt/microchip/xc32/v1.00/bin/../lib/gcc/pic32mx/4.5.1/../../../../pic32mx/lib/libmchp_peripheral_32MX440F128H.a(uart_lib.o)

.data%z6        0x00000000        0x0
 .data          0x00000000        0x0 /home/opt/microchip/xc32/v1.00/bin/../lib/gcc/pic32mx/4.5.1/../../../../pic32mx/lib/libmchp_peripheral_32MX440F128H.a(uart_lib.o)

.mdebug.abi32%z7
                0x00000000        0x0
 .mdebug.abi32  0x00000000        0x0 /home/opt/microchip/xc32/v1.00/bin/../lib/gcc/pic32mx/4.5.1/../../../../pic32mx/lib/libmchp_peripheral_32MX440F128H.a(_ports_tbl_libp.o)

.bss%z8         0x00000000        0x0
 .bss           0x00000000        0x0 /home/opt/microchip/xc32/v1.00/bin/../lib/gcc/pic32mx/4.5.1/../../../../pic32mx/lib/libmchp_peripheral_32MX440F128H.a(_ports_tbl_libp.o)

.data%z9        0x00000000        0x0
 .data          0x00000000        0x0 /home/opt/microchip/xc32/v1.00/bin/../lib/gcc/pic32mx/4.5.1/../../../../pic32mx/lib/libmchp_peripheral_32MX440F128H.a(_ports_tbl_libp.o)

.mdebug.abi32%z10
                0x00000000        0x0
 .mdebug.abi32  0x00000000        0x0 /home/opt/microchip/xc32/v1.00/bin/../lib/gcc/pic32mx/4.5.1/../../../../pic32mx/lib/libmchp_peripheral_32MX440F128H.a(port_set_bits_lib.o)

.bss%z11        0x00000000        0x0
 .bss           0x00000000        0x0 /home/opt/microchip/xc32/v1.00/bin/../lib/gcc/pic32mx/4.5.1/../../../../pic32mx/lib/libmchp_peripheral_32MX440F128H.a(port_set_bits_lib.o)

.data%z12       0x00000000        0x0
 .data          0x00000000        0x0 /home/opt/microchip/xc32/v1.00/bin/../lib/gcc/pic32mx/4.5.1/../../../../pic32mx/lib/libmchp_peripheral_32MX440F128H.a(port_set_bits_lib.o)

.mdebug.abi32%z13
                0x00000000        0x0
 .mdebug.abi32  0x00000000        0x0 /home/opt/microchip/xc32/v1.00/bin/../lib/gcc/pic32mx/4.5.1/../../../../pic32mx/lib/libmchp_peripheral_32MX440F128H.a(port_clear_bits_lib.o)

.bss%z14        0x00000000        0x0
 .bss           0x00000000        0x0 /home/opt/microchip/xc32/v1.00/bin/../lib/gcc/pic32mx/4.5.1/../../../../pic32mx/lib/libmchp_peripheral_32MX440F128H.a(port_clear_bits_lib.o)

.data%z15       0x00000000        0x0
 .data          0x00000000        0x0 /home/opt/microchip/xc32/v1.00/bin/../lib/gcc/pic32mx/4.5.1/../../../../pic32mx/lib/libmchp_peripheral_32MX440F128H.a(port_clear_bits_lib.o)

.mdebug.abi32%z16
                0x00000000        0x0
 .mdebug.abi32  0x00000000        0x0 /home/opt/microchip/xc32/v1.00/bin/../lib/gcc/pic32mx/4.5.1/../../../../pic32mx/lib/libmchp_peripheral_32MX440F128H.a(port_set_pins_digital_out_lib.o)

.bss%z17        0x00000000        0x0
 .bss           0x00000000        0x0 /home/opt/microchip/xc32/v1.00/bin/../lib/gcc/pic32mx/4.5.1/../../../../pic32mx/lib/libmchp_peripheral_32MX440F128H.a(port_set_pins_digital_out_lib.o)

.data%z18       0x00000000        0x0
 .data          0x00000000        0x0 /home/opt/microchip/xc32/v1.00/bin/../lib/gcc/pic32mx/4.5.1/../../../../pic32mx/lib/libmchp_peripheral_32MX440F128H.a(port_set_pins_digital_out_lib.o)

.mdebug.abi32%z19
                0x00000000        0x0
 .mdebug.abi32  0x00000000        0x0 /home/opt/microchip/xc32/v1.00/bin/../lib/gcc/pic32mx/4.5.1/../../../../pic32mx/lib/libmchp_peripheral_32MX440F128H.a(nvm_write_word_lib.o)

.bss%z20        0x00000000        0x0
 .bss           0x00000000        0x0 /home/opt/microchip/xc32/v1.00/bin/../lib/gcc/pic32mx/4.5.1/../../../../pic32mx/lib/libmchp_peripheral_32MX440F128H.a(nvm_write_word_lib.o)

.data%z21       0x00000000        0x0
 .data          0x00000000        0x0 /home/opt/microchip/xc32/v1.00/bin/../lib/gcc/pic32mx/4.5.1/../../../../pic32mx/lib/libmchp_peripheral_32MX440F128H.a(nvm_write_word_lib.o)

.mdebug.abi32%z22
                0x00000000        0x0
 .mdebug.abi32  0x00000000        0x0 /home/opt/microchip/xc32/v1.00/bin/../lib/gcc/pic32mx/4.5.1/../../../../pic32mx/lib/libmchp_peripheral_32MX440F128H.a(nvm_operation_lib.o)

.bss%z23        0x00000000        0x0
 .bss           0x00000000        0x0 /home/opt/microchip/xc32/v1.00/bin/../lib/gcc/pic32mx/4.5.1/../../../../pic32mx/lib/libmchp_peripheral_32MX440F128H.a(nvm_operation_lib.o)

.data%z24       0x00000000        0x0
 .data          0x00000000        0x0 /home/opt/microchip/xc32/v1.00/bin/../lib/gcc/pic32mx/4.5.1/../../../../pic32mx/lib/libmchp_peripheral_32MX440F128H.a(nvm_operation_lib.o)

.mdebug.abi32%z25
                0x00000000        0x0
 .mdebug.abi32  0x00000000        0x0 /home/opt/microchip/xc32/v1.00/bin/../lib/gcc/pic32mx/4.5.1/../../../../pic32mx/lib/libmchp_peripheral_32MX440F128H.a(nvm_erase_page_lib.o)

.bss%z26        0x00000000        0x0
 .bss           0x00000000        0x0 /home/opt/microchip/xc32/v1.00/bin/../lib/gcc/pic32mx/4.5.1/../../../../pic32mx/lib/libmchp_peripheral_32MX440F128H.a(nvm_erase_page_lib.o)

.data%z27       0x00000000        0x0
 .data          0x00000000        0x0 /home/opt/microchip/xc32/v1.00/bin/../lib/gcc/pic32mx/4.5.1/../../../../pic32mx/lib/libmchp_peripheral_32MX440F128H.a(nvm_erase_page_lib.o)

.mdebug.abi32%z28
                0x00000000        0x0
 .mdebug.abi32  0x00000000        0x0 /home/opt/microchip/xc32/v1.00/bin/../lib/gcc/pic32mx/4.5.1/../../../../pic32mx/lib/libmchp_peripheral_32MX440F128H.a(spi_brg_tbl_lib_legacy.o)

.bss%z29        0x00000000        0x0
 .bss           0x00000000        0x0 /home/opt/microchip/xc32/v1.00/bin/../lib/gcc/pic32mx/4.5.1/../../../../pic32mx/lib/libmchp_peripheral_32MX440F128H.a(spi_brg_tbl_lib_legacy.o)

.data%z30       0x00000000        0x0
 .data          0x00000000        0x0 /home/opt/microchip/xc32/v1.00/bin/../lib/gcc/pic32mx/4.5.1/../../../../pic32mx/lib/libmchp_peripheral_32MX440F128H.a(spi_brg_tbl_lib_legacy.o)

.mdebug.abi32%z31
                0x00000000        0x0
 .mdebug.abi32  0x00000000        0x0 /home/opt/microchip/xc32/v1.00/bin/../lib/gcc/pic32mx/4.5.1/../../../../pic32mx/lib/libmchp_peripheral_32MX440F128H.a(spi_open_spi2_lib_legacy.o)

.bss%z32        0x00000000        0x0
 .bss           0x00000000        0x0 /home/opt/microchip/xc32/v1.00/bin/../lib/gcc/pic32mx/4.5.1/../../../../pic32mx/lib/libmchp_peripheral_32MX440F128H.a(spi_open_spi2_lib_legacy.o)

.data%z33       0x00000000        0x0
 .data          0x00000000        0x0 /home/opt/microchip/xc32/v1.00/bin/../lib/gcc/pic32mx/4.5.1/../../../../pic32mx/lib/libmchp_peripheral_32MX440F128H.a(spi_open_spi2_lib_legacy.o)

.mdebug.abi32%z34
                0x00000000        0x0
 .mdebug.abi32  0x00000000        0x0 /home/opt/microchip/xc32/v1.00/bin/../lib/gcc/pic32mx/4.5.1/../../../../pic32mx/lib/libmchp_peripheral_32MX440F128H.a(spi_getc_spi2_lib_legacy.o)

.bss%z35        0x00000000        0x0
 .bss           0x00000000        0x0 /home/opt/microchip/xc32/v1.00/bin/../lib/gcc/pic32mx/4.5.1/../../../../pic32mx/lib/libmchp_peripheral_32MX440F128H.a(spi_getc_spi2_lib_legacy.o)

.data%z36       0x00000000        0x0
 .data          0x00000000        0x0 /home/opt/microchip/xc32/v1.00/bin/../lib/gcc/pic32mx/4.5.1/../../../../pic32mx/lib/libmchp_peripheral_32MX440F128H.a(spi_getc_spi2_lib_legacy.o)

.mdebug.abi32%z37
                0x00000000        0x0
 .mdebug.abi32  0x00000000        0x0 /home/opt/microchip/xc32/v1.00/bin/../lib/gcc/pic32mx/4.5.1/../../../../pic32mx/lib/libmchp_peripheral_32MX440F128H.a(int_tbl_lib.o)

.bss%z38        0x00000000        0x0
 .bss           0x00000000        0x0 /home/opt/microchip/xc32/v1.00/bin/../lib/gcc/pic32mx/4.5.1/../../../../pic32mx/lib/libmchp_peripheral_32MX440F128H.a(int_tbl_lib.o)

.data%z39       0x00000000        0x0
 .data          0x00000000        0x0 /home/opt/microchip/xc32/v1.00/bin/../lib/gcc/pic32mx/4.5.1/../../../../pic32mx/lib/libmchp_peripheral_32MX440F128H.a(int_tbl_lib.o)

.mdebug.abi32%z40
                0x00000000        0x0
 .mdebug.abi32  0x00000000        0x0 /home/opt/microchip/xc32/v1.00/bin/../lib/gcc/pic32mx/4.5.1/../../../../pic32mx/lib/libmchp_peripheral_32MX440F128H.a(int_enable_mv_int_lib.o)

.bss%z41        0x00000000        0x0
 .bss           0x00000000        0x0 /home/opt/microchip/xc32/v1.00/bin/../lib/gcc/pic32mx/4.5.1/../../../../pic32mx/lib/libmchp_peripheral_32MX440F128H.a(int_enable_mv_int_lib.o)

.data%z42       0x00000000        0x0
 .data          0x00000000        0x0 /home/opt/microchip/xc32/v1.00/bin/../lib/gcc/pic32mx/4.5.1/../../../../pic32mx/lib/libmchp_peripheral_32MX440F128H.a(int_enable_mv_int_lib.o)

.mdebug.abi32%z43
                0x00000000        0x0
 .mdebug.abi32  0x00000000        0x0 /home/opt/microchip/xc32/v1.00/bin/../lib/gcc/pic32mx/4.5.1/../../../../pic32mx/lib/libmchp_peripheral_32MX440F128H.a(int_disable_interrupts_lib.o)

.bss%z44        0x00000000        0x0
 .bss           0x00000000        0x0 /home/opt/microchip/xc32/v1.00/bin/../lib/gcc/pic32mx/4.5.1/../../../../pic32mx/lib/libmchp_peripheral_32MX440F128H.a(int_disable_interrupts_lib.o)

.data%z45       0x00000000        0x0
 .data          0x00000000        0x0 /home/opt/microchip/xc32/v1.00/bin/../lib/gcc/pic32mx/4.5.1/../../../../pic32mx/lib/libmchp_peripheral_32MX440F128H.a(int_disable_interrupts_lib.o)

.mdebug.abi32%z46
                0x00000000        0x0
 .mdebug.abi32  0x00000000        0x0 /home/opt/microchip/xc32/v1.00/bin/../lib/gcc/pic32mx/4.5.1/../../../../pic32mx/lib/libmchp_peripheral_32MX440F128H.a(int_enable_interrupts_lib.o)

.bss%z47        0x00000000        0x0
 .bss           0x00000000        0x0 /home/opt/microchip/xc32/v1.00/bin/../lib/gcc/pic32mx/4.5.1/../../../../pic32mx/lib/libmchp_peripheral_32MX440F128H.a(int_enable_interrupts_lib.o)

.data%z48       0x00000000        0x0
 .data          0x00000000        0x0 /home/opt/microchip/xc32/v1.00/bin/../lib/gcc/pic32mx/4.5.1/../../../../pic32mx/lib/libmchp_peripheral_32MX440F128H.a(int_enable_interrupts_lib.o)

.mdebug.abi32%z49
                0x00000000        0x0
 .mdebug.abi32  0x00000000        0x0 /home/opt/microchip/xc32/v1.00/bin/../lib/gcc/pic32mx/4.5.1/../../../../pic32mx/lib/libmchp_peripheral_32MX440F128H.a(soft_reset_lib.o)

.bss%z50        0x00000000        0x0
 .bss           0x00000000        0x0 /home/opt/microchip/xc32/v1.00/bin/../lib/gcc/pic32mx/4.5.1/../../../../pic32mx/lib/libmchp_peripheral_32MX440F128H.a(soft_reset_lib.o)

.data%z51       0x00000000        0x0
 .data          0x00000000        0x0 /home/opt/microchip/xc32/v1.00/bin/../lib/gcc/pic32mx/4.5.1/../../../../pic32mx/lib/libmchp_peripheral_32MX440F128H.a(soft_reset_lib.o)

.bss%z52        0x00000000        0x0
 .bss           0x00000000        0x0 /home/opt/microchip/xc32/v1.00/bin/../lib/gcc/pic32mx/4.5.1/../../../../pic32mx/lib/./proc/32MX440F128H/processor.o

.data%z53       0x00000000        0x0
 .data          0x00000000        0x0 /home/opt/microchip/xc32/v1.00/bin/../lib/gcc/pic32mx/4.5.1/../../../../pic32mx/lib/./proc/32MX440F128H/processor.o

.bss%z54        0x00000000        0x0
 .bss           0x00000000        0x0 /home/opt/microchip/xc32/v1.00/bin/../lib/gcc/pic32mx/4.5.1/../../../../pic32mx/lib/libm.a(fp32.o)

.data%z55       0x00000000        0x0
 .data          0x00000000        0x0 /home/opt/microchip/xc32/v1.00/bin/../lib/gcc/pic32mx/4.5.1/../../../../pic32mx/lib/libm.a(fp32.o)

.bss%z56        0x00000000        0x0
 .bss           0x00000000        0x0 /home/opt/microchip/xc32/v1.00/bin/../lib/gcc/pic32mx/4.5.1/../../../../pic32mx/lib/libc.a(default-nmi-handler.o)

.data%z57       0x00000000        0x0
 .data          0x00000000        0x0 /home/opt/microchip/xc32/v1.00/bin/../lib/gcc/pic32mx/4.5.1/../../../../pic32mx/lib/libc.a(default-nmi-handler.o)

.mdebug.abi32%z58
                0x00000000        0x0
 .mdebug.abi32  0x00000000        0x0 /home/opt/microchip/xc32/v1.00/bin/../lib/gcc/pic32mx/4.5.1/../../../../pic32mx/lib/libc.a(default-on-bootstrap.o)

.bss%z59        0x00000000        0x0
 .bss           0x00000000        0x0 /home/opt/microchip/xc32/v1.00/bin/../lib/gcc/pic32mx/4.5.1/../../../../pic32mx/lib/libc.a(default-on-bootstrap.o)

.data%z60       0x00000000        0x0
 .data          0x00000000        0x0 /home/opt/microchip/xc32/v1.00/bin/../lib/gcc/pic32mx/4.5.1/../../../../pic32mx/lib/libc.a(default-on-bootstrap.o)

.mdebug.abi32%z61
                0x00000000        0x0
 .mdebug.abi32  0x00000000        0x0 /home/opt/microchip/xc32/v1.00/bin/../lib/gcc/pic32mx/4.5.1/../../../../pic32mx/lib/libc.a(default-on-reset.o)

.bss%z62        0x00000000        0x0
 .bss           0x00000000        0x0 /home/opt/microchip/xc32/v1.00/bin/../lib/gcc/pic32mx/4.5.1/../../../../pic32mx/lib/libc.a(default-on-reset.o)

.data%z63       0x00000000        0x0
 .data          0x00000000        0x0 /home/opt/microchip/xc32/v1.00/bin/../lib/gcc/pic32mx/4.5.1/../../../../pic32mx/lib/libc.a(default-on-reset.o)

.mdebug.abi32%z64
                0x00000000        0x0
 .mdebug.abi32  0x00000000        0x0 /home/opt/microchip/xc32/v1.00/bin/../lib/gcc/pic32mx/4.5.1/../../../../pic32mx/lib/libc.a(default-bootstrap-exception-handler.o)

.bss%z65        0x00000000        0x0
 .bss           0x00000000        0x0 /home/opt/microchip/xc32/v1.00/bin/../lib/gcc/pic32mx/4.5.1/../../../../pic32mx/lib/libc.a(default-bootstrap-exception-handler.o)

.data%z66       0x00000000        0x0
 .data          0x00000000        0x0 /home/opt/microchip/xc32/v1.00/bin/../lib/gcc/pic32mx/4.5.1/../../../../pic32mx/lib/libc.a(default-bootstrap-exception-handler.o)

.bss%z67        0x00000000        0x0
 .bss           0x00000000        0x0 /home/opt/microchip/xc32/v1.00/bin/../lib/gcc/pic32mx/4.5.1/../../../../pic32mx/lib/libc.a(general-exception.o)

.data%z68       0x00000000        0x0
 .data          0x00000000        0x0 /home/opt/microchip/xc32/v1.00/bin/../lib/gcc/pic32mx/4.5.1/../../../../pic32mx/lib/libc.a(general-exception.o)

.bss%z69        0x00000000        0x0
 .bss           0x00000000        0x0 /home/opt/microchip/xc32/v1.00/bin/../lib/gcc/pic32mx/4.5.1/../../../../pic32mx/lib/libc.a(memcpy.o)

.data%z70       0x00000000        0x0
 .data          0x00000000        0x0 /home/opt/microchip/xc32/v1.00/bin/../lib/gcc/pic32mx/4.5.1/../../../../pic32mx/lib/libc.a(memcpy.o)

.mdebug.abi32%z71
                0x00000000        0x0
 .mdebug.abi32  0x00000000        0x0 /home/opt/microchip/xc32/v1.00/bin/../lib/gcc/pic32mx/4.5.1/libgcc.a(floatunsisf.o)

.bss%z72        0x00000000        0x0
 .bss           0x00000000        0x0 /home/opt/microchip/xc32/v1.00/bin/../lib/gcc/pic32mx/4.5.1/libgcc.a(floatunsisf.o)

.data%z73       0x00000000        0x0
 .data          0x00000000        0x0 /home/opt/microchip/xc32/v1.00/bin/../lib/gcc/pic32mx/4.5.1/libgcc.a(floatunsisf.o)

.mdebug.abi32%z74
                0x00000000        0x0
 .mdebug.abi32  0x00000000        0x0 ../../../../../c-bowler/firmware/library/NR-Clib/development/c-bowler.X/dist/default/production/c-bowler.X.a(PidVelocity.o)

.bss%z75        0x00000000        0x0
 .bss           0x00000000        0x0 ../../../../../c-bowler/firmware/library/NR-Clib/development/c-bowler.X/dist/default/production/c-bowler.X.a(PidVelocity.o)

.data%z76       0x00000000        0x0
 .data          0x00000000        0x0 ../../../../../c-bowler/firmware/library/NR-Clib/development/c-bowler.X/dist/default/production/c-bowler.X.a(PidVelocity.o)

.mdebug.abi32%z77
                0x00000000        0x0
 .mdebug.abi32  0x00000000        0x0 ../../../../../c-bowler/firmware/library/NR-Clib/development/c-bowler.X/dist/default/production/c-bowler.X.a(usb_descriptors.o)

.bss%z78        0x00000000        0x0
 .bss           0x00000000        0x0 ../../../../../c-bowler/firmware/library/NR-Clib/development/c-bowler.X/dist/default/production/c-bowler.X.a(usb_descriptors.o)

.mdebug.abi32%z79
                0x00000000        0x0
 .mdebug.abi32  0x00000000        0x0 ../../../../../c-bowler/firmware/library/NR-Clib/development/c-bowler.X/dist/default/production/c-bowler.X.a(usb_function_cdc.o)

.bss%z80        0x00000000        0x0
 .bss           0x00000000        0x0 ../../../../../c-bowler/firmware/library/NR-Clib/development/c-bowler.X/dist/default/production/c-bowler.X.a(usb_function_cdc.o)

.data%z81       0x00000000        0x0
 .data          0x00000000        0x0 ../../../../../c-bowler/firmware/library/NR-Clib/development/c-bowler.X/dist/default/production/c-bowler.X.a(usb_function_cdc.o)

.mdebug.abi32%z82
                0x00000000        0x0
 .mdebug.abi32  0x00000000        0x0 ../../../../../c-bowler/firmware/library/NR-Clib/development/c-bowler.X/dist/default/production/c-bowler.X.a(usb_callback.o)

.bss%z83        0x00000000        0x0
 .bss           0x00000000        0x0 ../../../../../c-bowler/firmware/library/NR-Clib/development/c-bowler.X/dist/default/production/c-bowler.X.a(usb_callback.o)

.data%z84       0x00000000        0x0
 .data          0x00000000        0x0 ../../../../../c-bowler/firmware/library/NR-Clib/development/c-bowler.X/dist/default/production/c-bowler.X.a(usb_callback.o)

.mdebug.abi32%z85
                0x00000000        0x0
 .mdebug.abi32  0x00000000        0x0 ../../../../../c-bowler/firmware/library/NR-Clib/development/c-bowler.X/dist/default/production/c-bowler.X.a(PidAsync.o)

.bss%z86        0x00000000        0x0
 .bss           0x00000000        0x0 ../../../../../c-bowler/firmware/library/NR-Clib/development/c-bowler.X/dist/default/production/c-bowler.X.a(PidAsync.o)

.data%z87       0x00000000        0x0
 .data          0x00000000        0x0 ../../../../../c-bowler/firmware/library/NR-Clib/development/c-bowler.X/dist/default/production/c-bowler.X.a(PidAsync.o)

.mdebug.abi32%z88
                0x00000000        0x0
 .mdebug.abi32  0x00000000        0x0 ../../../../../c-bowler/firmware/library/NR-Clib/development/c-bowler.X/dist/default/production/c-bowler.X.a(PidHysteresis.o)

.bss%z89        0x00000000        0x0
 .bss           0x00000000        0x0 ../../../../../c-bowler/firmware/library/NR-Clib/development/c-bowler.X/dist/default/production/c-bowler.X.a(PidHysteresis.o)

.data%z90       0x00000000        0x0
 .data          0x00000000        0x0 ../../../../../c-bowler/firmware/library/NR-Clib/development/c-bowler.X/dist/default/production/c-bowler.X.a(PidHysteresis.o)

.mdebug.abi32%z91
                0x00000000        0x0
 .mdebug.abi32  0x00000000        0x0 ../../../../../c-bowler/firmware/library/NR-Clib/development/c-bowler.X/dist/default/production/c-bowler.X.a(PidRpc.o)

.bss%z92        0x00000000        0x0
 .bss           0x00000000        0x0 ../../../../../c-bowler/firmware/library/NR-Clib/development/c-bowler.X/dist/default/production/c-bowler.X.a(PidRpc.o)

.data%z93       0x00000000        0x0
 .data          0x00000000        0x0 ../../../../../c-bowler/firmware/library/NR-Clib/development/c-bowler.X/dist/default/production/c-bowler.X.a(PidRpc.o)

.mdebug.abi32%z94
                0x00000000        0x0
 .mdebug.abi32  0x00000000        0x0 ../../../../../c-bowler/firmware/library/NR-Clib/development/c-bowler.X/dist/default/production/c-bowler.X.a(Namespace_bcs_rpc.o)

.bss%z95        0x00000000        0x0
 .bss           0x00000000        0x0 ../../../../../c-bowler/firmware/library/NR-Clib/development/c-bowler.X/dist/default/production/c-bowler.X.a(Namespace_bcs_rpc.o)

.mdebug.abi32%z96
                0x00000000        0x0
 .mdebug.abi32  0x00000000        0x0 ../../../../../c-bowler/firmware/library/NR-Clib/development/c-bowler.X/dist/default/production/c-bowler.X.a(UART.o)

.bss%z97        0x00000000        0x0
 .bss           0x00000000        0x0 ../../../../../c-bowler/firmware/library/NR-Clib/development/c-bowler.X/dist/default/production/c-bowler.X.a(UART.o)

.data%z98       0x00000000        0x0
 .data          0x00000000        0x0 ../../../../../c-bowler/firmware/library/NR-Clib/development/c-bowler.X/dist/default/production/c-bowler.X.a(UART.o)

.mdebug.abi32%z99
                0x00000000        0x0
 .mdebug.abi32  0x00000000        0x0 ../../../../../c-bowler/firmware/library/NR-Clib/development/c-bowler.X/dist/default/production/c-bowler.X.a(Tick.o)

.bss%z100       0x00000000        0x0
 .bss           0x00000000        0x0 ../../../../../c-bowler/firmware/library/NR-Clib/development/c-bowler.X/dist/default/production/c-bowler.X.a(Tick.o)

.data%z101      0x00000000        0x0
 .data          0x00000000        0x0 ../../../../../c-bowler/firmware/library/NR-Clib/development/c-bowler.X/dist/default/production/c-bowler.X.a(Tick.o)

.mdebug.abi32%z102
                0x00000000        0x0
 .mdebug.abi32  0x00000000        0x0 ../../../../../c-bowler/firmware/library/NR-Clib/development/c-bowler.X/dist/default/production/c-bowler.X.a(Bowler_UART_HAL.o)

.bss%z103       0x00000000        0x0
 .bss           0x00000000        0x0 ../../../../../c-bowler/firmware/library/NR-Clib/development/c-bowler.X/dist/default/production/c-bowler.X.a(Bowler_UART_HAL.o)

.data%z104      0x00000000        0x0
 .data          0x00000000        0x0 ../../../../../c-bowler/firmware/library/NR-Clib/development/c-bowler.X/dist/default/production/c-bowler.X.a(Bowler_UART_HAL.o)

.mdebug.abi32%z105
                0x00000000        0x0
 .mdebug.abi32  0x00000000        0x0 ../../../../../c-bowler/firmware/library/NR-Clib/development/c-bowler.X/dist/default/production/c-bowler.X.a(FlashStorage.o)

.bss%z106       0x00000000        0x0
 .bss           0x00000000        0x0 ../../../../../c-bowler/firmware/library/NR-Clib/development/c-bowler.X/dist/default/production/c-bowler.X.a(FlashStorage.o)

.data%z107      0x00000000        0x0
 .data          0x00000000        0x0 ../../../../../c-bowler/firmware/library/NR-Clib/development/c-bowler.X/dist/default/production/c-bowler.X.a(FlashStorage.o)

.mdebug.abi32%z108
                0x00000000        0x0
 .mdebug.abi32  0x00000000        0x0 ../../../../../c-bowler/firmware/library/NR-Clib/development/c-bowler.X/dist/default/production/c-bowler.X.a(Bowler_USB_HAL.o)

.bss%z109       0x00000000        0x0
 .bss           0x00000000        0x0 ../../../../../c-bowler/firmware/library/NR-Clib/development/c-bowler.X/dist/default/production/c-bowler.X.a(Bowler_USB_HAL.o)

.data%z110      0x00000000        0x0
 .data          0x00000000        0x0 ../../../../../c-bowler/firmware/library/NR-Clib/development/c-bowler.X/dist/default/production/c-bowler.X.a(Bowler_USB_HAL.o)

.mdebug.abi32%z111
                0x00000000        0x0
 .mdebug.abi32  0x00000000        0x0 ../../../../../c-bowler/firmware/library/NR-Clib/development/c-bowler.X/dist/default/production/c-bowler.X.a(Delay.o)

.bss%z112       0x00000000        0x0
 .bss           0x00000000        0x0 ../../../../../c-bowler/firmware/library/NR-Clib/development/c-bowler.X/dist/default/production/c-bowler.X.a(Delay.o)

.data%z113      0x00000000        0x0
 .data          0x00000000        0x0 ../../../../../c-bowler/firmware/library/NR-Clib/development/c-bowler.X/dist/default/production/c-bowler.X.a(Delay.o)

.mdebug.abi32%z114
                0x00000000        0x0
 .mdebug.abi32  0x00000000        0x0 ../../../../../c-bowler/firmware/library/NR-Clib/development/c-bowler.X/dist/default/production/c-bowler.X.a(HAL_P32.o)

.data%z115      0x00000000        0x0
 .data          0x00000000        0x0 ../../../../../c-bowler/firmware/library/NR-Clib/development/c-bowler.X/dist/default/production/c-bowler.X.a(HAL_P32.o)

.mdebug.abi32%z116
                0x00000000        0x0
 .mdebug.abi32  0x00000000        0x0 ../../../../../c-bowler/firmware/library/NR-Clib/development/c-bowler.X/dist/default/production/c-bowler.X.a(ADC.o)

.bss%z117       0x00000000        0x0
 .bss           0x00000000        0x0 ../../../../../c-bowler/firmware/library/NR-Clib/development/c-bowler.X/dist/default/production/c-bowler.X.a(ADC.o)

.data%z118      0x00000000        0x0
 .data          0x00000000        0x0 ../../../../../c-bowler/firmware/library/NR-Clib/development/c-bowler.X/dist/default/production/c-bowler.X.a(ADC.o)

.mdebug.abi32%z119
                0x00000000        0x0
 .mdebug.abi32  0x00000000        0x0 ../../../../../c-bowler/firmware/library/NR-Clib/development/c-bowler.X/dist/default/production/c-bowler.X.a(LED.o)

.bss%z120       0x00000000        0x0
 .bss           0x00000000        0x0 ../../../../../c-bowler/firmware/library/NR-Clib/development/c-bowler.X/dist/default/production/c-bowler.X.a(LED.o)

.data%z121      0x00000000        0x0
 .data          0x00000000        0x0 ../../../../../c-bowler/firmware/library/NR-Clib/development/c-bowler.X/dist/default/production/c-bowler.X.a(LED.o)

.mdebug.abi32%z122
                0x00000000        0x0
 .mdebug.abi32  0x00000000        0x0 ../../../../../c-bowler/firmware/library/NR-Clib/development/c-bowler.X/dist/default/production/c-bowler.X.a(usb_device.o)

.bss%z123       0x00000000        0x0
 .bss           0x00000000        0x0 ../../../../../c-bowler/firmware/library/NR-Clib/development/c-bowler.X/dist/default/production/c-bowler.X.a(usb_device.o)

.data%z124      0x00000000        0x0
 .data          0x00000000        0x0 ../../../../../c-bowler/firmware/library/NR-Clib/development/c-bowler.X/dist/default/production/c-bowler.X.a(usb_device.o)

.mdebug.abi32%z125
                0x00000000        0x0
 .mdebug.abi32  0x00000000        0x0 ../../../../../c-bowler/firmware/library/NR-Clib/development/c-bowler.X/dist/default/production/c-bowler.X.a(usb_fifo.o)

.data%z126      0x00000000        0x0
 .data          0x00000000        0x0 ../../../../../c-bowler/firmware/library/NR-Clib/development/c-bowler.X/dist/default/production/c-bowler.X.a(usb_fifo.o)

.mdebug.abi32%z127
                0x00000000        0x0
 .mdebug.abi32  0x00000000        0x0 ../../../../../c-bowler/firmware/library/NR-Clib/development/c-bowler.X/dist/default/production/c-bowler.X.a(AbstractPID.o)

.bss%z128       0x00000000        0x0
 .bss           0x00000000        0x0 ../../../../../c-bowler/firmware/library/NR-Clib/development/c-bowler.X/dist/default/production/c-bowler.X.a(AbstractPID.o)

.data%z129      0x00000000        0x0
 .data          0x00000000        0x0 ../../../../../c-bowler/firmware/library/NR-Clib/development/c-bowler.X/dist/default/production/c-bowler.X.a(AbstractPID.o)

.mdebug.abi32%z130
                0x00000000        0x0
 .mdebug.abi32  0x00000000        0x0 ../../../../../c-bowler/firmware/library/NR-Clib/development/c-bowler.X/dist/default/production/c-bowler.X.a(Namespace_bcs_pid.o)

.bss%z131       0x00000000        0x0
 .bss           0x00000000        0x0 ../../../../../c-bowler/firmware/library/NR-Clib/development/c-bowler.X/dist/default/production/c-bowler.X.a(Namespace_bcs_pid.o)

.mdebug.abi32%z132
                0x00000000        0x0
 .mdebug.abi32  0x00000000        0x0 ../../../../../c-bowler/firmware/library/NR-Clib/development/c-bowler.X/dist/default/production/c-bowler.X.a(Scheduler.o)

.bss%z133       0x00000000        0x0
 .bss           0x00000000        0x0 ../../../../../c-bowler/firmware/library/NR-Clib/development/c-bowler.X/dist/default/production/c-bowler.X.a(Scheduler.o)

.data%z134      0x00000000        0x0
 .data          0x00000000        0x0 ../../../../../c-bowler/firmware/library/NR-Clib/development/c-bowler.X/dist/default/production/c-bowler.X.a(Scheduler.o)

.mdebug.abi32%z135
                0x00000000        0x0
 .mdebug.abi32  0x00000000        0x0 ../../../../../c-bowler/firmware/library/NR-Clib/development/c-bowler.X/dist/default/production/c-bowler.X.a(Bowler_Helper.o)

.bss%z136       0x00000000        0x0
 .bss           0x00000000        0x0 ../../../../../c-bowler/firmware/library/NR-Clib/development/c-bowler.X/dist/default/production/c-bowler.X.a(Bowler_Helper.o)

.data%z137      0x00000000        0x0
 .data          0x00000000        0x0 ../../../../../c-bowler/firmware/library/NR-Clib/development/c-bowler.X/dist/default/production/c-bowler.X.a(Bowler_Helper.o)

.mdebug.abi32%z138
                0x00000000        0x0
 .mdebug.abi32  0x00000000        0x0 ../../../../../c-bowler/firmware/library/NR-Clib/development/c-bowler.X/dist/default/production/c-bowler.X.a(FIFO.o)

.bss%z139       0x00000000        0x0
 .bss           0x00000000        0x0 ../../../../../c-bowler/firmware/library/NR-Clib/development/c-bowler.X/dist/default/production/c-bowler.X.a(FIFO.o)

.data%z140      0x00000000        0x0
 .data          0x00000000        0x0 ../../../../../c-bowler/firmware/library/NR-Clib/development/c-bowler.X/dist/default/production/c-bowler.X.a(FIFO.o)

.mdebug.abi32%z141
                0x00000000        0x0
 .mdebug.abi32  0x00000000        0x0 ../../../../../c-bowler/firmware/library/NR-Clib/development/c-bowler.X/dist/default/production/c-bowler.X.a(Debug.o)

.bss%z142       0x00000000        0x0
 .bss           0x00000000        0x0 ../../../../../c-bowler/firmware/library/NR-Clib/development/c-bowler.X/dist/default/production/c-bowler.X.a(Debug.o)

.data%z143      0x00000000        0x0
 .data          0x00000000        0x0 ../../../../../c-bowler/firmware/library/NR-Clib/development/c-bowler.X/dist/default/production/c-bowler.X.a(Debug.o)

.mdebug.abi32%z144
                0x00000000        0x0
 .mdebug.abi32  0x00000000        0x0 ../../../../../c-bowler/firmware/library/NR-Clib/development/c-bowler.X/dist/default/production/c-bowler.X.a(Bowler_Server.o)

.bss%z145       0x00000000        0x0
 .bss           0x00000000        0x0 ../../../../../c-bowler/firmware/library/NR-Clib/development/c-bowler.X/dist/default/production/c-bowler.X.a(Bowler_Server.o)

.data%z146      0x00000000        0x0
 .data          0x00000000        0x0 ../../../../../c-bowler/firmware/library/NR-Clib/development/c-bowler.X/dist/default/production/c-bowler.X.a(Bowler_Server.o)

.mdebug.abi32%z147
                0x00000000        0x0
 .mdebug.abi32  0x00000000        0x0 ../../../../../c-bowler/firmware/library/NR-Clib/development/c-bowler.X/dist/default/production/c-bowler.X.a(Namespace_bcs_core.o)

.bss%z148       0x00000000        0x0
 .bss           0x00000000        0x0 ../../../../../c-bowler/firmware/library/NR-Clib/development/c-bowler.X/dist/default/production/c-bowler.X.a(Namespace_bcs_core.o)

.mdebug.abi32%z149
                0x00000000        0x0
 .mdebug.abi32  0x00000000        0x0 ../../../../../c-bowler/firmware/library/NR-Clib/development/c-bowler.X/dist/default/production/c-bowler.X.a(BowlerPacketParser.o)

.bss%z150       0x00000000        0x0
 .bss           0x00000000        0x0 ../../../../../c-bowler/firmware/library/NR-Clib/development/c-bowler.X/dist/default/production/c-bowler.X.a(BowlerPacketParser.o)

.data%z151      0x00000000        0x0
 .data          0x00000000        0x0 ../../../../../c-bowler/firmware/library/NR-Clib/development/c-bowler.X/dist/default/production/c-bowler.X.a(BowlerPacketParser.o)

.mdebug.abi32%z152
                0x00000000        0x0
 .mdebug.abi32  0x00000000        0x0 build/default/production/_ext/1360937237/DyIOMain.o

.data%z153      0x00000000        0x0
 .data          0x00000000        0x0 build/default/production/_ext/1360937237/DyIOMain.o

.mdebug.abi32%z154
                0x00000000        0x0
 .mdebug.abi32  0x00000000        0x0 build/default/production/_ext/1360937237/Main.o

.bss%z155       0x00000000        0x0
 .bss           0x00000000        0x0 build/default/production/_ext/1360937237/Main.o

.data%z156      0x00000000        0x0
 .data          0x00000000        0x0 build/default/production/_ext/1360937237/Main.o

.mdebug.abi32%z157
                0x00000000        0x0
 .mdebug.abi32  0x00000000        0x0 build/default/production/_ext/321196743/Namespace_bcs_pid_dypid.o

.bss%z158       0x00000000        0x0
 .bss           0x00000000        0x0 build/default/production/_ext/321196743/Namespace_bcs_pid_dypid.o

.mdebug.abi32%z159
                0x00000000        0x0
 .mdebug.abi32  0x00000000        0x0 build/default/production/_ext/321196743/Namespace_neuronrobotics_dyio.o

.bss%z160       0x00000000        0x0
 .bss           0x00000000        0x0 build/default/production/_ext/321196743/Namespace_neuronrobotics_dyio.o

.mdebug.abi32%z161
                0x00000000        0x0
 .mdebug.abi32  0x00000000        0x0 build/default/production/_ext/1281821416/Namespace_bcs_safe.o

.bss%z162       0x00000000        0x0
 .bss           0x00000000        0x0 build/default/production/_ext/1281821416/Namespace_bcs_safe.o

.mdebug.abi32%z163
                0x00000000        0x0
 .mdebug.abi32  0x00000000        0x0 build/default/production/_ext/1281821416/Abstract_bsc_safe.o

.bss%z164       0x00000000        0x0
 .bss           0x00000000        0x0 build/default/production/_ext/1281821416/Abstract_bsc_safe.o

.data%z165      0x00000000        0x0
 .data          0x00000000        0x0 build/default/production/_ext/1281821416/Abstract_bsc_safe.o

.mdebug.abi32%z166
                0x00000000        0x0
 .mdebug.abi32  0x00000000        0x0 build/default/production/_ext/1020318379/ChannelMode.o

.bss%z167       0x00000000        0x0
 .bss           0x00000000        0x0 build/default/production/_ext/1020318379/ChannelMode.o

.data%z168      0x00000000        0x0
 .data          0x00000000        0x0 build/default/production/_ext/1020318379/ChannelMode.o

.mdebug.abi32%z169
                0x00000000        0x0
 .mdebug.abi32  0x00000000        0x0 build/default/production/_ext/1020318379/ChannelValues.o

.bss%z170       0x00000000        0x0
 .bss           0x00000000        0x0 build/default/production/_ext/1020318379/ChannelValues.o

.data%z171      0x00000000        0x0
 .data          0x00000000        0x0 build/default/production/_ext/1020318379/ChannelValues.o

.mdebug.abi32%z172
                0x00000000        0x0
 .mdebug.abi32  0x00000000        0x0 build/default/production/_ext/1020318379/ChannelConfig.o

.bss%z173       0x00000000        0x0
 .bss           0x00000000        0x0 build/default/production/_ext/1020318379/ChannelConfig.o

.data%z174      0x00000000        0x0
 .data          0x00000000        0x0 build/default/production/_ext/1020318379/ChannelConfig.o

.mdebug.abi32%z175
                0x00000000        0x0
 .mdebug.abi32  0x00000000        0x0 build/default/production/_ext/1020318379/Pin_State.o

.bss%z176       0x00000000        0x0
 .bss           0x00000000        0x0 build/default/production/_ext/1020318379/Pin_State.o

.data%z177      0x00000000        0x0
 .data          0x00000000        0x0 build/default/production/_ext/1020318379/Pin_State.o

.mdebug.abi32%z178
                0x00000000        0x0
 .mdebug.abi32  0x00000000        0x0 build/default/production/_ext/990863823/PPMReader.o

.mdebug.abi32%z179
                0x00000000        0x0
 .mdebug.abi32  0x00000000        0x0 build/default/production/_ext/990863823/SPI.o

.bss%z180       0x00000000        0x0
 .bss           0x00000000        0x0 build/default/production/_ext/990863823/SPI.o

.data%z181      0x00000000        0x0
 .data          0x00000000        0x0 build/default/production/_ext/990863823/SPI.o

.mdebug.abi32%z182
                0x00000000        0x0
 .mdebug.abi32  0x00000000        0x0 build/default/production/_ext/990863823/SerialPassThrough.o

.bss%z183       0x00000000        0x0
 .bss           0x00000000        0x0 build/default/production/_ext/990863823/SerialPassThrough.o

.data%z184      0x00000000        0x0
 .data          0x00000000        0x0 build/default/production/_ext/990863823/SerialPassThrough.o

.mdebug.abi32%z185
                0x00000000        0x0
 .mdebug.abi32  0x00000000        0x0 build/default/production/_ext/990863823/EEPROMMannager.o

.data%z186      0x00000000        0x0
 .data          0x00000000        0x0 build/default/production/_ext/990863823/EEPROMMannager.o

.mdebug.abi32%z187
                0x00000000        0x0
 .mdebug.abi32  0x00000000        0x0 build/default/production/_ext/990863823/Counter.o

.bss%z188       0x00000000        0x0
 .bss           0x00000000        0x0 build/default/production/_ext/990863823/Counter.o

.mdebug.abi32%z189
                0x00000000        0x0
 .mdebug.abi32  0x00000000        0x0 build/default/production/_ext/990863823/ADC.o

.bss%z190       0x00000000        0x0
 .bss           0x00000000        0x0 build/default/production/_ext/990863823/ADC.o

.data%z191      0x00000000        0x0
 .data          0x00000000        0x0 build/default/production/_ext/990863823/ADC.o

.mdebug.abi32%z192
                0x00000000        0x0
 .mdebug.abi32  0x00000000        0x0 build/default/production/_ext/990863823/CoProcCom.o

.data%z193      0x00000000        0x0
 .data          0x00000000        0x0 build/default/production/_ext/990863823/CoProcCom.o

.mdebug.abi32%z194
                0x00000000        0x0
 .mdebug.abi32  0x00000000        0x0 build/default/production/_ext/990863823/DyIODataTableManager.o

.data%z195      0x00000000        0x0
 .data          0x00000000        0x0 build/default/production/_ext/990863823/DyIODataTableManager.o

.mdebug.abi32%z196
                0x00000000        0x0
 .mdebug.abi32  0x00000000        0x0 build/default/production/_ext/990863823/Switches.o

.bss%z197       0x00000000        0x0
 .bss           0x00000000        0x0 build/default/production/_ext/990863823/Switches.o

.data%z198      0x00000000        0x0
 .data          0x00000000        0x0 build/default/production/_ext/990863823/Switches.o

.mdebug.abi32%z199
                0x00000000        0x0
 .mdebug.abi32  0x00000000        0x0 build/default/production/_ext/990863823/AVRInterface.o

.bss%z200       0x00000000        0x0
 .bss           0x00000000        0x0 build/default/production/_ext/990863823/AVRInterface.o

.data%z201      0x00000000        0x0
 .data          0x00000000        0x0 build/default/production/_ext/990863823/AVRInterface.o

.mdebug.abi32%z202
                0x00000000        0x0
 .mdebug.abi32  0x00000000        0x0 build/default/production/_ext/2110062566/UartDMARx.o

.bss%z203       0x00000000        0x0
 .bss           0x00000000        0x0 build/default/production/_ext/2110062566/UartDMARx.o

.data%z204      0x00000000        0x0
 .data          0x00000000        0x0 build/default/production/_ext/2110062566/UartDMARx.o

.mdebug.abi32%z205
                0x00000000        0x0
 .mdebug.abi32  0x00000000        0x0 build/default/production/_ext/1978776677/AsyncManager.o

.bss%z206       0x00000000        0x0
 .bss           0x00000000        0x0 build/default/production/_ext/1978776677/AsyncManager.o

.data%z207      0x00000000        0x0
 .data          0x00000000        0x0 build/default/production/_ext/1978776677/AsyncManager.o

.mdebug.abi32%z208
                0x00000000        0x0
 .mdebug.abi32  0x00000000        0x0 build/default/production/_ext/1978776677/DownStreamPackets.o

.data%z209      0x00000000        0x0
 .data          0x00000000        0x0 build/default/production/_ext/1978776677/DownStreamPackets.o

.mdebug.abi32%z210
                0x00000000        0x0
 .mdebug.abi32  0x00000000        0x0 build/default/production/_ext/1978776677/InitializationCallbacks.o

.bss%z211       0x00000000        0x0
 .bss           0x00000000        0x0 build/default/production/_ext/1978776677/InitializationCallbacks.o

.data%z212      0x00000000        0x0
 .data          0x00000000        0x0 build/default/production/_ext/1978776677/InitializationCallbacks.o

.mdebug.abi32%z213
                0x00000000        0x0
 .mdebug.abi32  0x00000000        0x0 build/default/production/_ext/1978776677/UpstreamPackets.o

.data%z214      0x00000000        0x0
 .data          0x00000000        0x0 build/default/production/_ext/1978776677/UpstreamPackets.o

.mdebug.abi32%z215
                0x00000000        0x0
 .mdebug.abi32  0x00000000        0x0 build/default/production/_ext/1825615050/PID.o

.data%z216      0x00000000        0x0
 .data          0x00000000        0x0 build/default/production/_ext/1825615050/PID.o

.mdebug.abi32%z217
                0x00000000        0x0
 .mdebug.abi32  0x00000000        0x0 build/default/production/_ext/1825615050/CartesianController.o

.bss%z218       0x00000000        0x0
 .bss           0x00000000        0x0 build/default/production/_ext/1825615050/CartesianController.o

.data%z219      0x00000000        0x0
 .data          0x00000000        0x0 build/default/production/_ext/1825615050/CartesianController.o

.mdebug.abi32%z220
                0x00000000        0x0
 .mdebug.abi32  0x00000000        0x0 build/default/production/_ext/1051272628/Namespace_bcs_io_setmode.o

.bss%z221       0x00000000        0x0
 .bss           0x00000000        0x0 build/default/production/_ext/1051272628/Namespace_bcs_io_setmode.o

.mdebug.abi32%z222
                0x00000000        0x0
 .mdebug.abi32  0x00000000        0x0 build/default/production/_ext/1051272628/Abstract_bcs_io_setmode.o

.bss%z223       0x00000000        0x0
 .bss           0x00000000        0x0 build/default/production/_ext/1051272628/Abstract_bcs_io_setmode.o

.data%z224      0x00000000        0x0
 .data          0x00000000        0x0 build/default/production/_ext/1051272628/Abstract_bcs_io_setmode.o

.mdebug.abi32%z225
                0x00000000        0x0
 .mdebug.abi32  0x00000000        0x0 build/default/production/_ext/805493626/Bcs_IO_AdvancedAsync.o

.bss%z226       0x00000000        0x0
 .bss           0x00000000        0x0 build/default/production/_ext/805493626/Bcs_IO_AdvancedAsync.o

.data%z227      0x00000000        0x0
 .data          0x00000000        0x0 build/default/production/_ext/805493626/Bcs_IO_AdvancedAsync.o

.mdebug.abi32%z228
                0x00000000        0x0
 .mdebug.abi32  0x00000000        0x0 build/default/production/_ext/805493626/Abstract_bcs_io.o

.bss%z229       0x00000000        0x0
 .bss           0x00000000        0x0 build/default/production/_ext/805493626/Abstract_bcs_io.o

.data%z230      0x00000000        0x0
 .data          0x00000000        0x0 build/default/production/_ext/805493626/Abstract_bcs_io.o

.mdebug.abi32%z231
                0x00000000        0x0
 .mdebug.abi32  0x00000000        0x0 build/default/production/_ext/805493626/Namespace_bcs_io.o

.bss%z232       0x00000000        0x0
 .bss           0x00000000        0x0 build/default/production/_ext/805493626/Namespace_bcs_io.o

.mdebug.abi32%z233
                0x00000000        0x0
 .mdebug.abi32  0x00000000        0x0 build/default/production/_ext/805493626/Debug_DyIO.o

.bss%z234       0x00000000        0x0
 .bss           0x00000000        0x0 build/default/production/_ext/805493626/Debug_DyIO.o

.data%z235      0x00000000        0x0
 .data          0x00000000        0x0 build/default/production/_ext/805493626/Debug_DyIO.o

.mdebug.abi32%z236
                0x00000000        0x0
 .mdebug.abi32  0x00000000        0x0 build/default/production/_ext/108654538/PinFunctions.o

.data%z237      0x00000000        0x0
 .data          0x00000000        0x0 build/default/production/_ext/108654538/PinFunctions.o

.bss%z238       0x00000000        0x0
 .bss           0x00000000        0x0 /home/opt/microchip/xc32/v1.00/bin/../lib/gcc/pic32mx/4.5.1/../../../../pic32mx/lib/crt0.o

.data%z239      0x00000000        0x0
 .data          0x00000000        0x0 /home/opt/microchip/xc32/v1.00/bin/../lib/gcc/pic32mx/4.5.1/../../../../pic32mx/lib/crt0.o

.text           0x9d000008     0xb3a4
 .text          0x9d000008     0x2a44 build/default/production/_ext/990863823/Counter.o
                0x9d000008                RunCounter
                0x9d000068                InitCounterPins
                0x9d000158                ClearCounter
                0x9d0004cc                configPin23Int
                0x9d000578                StartCounterInput
                0x9d0009c8                StartCounterOutput
                0x9d000d74                runCounterOutputStep
                0x9d001438                runCounterGroup
                0x9d001b1c                setPinsByGroup
                0x9d001c98                GetCounterByGroup
                0x9d001cf4                GetCounterByChannel
                0x9d001d40                GetCounterOutput
                0x9d001db4                SetCounterOutput
                0x9d001f2c                SetCounterInput
                0x9d001fa4                channelToCounterGroup
                0x9d002088                getCounterIntChannnel
                0x9d0020d0                getCounterDirChannnel
                0x9d002118                getCounterHomeChannnel
                0x9d002160                INT1_ISR
                0x9d0022c4                INT2_ISR
                0x9d002470                INT3_ISR
                0x9d00261c                INT4_ISR
                0x9d002898                _Timer3Handler
 .text          0x9d002a4c     0x1a70 build/default/production/_ext/1978776677/DownStreamPackets.o
                0x9d002a4c                LoadDefaultValues
                0x9d002b00                setCoProcBrownOutMode
                0x9d002ba8                DownstreamPowerChange
                0x9d002cec                LoadGACM
                0x9d002d6c                GetAllModes
                0x9d002e3c                CheckRev
                0x9d003038                SetCoProcMode
                0x9d0031a4                SetAllCoProcMode
                0x9d0033a0                SetAllCoProcValues
                0x9d0035dc                SetChannelValueCoProc
                0x9d003770                GetChannelValueCoProc
                0x9d00386c                GetADC
                0x9d00398c                GetSerialStream
                0x9d003a80                GetEEPRomData
                0x9d003cf0                SetEEPRomData
                0x9d003eb8                GetName
                0x9d003fe8                GetLockCode
                0x9d004124                SetName
                0x9d004258                SetLockCode
                0x9d004388                isAscii
                0x9d0043f0                SyncModes
 .text          0x9d0044bc     0x193c build/default/production/_ext/805493626/Bcs_IO_AdvancedAsync.o
                0x9d0044bc                initAdvancedAsync
                0x9d004564                setAsync
                0x9d0045f8                setAsyncLocal
                0x9d004658                IsAsync
                0x9d004710                printAsyncType
                0x9d004820                configAdvancedAsyncNotEqual
                0x9d0048dc                configAdvancedAsyncDeadBand
                0x9d0049cc                configAdvancedAsyncTreshhold
                0x9d004aec                configAdvancedAsyncAutoSample
                0x9d004bac                configAdvancedAsync
                0x9d004de4                startAdvancedAsyncDefault
                0x9d005124                SetValFromAsync
                0x9d005180                GetValFromAsync
                0x9d0051dc                GetDigitalValFromAsync
                0x9d0052b0                pushAsyncReady
                0x9d005c8c                populateGACV
 .text          0x9d005df8     0x1914 build/default/production/_ext/805493626/Abstract_bcs_io.o
                0x9d005df8                InitilizeBcsIo
                0x9d005fe4                GetNumberOfIOChannels
                0x9d006008                GetChannelMode
                0x9d0060b8                getBcsIoDataTable
                0x9d006118                GetChannelModeFromPacket
                0x9d00618c                GetAllChannelModeFromPacket
                0x9d00624c                GetAsyncFromPacket
                0x9d0062c0                SetAsyncFromPacket
                0x9d006338                GetIOChannelCountFromPacket
                0x9d0063b8                SetChanelValueFromPacket
                0x9d0066bc                SetAllChannelValueFromPacket
                0x9d006824                GetChanelValueFromPacket
                0x9d006a6c                GetAllChanelValueFromPacket
                0x9d006ba0                ConfigureChannelFromPacket
                0x9d006d60                pinHasFunction
                0x9d007194                getFunctionList
                0x9d007274                printValues
                0x9d00735c                printModes
                0x9d007438                printConfigurations
                0x9d0074cc                printAsync
 .text          0x9d00770c     0x159c ../../../../../c-bowler/firmware/library/NR-Clib/development/c-bowler.X/dist/default/production/c-bowler.X.a(usb_device.o)
                0x9d00770d                USBDeviceInit
                0x9d007841                USBStallHandler
                0x9d0078a5                USBSuspend
                0x9d0078cd                USBWakeFromSuspend
                0x9d0078f9                USBPrepareForNextSetupTrf
                0x9d007969                USBStdFeatureReqHandler
                0x9d007ab5                USBStdGetDscHandler
                0x9d007b8d                USBStdGetStatusHandler
                0x9d007c71                USBCtrlTrfTxService
                0x9d007d4d                USBCtrlEPServiceComplete
                0x9d008005                USBCtrlTrfInHandler
                0x9d0080e9                USBCtrlTrfRxService
                0x9d008255                USBCtrlTrfOutHandler
                0x9d0082d9                USBStdSetCfgHandler
                0x9d008381                USBCheckStdRequest
                0x9d008481                USBCtrlTrfSetupHandler
                0x9d0084d9                USBCtrlEPService
                0x9d008585                USBDeviceTasksLocal
                0x9d0087b1                USBConfigureEndpoint
                0x9d008805                USBEnableEndpoint
                0x9d00883d                USBStallEndpoint
                0x9d0088e9                USBTransferOnePacket
                0x9d0089bd                USBCancelIO
                0x9d008af1                USBDeviceDetach
                0x9d008b0d                USBDeviceAttach
                0x9d008bac                _USB1Interrupt
 .text          0x9d008ca8     0x14d4 build/default/production/_ext/1825615050/PID.o
                0x9d008ca8                fail
                0x9d008ce0                initPIDChans
                0x9d008fcc                asyncCallback
                0x9d009008                InitPID
                0x9d009490                GetConfigDyPID
                0x9d009578                ConfigDyPID
                0x9d0096c0                GetPIDGroup
                0x9d0098e0                onPidConfigureMine
                0x9d009968                trigerPIDLimit
                0x9d009a44                checkPIDLimitEventsMine
                0x9d009a88                resetPositionMine
                0x9d009c18                getPositionMine
                0x9d009de8                setOutputMine
 .text          0x9d00a17c     0x1230 build/default/production/_ext/990863823/CoProcCom.o
                0x9d00a17c                getPacket
                0x9d00a1c8                addCoProcByte
                0x9d00a218                PushCoProcAsync
                0x9d00a2cc                isProcessing
                0x9d00a2f0                startUartCoProc
                0x9d00a4c8                initCoProcUART
                0x9d00a594                uartErrorCheck
                0x9d00a5dc                initCoProcCom
                0x9d00a698                SendPacketToCoProc
                0x9d00a864                sendPacket
                0x9d00abb4                valadateRPC
                0x9d00aff8                SendPacketUARTCoProc
                0x9d00b164                clearToSend
                0x9d00b1a8                newByte
                0x9d00b264                My_U2_ISR

.dinit          0x9d00b3ac      0xb3c
 .dinit         0x9d00b3ac      0xb3c data_init

.text           0x9d00bee8     0x6c38
 .text          0x9d00bee8      0xa90 build/default/production/_ext/990863823/PPMReader.o
                0x9d00bee8                RunPPMCheck
                0x9d00c270                runPPMEvent
                0x9d00c478                clearPPM
                0x9d00c508                startPPM
                0x9d00c5cc                GetPPMDataToPacket
                0x9d00c6fc                ConfigPPMFromArray
                0x9d00c7d0                ConfigPPM
                0x9d00c8bc                GetPPMDataToArray
 .text          0x9d00c978      0xa80 build/default/production/_ext/1020318379/ChannelValues.o
                0x9d00c978                SetChanelValueHW
                0x9d00cc0c                GetChanelValueHW
                0x9d00ced0                SetAllChanelValueHW
                0x9d00d044                GetAllChanelValueHW
                0x9d00d1b0                ConfigureChannelHW
                0x9d00d2cc                SetChanVal
 .text          0x9d00d3f8      0x958 build/default/production/_ext/321196743/Namespace_neuronrobotics_dyio.o
                0x9d00d3f8                UpdateAVRLED
                0x9d00d420                setHeartBeatState
                0x9d00d45c                getHeartBeatTime
                0x9d00d48c                getHeartBeatLock
                0x9d00d4b0                neuronRoboticsDyIOAsyncEventCallback
                0x9d00d6fc                neuronRoboticsDyIOProcessor_g
                0x9d00d968                neuronRoboticsDyIOProcessor_p
                0x9d00d990                neuronRoboticsDyIOProcessor_c
                0x9d00dc7c                get_neuronRoboticsDyIONamespace
 .text          0x9d00dd50      0x8ec /home/opt/microchip/xc32/v1.00/bin/../lib/gcc/pic32mx/4.5.1/../../../../pic32mx/lib/libm.a(fp32.o)
                0x9d00dd50                __subsf3
                0x9d00dd50                fpsub
                0x9d00dd58                fpadd
                0x9d00dd58                __addsf3
                0x9d00dfc4                __mulsf3
                0x9d00dfc4                fpmul
                0x9d00e17c                __divsf3
                0x9d00e17c                fpdiv
                0x9d00e3a8                sitofp
                0x9d00e3a8                __floatsisf
                0x9d00e3a8                litofp
                0x9d00e404                uitofp
                0x9d00e404                ultofp
                0x9d00e450                __fixsfsi
                0x9d00e450                fptoli
                0x9d00e450                fptosi
                0x9d00e4c8                fptoui
                0x9d00e4c8                __fixunssfsi
                0x9d00e4c8                fptoul
                0x9d00e53c                __lesf2
                0x9d00e53c                __nesf2
                0x9d00e53c                __gtsf2
                0x9d00e53c                __eqsf2
                0x9d00e53c                __ltsf2
                0x9d00e53c                fpcmp
                0x9d00e53c                __gesf2
                0x9d00e5d0                fabsf
                0x9d00e5d0                fpfabs
                0x9d00e5e0                __negsf2
                0x9d00e5f0                fpnan
                0x9d00e5f0                nanf
 .text          0x9d00e63c      0x814 build/default/production/_ext/990863823/ADC.o
                0x9d00e63c                calc
                0x9d00e684                InitADC
                0x9d00e854                isLocked
                0x9d00e878                isActive
                0x9d00e89c                unlockServos
                0x9d00e8c0                lockServos
                0x9d00e8e8                GetRawVoltageCode
                0x9d00ecb4                GetRawVoltage
                0x9d00ecf8                GetRawVoltagePostFuse
                0x9d00ed3c                GetRail0Voltage
                0x9d00ed80                GetRail1Voltage
                0x9d00edc4                getDyIOVoltage
 .text          0x9d00ee50      0x7d0 build/default/production/_ext/990863823/EEPROMMannager.o
                0x9d00ee50                LoadEEstore
                0x9d00ef68                LoadPIDvals
                0x9d00f28c                WritePIDvalues
                0x9d00f504                writePPMLink
                0x9d00f544                readPPMLink
                0x9d00f584                setEEBrownOutDetect
                0x9d00f5d8                getEEBrownOutDetect
 .text          0x9d00f620      0x7b0 build/default/production/_ext/108654538/PinFunctions.o
                0x9d00f620                InitPinFunction
 .text          0x9d00fdd0      0x760 ../../../../../c-bowler/firmware/library/NR-Clib/development/c-bowler.X/dist/default/production/c-bowler.X.a(AbstractPID.o)
                0x9d00fdd1                RunAbstractPIDCalc
                0x9d00fea9                OnPidConfigure
                0x9d00feb9                getNumberOfPidChannels
                0x9d00fec1                getPidVelocityDataTable
                0x9d00fee9                getPidGroupDataTable
                0x9d00ff15                isPidEnabled
                0x9d00ff25                SetPIDEnabled
                0x9d00ff39                SetControllerMath
                0x9d00ff51                SetPIDCalibrateionState
                0x9d00ff61                GetPIDCalibrateionState
                0x9d00ff71                ClearPID
                0x9d00ff95                GetPIDPosition
                0x9d00ffb5                setPIDConstants
                0x9d00ffdd                InitAbsPIDWithPosition
                0x9d010005                InitAbsPID
                0x9d01001d                pidResetNoStop
                0x9d0100f9                SetPIDTimed
                0x9d010205                SetPID
                0x9d010219                isPIDInterpolating
                0x9d010239                isPIDArrivedAtSetpoint
                0x9d01026d                RunPIDComs
                0x9d0102a5                setOutput
                0x9d010355                RunPIDControl
                0x9d010425                RunPID
                0x9d01043d                pidReset
                0x9d01049d                ZeroPID
                0x9d0104ad                InitilizePidController
 .text          0x9d010530      0x720 build/default/production/_ext/1978776677/UpstreamPackets.o
                0x9d010530                pushDummy
                0x9d01064c                PushAllAsync
                0x9d01070c                PushCounterChange
                0x9d010828                PushADCval
                0x9d010944                PushDIval
                0x9d010a48                UpstreamPushPowerChange
                0x9d010ae4                POWER
                0x9d010bcc                pushPPMPacket
 .text          0x9d010c50      0x6f0 ../../../../../c-bowler/firmware/library/NR-Clib/development/c-bowler.X/dist/default/production/c-bowler.X.a(Debug.o)
                0x9d010c51                sendToStreamMine
                0x9d010c7d                setPrintStream
                0x9d010c8d                sendToStreamLocal
                0x9d010cad                getPrintLevel
                0x9d010cb5                setPrintLevel
                0x9d010cc9                okToprint
                0x9d010cf1                GetLowNib
                0x9d010d01                GetHighNib
                0x9d010d11                sendStr
                0x9d010d2d                setColor
                0x9d010d69                printfDEBUG_BYTE
                0x9d010d89                printfDEBUG_NNL
                0x9d010da9                printfDEBUG
                0x9d010dd1                ultoaMINE
                0x9d010e1d                printfDEBUG_INT
                0x9d010e75                printByteArray
                0x9d010efd                printBowlerPacketDEBUG
                0x9d01117d                printfDEBUG_FL
                0x9d0111ed                printPIDvals
 .text          0x9d011340      0x6c8 ../../../../../c-bowler/firmware/library/NR-Clib/development/c-bowler.X/dist/default/production/c-bowler.X.a(PidRpc.o)
                0x9d011341                GetConfigPDVelocity
                0x9d011391                ConfigPDVelovity
                0x9d0113e9                GetConfigPID
                0x9d0114fd                ConfigPID
                0x9d0116a9                processPIDGet
                0x9d011799                processPIDPost
                0x9d0118e9                processPIDCrit
                0x9d0119dd                ProcessPIDPacket
 .text          0x9d011a08      0x5f8 build/default/production/_ext/1978776677/AsyncManager.o
                0x9d011a08                ProcessAsyncData
                0x9d011f14                isAnalog
                0x9d011f90                dealWithAsyncPacket
 .text          0x9d012000      0x5e8 ../../../../../c-bowler/firmware/library/NR-Clib/development/c-bowler.X/dist/default/production/c-bowler.X.a(usb_fifo.o)
                0x9d012001                GotUSBData
                0x9d012011                printBufferState
                0x9d012249                GetPICUSBFifo
                0x9d01229d                SetPICUSBFifo
                0x9d0122ed                waitForTxToBeFree
                0x9d012375                flush
                0x9d0123b9                isUSBActave
                0x9d0123c1                forceOpenUSB
                0x9d0123cd                usb_Buffer_Update
                0x9d012441                GetNumUSBBytes
                0x9d01245d                usb_CDC_Serial_Init
                0x9d0124ad                USBPutArray
                0x9d01259d                USBGetArray
 .text          0x9d0125e8      0x538 ../../../../../c-bowler/firmware/library/NR-Clib/development/c-bowler.X/dist/default/production/c-bowler.X.a(usb_function_cdc.o)
                0x9d0125e9                USBCheckCDCRequest
                0x9d012801                CDCInitEP
                0x9d012859                USBUSARTRxIsReady
                0x9d012871                getsUSBUSART
                0x9d0128ed                putUSBUSART
                0x9d01293d                putsUSBUSART
                0x9d012999                putrsUSBUSART
                0x9d0129f9                CDCTxService

.rodata         0x9d012b20      0x528
 .rodata        0x9d012b20      0x528 /home/opt/microchip/xc32/v1.00/bin/../lib/gcc/pic32mx/4.5.1/../../../../pic32mx/lib/libmchp_peripheral_32MX440F128H.a(int_tbl_lib.o)
                0x9d012b20                __IntSrcTbl
                0x9d012e20                __IntVectorTbl

.text           0x9d013048     0x3898
 .text          0x9d013048      0x4ec build/default/production/_ext/1978776677/InitializationCallbacks.o
                0x9d013048                hardwareInit
                0x9d013404                UserInit
 .text          0x9d013534      0x4ec ../../../../../c-bowler/firmware/library/NR-Clib/development/c-bowler.X/dist/default/production/c-bowler.X.a(HAL_P32.o)
                0x9d013534                _general_exception_handler
                0x9d0137fd                disableSerialComs
                0x9d01380d                Pic32_Bowler_HAL_Init
                0x9d0138ad                Get_HAL_Packet
                0x9d013901                Send_HAL_Packet
                0x9d01392d                Get_HAL_Byte_Count
                0x9d013995                GetBowlerPacket_arch
                0x9d0139d9                putStream
                0x9d0139e9                getMs
                0x9d0139f5                putCharDebug
                0x9d013a01                startScheduler
                0x9d013a0d                EnableDebugTerminal
 .text          0x9d013a20      0x498 ../../../../../c-bowler/firmware/library/NR-Clib/development/c-bowler.X/dist/default/production/c-bowler.X.a(PidHysteresis.o)
                0x9d013a21                incrementHistoresis
                0x9d013a35                decrementHistoresis
                0x9d013a49                calcCenter
                0x9d013a71                checkCalibration
                0x9d013aad                getUpperPidHistoresis
                0x9d013ac1                getLowerPidHistoresis
                0x9d013ad5                getPidStop
                0x9d013ae9                runPidHysterisisCalibration
                0x9d013b85                processRunAutoCal
                0x9d013ba1                pidHysterisis
                0x9d013d91                startHomingLink
                0x9d013e0d                checkLinkHomingStatus
 .text          0x9d013eb8      0x494 build/default/production/_ext/1020318379/ChannelMode.o
                0x9d013eb8                InitPinStates
                0x9d013f70                setBrownOutDetect
                0x9d013fb0                getBrownOutDetect
                0x9d013fd4                setMode
 .text          0x9d01434c      0x490 ../../../../../c-bowler/firmware/library/NR-Clib/development/c-bowler.X/dist/default/production/c-bowler.X.a(FlashStorage.o)
                0x9d01434d                FlashSwitchMemoryToBootloader
                0x9d014365                SetFlashData
                0x9d014391                FlashLoad
                0x9d0143e1                FlashSync
                0x9d01466d                FlashSetMac
                0x9d0146a5                FlashSetName
                0x9d0146cd                FlashGetMac
                0x9d014711                FlashGetName
                0x9d014735                FlashGetBlRev
                0x9d014755                FlashGetFwRev
                0x9d014775                FlashSetFwRev
                0x9d0147a9                FlashSetBlRev
 .text          0x9d0147dc      0x48c build/default/production/_ext/990863823/Switches.o
                0x9d0147dc                CheckSwitches
                0x9d014b14                IsRegulated
 .text          0x9d014c68      0x484 build/default/production/_ext/990863823/SPI.o
                0x9d014c68                InitSPI
                0x9d014d50                StopSPI
                0x9d014e70                isSPI
                0x9d014ebc                GetByteSPI
                0x9d014f20                SendPacketToSPIFromArray
                0x9d01504c                SendPacketToSPI
 .text          0x9d0150ec      0x3b8 ../../../../../c-bowler/firmware/library/NR-Clib/development/c-bowler.X/dist/default/production/c-bowler.X.a(Bowler_Server.o)
                0x9d0150ed                getLastPacketTime
                0x9d015115                Process_Self_Packet
                0x9d0152ed                Bowler_Init
                0x9d01530d                process
                0x9d0153f1                Bowler_Server_Static
                0x9d01540d                Bowler_Server
 .text          0x9d0154a4      0x3b4 build/default/production/_ext/990863823/AVRInterface.o
                0x9d0154a4                getCmd
                0x9d01552c                writeLowFuse
                0x9d015578                writeHighFuse
                0x9d0155c4                PowerCycleAVR
                0x9d015610                HoldAVRReset
                0x9d015668                ReleaseAVRReset
                0x9d0156cc                writeAVRTempFlashPageLowByte
                0x9d01576c                writeAVRTempFlashPageHighByte
                0x9d01580c                writeExtendedFuse
 .text          0x9d015858      0x398 build/default/production/_ext/1051272628/Abstract_bcs_io_setmode.o
                0x9d015858                InitilizeBcsIoSetmode
                0x9d0158ac                SetChannelMode
                0x9d0159f8                SetAllChannelModes
                0x9d015aa0                AbstractSetChannelMode
                0x9d015b5c                AbstractSetAllChannelMode
 .text          0x9d015bf0      0x38c ../../../../../c-bowler/firmware/library/NR-Clib/development/c-bowler.X/dist/default/production/c-bowler.X.a(FIFO.o)
                0x9d015bf1                lockFifo
                0x9d015bf5                unLockFifo
                0x9d015bf9                clearByteFifo
                0x9d015c15                InitByteFifo
                0x9d015c4d                ReadFirstByte
                0x9d015c59                calcByteCount
                0x9d015c7d                FifoGetByteCount
                0x9d015c89                FifoAddByte
                0x9d015d01                getByte
                0x9d015d3d                FifoGetByteStream
                0x9d015d95                FifoReadByteStream
                0x9d015de5                printFiFoState
                0x9d015e59                InitPacketFifo
                0x9d015e8d                FifoGetPacketCount
                0x9d015eb1                FifoAddPacket
                0x9d015f2d                FifoGetPacketSpaceAvailible
                0x9d015f3d                FifoGetPacket
 .text          0x9d015f7c      0x358 ../../../../../c-bowler/firmware/library/NR-Clib/development/c-bowler.X/dist/default/production/c-bowler.X.a(Bowler_Helper.o)
                0x9d015f7d                CalcCRC
                0x9d015f95                CheckCRC
                0x9d015fa9                SetCRC
                0x9d015fb9                GetRPCValue
                0x9d015fd5                LoadCorePacket
                0x9d016019                READY
                0x9d016061                ERR
                0x9d0160a9                SetPacketLegnth
                0x9d0160b1                GetPacketLegnth
                0x9d0160b9                DataLegnthFromPacket
                0x9d0160bd                copyPacket
                0x9d0160d9                Bytes2Int32
                0x9d0160f1                CheckAddress
                0x9d016119                interpolate
                0x9d01623d                bound
                0x9d016279                set8bit
                0x9d016281                set16bit
                0x9d01628d                set32bit
                0x9d0162a5                get32bit
                0x9d0162c5                get16bit
 .text          0x9d0162d4      0x31c ../../../../../c-bowler/firmware/library/NR-Clib/development/c-bowler.X/dist/default/production/c-bowler.X.a(PidVelocity.o)
                0x9d0162d5                RunPDVel
                0x9d016525                RunVel
                0x9d016551                StartPDVel
 .text          0x9d0165f0      0x2f0 ../../../../../c-bowler/firmware/library/NR-Clib/development/c-bowler.X/dist/default/production/c-bowler.X.a(PidAsync.o)
                0x9d0165f1                pushAllPIDPositions
                0x9d016669                updatePidAsync
                0x9d0166d5                pushPIDLimitEvent
                0x9d01680d                pushPID

.rodata         0x9d0168e0      0x2ac
 .rodata        0x9d0168e0      0x2ac build/default/production/_ext/805493626/Abstract_bcs_io.o

.text           0x9d016b8c      0x774
 .text          0x9d016b8c      0x298 build/default/production/_ext/805493626/Namespace_bcs_io.o
                0x9d016b8c                bcsIoAsyncEventCallback
                0x9d016ca0                get_bcsIoNamespace
 .text          0x9d016e24      0x280 ../../../../../c-bowler/firmware/library/NR-Clib/development/c-bowler.X/dist/default/production/c-bowler.X.a(BowlerPacketParser.o)
                0x9d016e25                getNumBytes
                0x9d016e35                getStream
                0x9d016e4d                allign
                0x9d016ee5                _getBowlerPacket
                0x9d017045                GetBowlerPacketDebug
                0x9d017051                GetBowlerPacket
                0x9d01705d                FixPacket
                0x9d017081                PutBowlerPacket
 .text          0x9d0170a4      0x25c ../../../../../c-bowler/firmware/library/NR-Clib/development/c-bowler.X/dist/default/production/c-bowler.X.a(ADC.o)
                0x9d0170a5                InitADCHardware
                0x9d017259                getAdcRaw
                0x9d0172e1                getAdcVoltage

.rodata         0x9d017300      0x250
 .rodata        0x9d017300      0x250 ../../../../../c-bowler/firmware/library/NR-Clib/development/c-bowler.X/dist/default/production/c-bowler.X.a(HAL_P32.o)

.text           0x9d017550      0xa78
 .text          0x9d017550      0x24c ../../../../../c-bowler/firmware/library/NR-Clib/development/c-bowler.X/dist/default/production/c-bowler.X.a(Namespace_bcs_core.o)
                0x9d017551                _png
                0x9d017581                addRpcToNamespace
                0x9d0175c5                getRpcByID
                0x9d0175f1                getRpcByIndex
                0x9d017609                getBcsCoreNamespace
                0x9d017641                RunNamespaceAsync
                0x9d017665                addNamespaceToList
                0x9d0176a5                getNumberOfNamespaces
                0x9d0176c1                getNamespaceAtIndex
                0x9d0176ed                _nms
                0x9d01777d                getNumberOfRpcs
 .text          0x9d01779c      0x23c ../../../../../c-bowler/firmware/library/NR-Clib/development/c-bowler.X/dist/default/production/c-bowler.X.a(Bowler_UART_HAL.o)
                0x9d01779d                GotUARTData
                0x9d0177ad                GetPICUARTFifo
                0x9d0177b5                SetPICUARTFifo
                0x9d0177bd                newByteUartHal
                0x9d0177e8                U1_ISR
                0x9d0178d5                CalcBaud
                0x9d0178ed                Pic32UARTSetBaud
                0x9d017971                Pic32UART_HAL_INIT
                0x9d01797d                Pic32UARTGetArray
                0x9d0179a1                Pic32Get_UART_Byte_Count
                0x9d0179b5                Pic32UARTPutArray
 .text          0x9d0179d8      0x200 build/default/production/_ext/321196743/Namespace_bcs_pid_dypid.o
                0x9d0179d8                bcsPidDypidAsyncEventCallback
                0x9d017a54                bcsPidDypidProcessor_g
                0x9d017ab8                bcsPidDypidProcessor_c
                0x9d017b64                get_bcsPidDypidNamespace
 .text          0x9d017bd8      0x1fc build/default/production/_ext/1281821416/Namespace_bcs_safe.o
                0x9d017bd8                bcsSafeAsyncEventCallback
                0x9d017c04                bcsSafeProcessor_g
                0x9d017cb0                bcsSafeProcessor_p
                0x9d017d60                get_bcsSafeNamespace
 .text          0x9d017dd4      0x1f4 build/default/production/_ext/990863823/DyIODataTableManager.o
                0x9d017dd4                InitializeDyIODataTableManager
                0x9d017e34                SyncDataTable
                0x9d017e98                SetNewConfigurationDataTable
                0x9d017ec4                LoadSerialTxData
                0x9d017f58                GetSerialRxData

.rodata         0x9d017fc8      0x510
 .rodata        0x9d017fc8      0x1c0 ../../../../../c-bowler/firmware/library/NR-Clib/development/c-bowler.X/dist/default/production/c-bowler.X.a(Debug.o)
                0x9d018158                AsciiHex
                0x9d018168                errorColor
                0x9d018170                infoColor
                0x9d018178                warningColor
                0x9d018180                clearErrorColor
 .rodata        0x9d018188      0x1b0 build/default/production/_ext/990863823/CoProcCom.o
 .rodata        0x9d018338      0x1a0 build/default/production/_ext/805493626/Bcs_IO_AdvancedAsync.o

.text           0x9d0184d8      0x300
 .text          0x9d0184d8      0x18c build/default/production/_ext/1360937237/DyIOMain.o
                0x9d0184d8                buttonCheck
                0x9d018574                MyServer
                0x9d018604                runDyIOMain
 .text          0x9d018664      0x174 ../../../../../c-bowler/firmware/library/NR-Clib/development/c-bowler.X/dist/default/production/c-bowler.X.a(Tick.o)
                0x9d018665                TickInit
                0x9d0186c5                TickGetUpper
                0x9d0186cd                TickGetLower
                0x9d0186d5                TickGet
                0x9d0186ed                MyTickConvertToMilliseconds
                0x9d01870d                TickGetMS
                0x9d018748                Timer1Handler

.rodata         0x9d0187d8      0x170
 .rodata        0x9d0187d8      0x170 build/default/production/_ext/1978776677/InitializationCallbacks.o
                0x9d0187d8                MY_MAC_ADDRESS

.text           0x9d018948      0x2d4
 .text          0x9d018948      0x16c ../../../../../c-bowler/firmware/library/NR-Clib/development/c-bowler.X/dist/default/production/c-bowler.X.a(Namespace_bcs_rpc.o)
                0x9d018949                _rpcArgs
                0x9d0189fd                _rpc
                0x9d018a7d                getBcsRpcNamespace
 .text          0x9d018ab4      0x168 /home/opt/microchip/xc32/v1.00/bin/../lib/gcc/pic32mx/4.5.1/../../../../pic32mx/lib/libc.a(memcpy.o)
                0x9d018ab4                memcpy

.rodata         0x9d018c1c      0x164
 .rodata        0x9d018c1c      0x164 build/default/production/_ext/1978776677/DownStreamPackets.o

.text           0x9d018d80      0x15c
 .text          0x9d018d80      0x15c build/default/production/_ext/1020318379/Pin_State.o
                0x9d018d80                InitPins

.rodata         0x9d018edc      0x154
 .rodata        0x9d018edc      0x154 build/default/production/_ext/1020318379/ChannelMode.o

.text._NVMOperation
                0x9d019030      0x114
 .text._NVMOperation
                0x9d019030      0x114 /home/opt/microchip/xc32/v1.00/bin/../lib/gcc/pic32mx/4.5.1/../../../../pic32mx/lib/libmchp_peripheral_32MX440F128H.a(nvm_operation_lib.o)
                0x9d019030                _NVMOperation

.rodata         0x9d019144      0x208
 .rodata        0x9d019144      0x110 ../../../../../c-bowler/firmware/library/NR-Clib/development/c-bowler.X/dist/default/production/c-bowler.X.a(PidHysteresis.o)
 .rodata        0x9d019254       0xf8 ../../../../../c-bowler/firmware/library/NR-Clib/development/c-bowler.X/dist/default/production/c-bowler.X.a(usb_fifo.o)

.text           0x9d01934c      0x1c4
 .text          0x9d01934c       0xe4 build/default/production/_ext/805493626/Debug_DyIO.o
                0x9d01934c                mystrlen
                0x9d0193a8                printMode
 .text          0x9d019430       0xe0 ../../../../../c-bowler/firmware/library/NR-Clib/development/c-bowler.X/dist/default/production/c-bowler.X.a(Namespace_bcs_pid.o)
                0x9d019431                pidAsyncEventCallbackLocal
                0x9d019441                getBcsPidNamespace

.rodata         0x9d019510       0xd0
 .rodata        0x9d019510       0xd0 ../../../../../c-bowler/firmware/library/NR-Clib/development/c-bowler.X/dist/default/production/c-bowler.X.a(BowlerPacketParser.o)

.text.general_exception
                0x9d0195e0       0xd0
 .text.general_exception
                0x9d0195e0       0xd0 /home/opt/microchip/xc32/v1.00/bin/../lib/gcc/pic32mx/4.5.1/../../../../pic32mx/lib/libc.a(general-exception.o)
                0x9d0195e0                _general_exception_context

.text           0x9d0196b0      0x174
 .text          0x9d0196b0       0xbc ../../../../../c-bowler/firmware/library/NR-Clib/development/c-bowler.X/dist/default/production/c-bowler.X.a(LED.o)
                0x9d0196b1                InitLEDS
                0x9d0196f5                SetGreen
                0x9d019711                SetRed
                0x9d01972d                SetBlue
                0x9d019749                SetColor
 .text          0x9d01976c       0xb8 build/default/production/_ext/1825615050/CartesianController.o
                0x9d01976c                CartesianControllerInit
                0x9d01978c                CartesianControllerCoOp
                0x9d0197ac                CartesianControllerGetPacket
                0x9d0197d4                CartesianControllerPostPacket
                0x9d0197fc                CartesianControllerCriticalPacket

.rodata         0x9d019824      0x2b8
 .rodata        0x9d019824       0xb8 build/default/production/_ext/990863823/ADC.o
 .rodata        0x9d0198dc       0xac build/default/production/_ext/1978776677/AsyncManager.o
 .rodata        0x9d019988       0xac build/default/production/_ext/990863823/Switches.o
 .rodata        0x9d019a34       0xa8 ../../../../../c-bowler/firmware/library/NR-Clib/development/c-bowler.X/dist/default/production/c-bowler.X.a(Bowler_Server.o)
                0x9d019ad4                Broadcast

.text           0x9d019adc       0xa0
 .text          0x9d019adc       0xa0 build/default/production/_ext/1051272628/Namespace_bcs_io_setmode.o
                0x9d019adc                bcsIoSetmodeAsyncEventCallback
                0x9d019b08                get_bcsIoSetmodeNamespace

.rodata         0x9d019b7c      0x1dc
 .rodata        0x9d019b7c       0xa0 ../../../../../c-bowler/firmware/library/NR-Clib/development/c-bowler.X/dist/default/production/c-bowler.X.a(AbstractPID.o)
 .rodata        0x9d019c1c       0xa0 ../../../../../c-bowler/firmware/library/NR-Clib/development/c-bowler.X/dist/default/production/c-bowler.X.a(FlashStorage.o)
 .rodata        0x9d019cbc       0x9c build/default/production/_ext/1825615050/PID.o

.text           0x9d019d58       0x98
 .text          0x9d019d58       0x98 ../../../../../c-bowler/firmware/library/NR-Clib/development/c-bowler.X/dist/default/production/c-bowler.X.a(usb_callback.o)
                0x9d019d59                USBCBSuspend
                0x9d019d5d                USBCBWakeFromSuspend
                0x9d019d61                USBCB_SOF_Handler
                0x9d019d65                USBCBErrorHandler
                0x9d019d69                USBCBCheckOtherReq
                0x9d019d75                USBCBStdSetDscHandler
                0x9d019d79                USBCBInitEP
                0x9d019d85                USBCBSendResume
                0x9d019db5                USER_USB_CALLBACK_EVENT_HANDLER
                0x9d019ddd                mySetLineCodingHandler

.rodata         0x9d019df0      0x1a4
 .rodata        0x9d019df0       0x90 build/default/production/_ext/805493626/Namespace_bcs_io.o
 .rodata        0x9d019e80       0x90 ../../../../../c-bowler/firmware/library/NR-Clib/development/c-bowler.X/dist/default/production/c-bowler.X.a(PidVelocity.o)
 .rodata        0x9d019f10       0x84 ../../../../../c-bowler/firmware/library/NR-Clib/development/c-bowler.X/dist/default/production/c-bowler.X.a(FIFO.o)

.text           0x9d019f94       0x84
 .text          0x9d019f94       0x84 ../../../../../c-bowler/firmware/library/NR-Clib/development/c-bowler.X/dist/default/production/c-bowler.X.a(Delay.o)
                0x9d019f95                DelayIncServo
                0x9d019f99                Delay10us
                0x9d019fb1                DelayPreServo
                0x9d019fd1                DelayMs
                0x9d019ffd                Delay1us

.rodata         0x9d01a018      0x100
 .rodata        0x9d01a018       0x80 build/default/production/_ext/1051272628/Abstract_bcs_io_setmode.o
 .rodata        0x9d01a098       0x80 /home/opt/microchip/xc32/v1.00/bin/../lib/gcc/pic32mx/4.5.1/../../../../pic32mx/lib/libmchp_peripheral_32MX440F128H.a(spi_brg_tbl_lib_legacy.o)
                0x9d01a098                _SpiBrgConvTbl

.text.UARTEnable
                0x9d01a118       0x80
 .text.UARTEnable
                0x9d01a118       0x80 /home/opt/microchip/xc32/v1.00/bin/../lib/gcc/pic32mx/4.5.1/../../../../pic32mx/lib/libmchp_peripheral_32MX440F128H.a(uart_lib.o)
                0x9d01a118                UARTEnable

.rodata         0x9d01a198       0x7c
 .rodata        0x9d01a198       0x7c build/default/production/_ext/990863823/SPI.o

.text           0x9d01a214       0x78
 .text          0x9d01a214       0x78 ../../../../../c-bowler/firmware/library/NR-Clib/development/c-bowler.X/dist/default/production/c-bowler.X.a(UART.o)
                0x9d01a215                Write32UART2
                0x9d01a251                Write32UART1

.text.SoftReset
                0x9d01a28c       0x78
 .text.SoftReset
                0x9d01a28c       0x78 /home/opt/microchip/xc32/v1.00/bin/../lib/gcc/pic32mx/4.5.1/../../../../pic32mx/lib/libmchp_peripheral_32MX440F128H.a(soft_reset_lib.o)
                0x9d01a28c                SoftReset

.text           0x9d01a304      0x134
 .text          0x9d01a304       0x68 build/default/production/_ext/990863823/SerialPassThrough.o
                0x9d01a304                SendToSerialPassThrough
 .text          0x9d01a36c       0x68 ../../../../../c-bowler/firmware/library/NR-Clib/development/c-bowler.X/dist/default/production/c-bowler.X.a(Scheduler.o)
                0x9d01a36d                RunEvery
 .text          0x9d01a3d4       0x64 ../../../../../c-bowler/firmware/library/NR-Clib/development/c-bowler.X/dist/default/production/c-bowler.X.a(usb_descriptors.o)
                0x9d01a3d5                WriteUSBSerialNumber
                0x9d01a401                SetUSB_VID_PID
                0x9d01a40d                WriteUSBDeviceString

.text.OpenSPI2  0x9d01a438       0x60
 .text.OpenSPI2
                0x9d01a438       0x60 /home/opt/microchip/xc32/v1.00/bin/../lib/gcc/pic32mx/4.5.1/../../../../pic32mx/lib/libmchp_peripheral_32MX440F128H.a(spi_open_spi2_lib_legacy.o)
                0x9d01a438                OpenSPI2

.text.UARTSetDataRate
                0x9d01a498       0x5c
 .text.UARTSetDataRate
                0x9d01a498       0x5c /home/opt/microchip/xc32/v1.00/bin/../lib/gcc/pic32mx/4.5.1/../../../../pic32mx/lib/libmchp_peripheral_32MX440F128H.a(uart_lib.o)
                0x9d01a498                UARTSetDataRate

.rodata         0x9d01a4f4      0x108
 .rodata        0x9d01a4f4       0x58 build/default/production/_ext/990863823/Counter.o
 .rodata        0x9d01a54c       0x58 ../../../../../c-bowler/firmware/library/NR-Clib/development/c-bowler.X/dist/default/production/c-bowler.X.a(Bowler_Helper.o)
 .rodata        0x9d01a5a4       0x58 ../../../../../c-bowler/firmware/library/NR-Clib/development/c-bowler.X/dist/default/production/c-bowler.X.a(Namespace_bcs_pid.o)

.text.INTEnable
                0x9d01a5fc       0x58
 .text.INTEnable
                0x9d01a5fc       0x58 /home/opt/microchip/xc32/v1.00/bin/../lib/gcc/pic32mx/4.5.1/../../../../pic32mx/lib/libmchp_peripheral_32MX440F128H.a(int_tbl_lib.o)
                0x9d01a5fc                INTEnable

.rodata         0x9d01a654      0x180
 .rodata        0x9d01a654       0x54 build/default/production/_ext/1360937237/DyIOMain.o
 .rodata        0x9d01a6a8       0x50 build/default/production/_ext/1020318379/Pin_State.o
 .rodata        0x9d01a6f8       0x4c ../../../../../c-bowler/firmware/library/NR-Clib/development/c-bowler.X/dist/default/production/c-bowler.X.a(Namespace_bcs_core.o)
                0x9d01a728                coreName
 .rodata        0x9d01a744       0x48 build/default/production/_ext/990863823/AVRInterface.o
 .rodata        0x9d01a78c       0x48 build/default/production/_ext/990863823/EEPROMMannager.o

.text           0x9d01a7d4       0x48
 .text          0x9d01a7d4       0x48 /home/opt/microchip/xc32/v1.00/bin/../lib/gcc/pic32mx/4.5.1/libgcc.a(floatunsisf.o)
                0x9d01a7d4                __floatunsisf

.rodata         0x9d01a81c       0x8c
 .rodata        0x9d01a81c       0x48 /home/opt/microchip/xc32/v1.00/bin/../lib/gcc/pic32mx/4.5.1/../../../../pic32mx/lib/libmchp_peripheral_32MX440F128H.a(_ports_tbl_libp.o)
                0x9d01a81c                PortRegTbl
 .rodata        0x9d01a864       0x44 ../../../../../c-bowler/firmware/library/NR-Clib/development/c-bowler.X/dist/default/production/c-bowler.X.a(usb_function_cdc.o)

.text.PORTSetPinsDigitalOut
                0x9d01a8a8       0x40
 .text.PORTSetPinsDigitalOut
                0x9d01a8a8       0x40 /home/opt/microchip/xc32/v1.00/bin/../lib/gcc/pic32mx/4.5.1/../../../../pic32mx/lib/libmchp_peripheral_32MX440F128H.a(port_set_pins_digital_out_lib.o)
                0x9d01a8a8                PORTSetPinsDigitalOut

.text.UARTGetDataRate
                0x9d01a8e8       0x40
 .text.UARTGetDataRate
                0x9d01a8e8       0x40 /home/opt/microchip/xc32/v1.00/bin/../lib/gcc/pic32mx/4.5.1/../../../../pic32mx/lib/libmchp_peripheral_32MX440F128H.a(uart_lib.o)
                0x9d01a8e8                UARTGetDataRate

.rodata         0x9d01a928       0x3c
 .rodata        0x9d01a928       0x3c build/default/production/_ext/321196743/Namespace_neuronrobotics_dyio.o

.text.INTSetVectorPriority
                0x9d01a964       0x3c
 .text.INTSetVectorPriority
                0x9d01a964       0x3c /home/opt/microchip/xc32/v1.00/bin/../lib/gcc/pic32mx/4.5.1/../../../../pic32mx/lib/libmchp_peripheral_32MX440F128H.a(int_tbl_lib.o)
                0x9d01a964                INTSetVectorPriority

.text.INTSetVectorSubPriority
                0x9d01a9a0       0x3c
 .text.INTSetVectorSubPriority
                0x9d01a9a0       0x3c /home/opt/microchip/xc32/v1.00/bin/../lib/gcc/pic32mx/4.5.1/../../../../pic32mx/lib/libmchp_peripheral_32MX440F128H.a(int_tbl_lib.o)
                0x9d01a9a0                INTSetVectorSubPriority

.text.UARTConfigure
                0x9d01a9dc       0x3c
 .text.UARTConfigure
                0x9d01a9dc       0x3c /home/opt/microchip/xc32/v1.00/bin/../lib/gcc/pic32mx/4.5.1/../../../../pic32mx/lib/libmchp_peripheral_32MX440F128H.a(uart_lib.o)
                0x9d01a9dc                UARTConfigure

.text.UARTSetAddress
                0x9d01aa18       0x3c
 .text.UARTSetAddress
                0x9d01aa18       0x3c /home/opt/microchip/xc32/v1.00/bin/../lib/gcc/pic32mx/4.5.1/../../../../pic32mx/lib/libmchp_peripheral_32MX440F128H.a(uart_lib.o)
                0x9d01aa18                UARTSetAddress

.text.UARTWatchForAddress
                0x9d01aa54       0x38
 .text.UARTWatchForAddress
                0x9d01aa54       0x38 /home/opt/microchip/xc32/v1.00/bin/../lib/gcc/pic32mx/4.5.1/../../../../pic32mx/lib/libmchp_peripheral_32MX440F128H.a(uart_lib.o)
                0x9d01aa54                UARTWatchForAddress

.rodata         0x9d01aa8c       0x34
 .rodata        0x9d01aa8c       0x34 build/default/production/_ext/990863823/PPMReader.o

.text           0x9d01aac0       0x34
 .text          0x9d01aac0       0x34 build/default/production/_ext/1360937237/Main.o
                0x9d01aac0                main

.text.INTEnableSystemMultiVectoredInt
                0x9d01aaf4       0x34
 .text.INTEnableSystemMultiVectoredInt
                0x9d01aaf4       0x34 /home/opt/microchip/xc32/v1.00/bin/../lib/gcc/pic32mx/4.5.1/../../../../pic32mx/lib/libmchp_peripheral_32MX440F128H.a(int_enable_mv_int_lib.o)
                0x9d01aaf4                INTEnableSystemMultiVectoredInt

.text.NVMWriteWord
                0x9d01ab28       0x34
 .text.NVMWriteWord
                0x9d01ab28       0x34 /home/opt/microchip/xc32/v1.00/bin/../lib/gcc/pic32mx/4.5.1/../../../../pic32mx/lib/libmchp_peripheral_32MX440F128H.a(nvm_write_word_lib.o)
                0x9d01ab28                NVMWriteWord

.text.INTGetVectorPriority
                0x9d01ab5c       0x30
 .text.INTGetVectorPriority
                0x9d01ab5c       0x30 /home/opt/microchip/xc32/v1.00/bin/../lib/gcc/pic32mx/4.5.1/../../../../pic32mx/lib/libmchp_peripheral_32MX440F128H.a(int_tbl_lib.o)
                0x9d01ab5c                INTGetVectorPriority

.text.INTGetVectorSubPriority
                0x9d01ab8c       0x30
 .text.INTGetVectorSubPriority
                0x9d01ab8c       0x30 /home/opt/microchip/xc32/v1.00/bin/../lib/gcc/pic32mx/4.5.1/../../../../pic32mx/lib/libmchp_peripheral_32MX440F128H.a(int_tbl_lib.o)
                0x9d01ab8c                INTGetVectorSubPriority

.rodata         0x9d01abbc       0x2c
 .rodata        0x9d01abbc       0x2c build/default/production/_ext/1978776677/UpstreamPackets.o

.text.INTClearFlag
                0x9d01abe8       0x2c
 .text.INTClearFlag
                0x9d01abe8       0x2c /home/opt/microchip/xc32/v1.00/bin/../lib/gcc/pic32mx/4.5.1/../../../../pic32mx/lib/libmchp_peripheral_32MX440F128H.a(int_tbl_lib.o)
                0x9d01abe8                INTClearFlag

.text.INTSetFlag
                0x9d01ac14       0x2c
 .text.INTSetFlag
                0x9d01ac14       0x2c /home/opt/microchip/xc32/v1.00/bin/../lib/gcc/pic32mx/4.5.1/../../../../pic32mx/lib/libmchp_peripheral_32MX440F128H.a(int_tbl_lib.o)
                0x9d01ac14                INTSetFlag

.text.INTGetFlag
                0x9d01ac40       0x2c
 .text.INTGetFlag
                0x9d01ac40       0x2c /home/opt/microchip/xc32/v1.00/bin/../lib/gcc/pic32mx/4.5.1/../../../../pic32mx/lib/libmchp_peripheral_32MX440F128H.a(int_tbl_lib.o)
                0x9d01ac40                INTGetFlag

.text.INTGetEnable
                0x9d01ac6c       0x2c
 .text.INTGetEnable
                0x9d01ac6c       0x2c /home/opt/microchip/xc32/v1.00/bin/../lib/gcc/pic32mx/4.5.1/../../../../pic32mx/lib/libmchp_peripheral_32MX440F128H.a(int_tbl_lib.o)
                0x9d01ac6c                INTGetEnable

.text.NVMErasePage
                0x9d01ac98       0x2c
 .text.NVMErasePage
                0x9d01ac98       0x2c /home/opt/microchip/xc32/v1.00/bin/../lib/gcc/pic32mx/4.5.1/../../../../pic32mx/lib/libmchp_peripheral_32MX440F128H.a(nvm_erase_page_lib.o)
                0x9d01ac98                NVMErasePage

.text           0x9d01acc4       0x50
 .text          0x9d01acc4       0x28 build/default/production/_ext/1020318379/ChannelConfig.o
                0x9d01acc4                ConfigChannel
 .text          0x9d01acec       0x28 ../../../../../c-bowler/firmware/library/NR-Clib/development/c-bowler.X/dist/default/production/c-bowler.X.a(Bowler_USB_HAL.o)
                0x9d01aced                GetPacketUSB
                0x9d01acfd                SendPacketUSB
                0x9d01ad09                Get_USB_Byte_Count

.text.PORTClearBits
                0x9d01ad14       0x28
 .text.PORTClearBits
                0x9d01ad14       0x28 /home/opt/microchip/xc32/v1.00/bin/../lib/gcc/pic32mx/4.5.1/../../../../pic32mx/lib/libmchp_peripheral_32MX440F128H.a(port_clear_bits_lib.o)
                0x9d01ad14                PORTClearBits

.text.PORTSetBits
                0x9d01ad3c       0x28
 .text.PORTSetBits
                0x9d01ad3c       0x28 /home/opt/microchip/xc32/v1.00/bin/../lib/gcc/pic32mx/4.5.1/../../../../pic32mx/lib/libmchp_peripheral_32MX440F128H.a(port_set_bits_lib.o)
                0x9d01ad3c                PORTSetBits

.text.UARTSetFifoMode
                0x9d01ad64       0x28
 .text.UARTSetFifoMode
                0x9d01ad64       0x28 /home/opt/microchip/xc32/v1.00/bin/../lib/gcc/pic32mx/4.5.1/../../../../pic32mx/lib/libmchp_peripheral_32MX440F128H.a(uart_lib.o)
                0x9d01ad64                UARTSetFifoMode

.text.UARTSetLineControl
                0x9d01ad8c       0x28
 .text.UARTSetLineControl
                0x9d01ad8c       0x28 /home/opt/microchip/xc32/v1.00/bin/../lib/gcc/pic32mx/4.5.1/../../../../pic32mx/lib/libmchp_peripheral_32MX440F128H.a(uart_lib.o)
                0x9d01ad8c                UARTSetLineControl

.rodata         0x9d01adb4       0x64
 .rodata        0x9d01adb4       0x24 ../../../../../c-bowler/firmware/library/NR-Clib/development/c-bowler.X/dist/default/production/c-bowler.X.a(PidRpc.o)
 .rodata        0x9d01add8       0x20 build/default/production/_ext/1020318379/ChannelValues.o
 .rodata        0x9d01adf8       0x20 ../../../../../c-bowler/firmware/library/NR-Clib/development/c-bowler.X/dist/default/production/c-bowler.X.a(Namespace_bcs_rpc.o)

.text.getcSPI2  0x9d01ae18       0x20
 .text.getcSPI2
                0x9d01ae18       0x20 /home/opt/microchip/xc32/v1.00/bin/../lib/gcc/pic32mx/4.5.1/../../../../pic32mx/lib/libmchp_peripheral_32MX440F128H.a(spi_getc_spi2_lib_legacy.o)
                0x9d01ae18                getcSPI2

.text.INTRestoreInterrupts
                0x9d01ae38       0x1c
 .text.INTRestoreInterrupts
                0x9d01ae38       0x1c /home/opt/microchip/xc32/v1.00/bin/../lib/gcc/pic32mx/4.5.1/../../../../pic32mx/lib/libmchp_peripheral_32MX440F128H.a(int_restore_interrupts_lib.o)
                0x9d01ae38                INTRestoreInterrupts

.rodata         0x9d01ae54       0x18
 .rodata        0x9d01ae54       0x18 ../../../../../c-bowler/firmware/library/NR-Clib/development/c-bowler.X/dist/default/production/c-bowler.X.a(PidAsync.o)

.text           0x9d01ae6c       0x28
 .text          0x9d01ae6c       0x18 /home/opt/microchip/xc32/v1.00/bin/../lib/gcc/pic32mx/4.5.1/../../../../pic32mx/lib/libc.a(default-nmi-handler.o)
                0x9d01ae6c                _nmi_handler
 .text          0x9d01ae84       0x10 /home/opt/microchip/xc32/v1.00/bin/../lib/gcc/pic32mx/4.5.1/../../../../pic32mx/lib/crt0.o
                0x9d01ae8c                __crt0_exit

.rodata         0x9d01ae94       0x1c
 .rodata        0x9d01ae94       0x10 build/default/production/_ext/1051272628/Namespace_bcs_io_setmode.o
 .rodata        0x9d01aea4        0xc build/default/production/_ext/805493626/Debug_DyIO.o

.text._bootstrap_exception_handler
                0x9d01aeb0        0xc
 .text._bootstrap_exception_handler
                0x9d01aeb0        0xc /home/opt/microchip/xc32/v1.00/bin/../lib/gcc/pic32mx/4.5.1/../../../../pic32mx/lib/libc.a(default-bootstrap-exception-handler.o)
                0x9d01aeb0                _bootstrap_exception_handler

.rodata         0x9d01aebc       0x10
 .rodata        0x9d01aebc        0x8 build/default/production/_ext/1281821416/Namespace_bcs_safe.o
 .rodata        0x9d01aec4        0x8 build/default/production/_ext/321196743/Namespace_bcs_pid_dypid.o

.text._on_reset
                0x9d01aecc        0x8
 .text._on_reset
                0x9d01aecc        0x8 /home/opt/microchip/xc32/v1.00/bin/../lib/gcc/pic32mx/4.5.1/../../../../pic32mx/lib/libc.a(default-on-reset.o)
                0x9d01aecc                _on_reset

.text._on_bootstrap
                0x9d01aed4        0x8
 .text._on_bootstrap
                0x9d01aed4        0x8 /home/opt/microchip/xc32/v1.00/bin/../lib/gcc/pic32mx/4.5.1/../../../../pic32mx/lib/libc.a(default-on-bootstrap.o)
                0x9d01aed4                _on_bootstrap

.text.INTEnableInterrupts
                0x9d01aedc        0x8
 .text.INTEnableInterrupts
                0x9d01aedc        0x8 /home/opt/microchip/xc32/v1.00/bin/../lib/gcc/pic32mx/4.5.1/../../../../pic32mx/lib/libmchp_peripheral_32MX440F128H.a(int_enable_interrupts_lib.o)
                0x9d01aedc                INTEnableInterrupts

.text.INTDisableInterrupts
                0x9d01aee4        0x8
 .text.INTDisableInterrupts
                0x9d01aee4        0x8 /home/opt/microchip/xc32/v1.00/bin/../lib/gcc/pic32mx/4.5.1/../../../../pic32mx/lib/libmchp_peripheral_32MX440F128H.a(int_disable_interrupts_lib.o)
                0x9d01aee4                INTDisableInterrupts

.rodata         0x9d01aeec        0x8
 .rodata        0x9d01aeec        0x8 /home/opt/microchip/xc32/v1.00/bin/../lib/gcc/pic32mx/4.5.1/../../../../pic32mx/lib/libmchp_peripheral_32MX440F128H.a(uart_lib.o)
                0x9d01aeec                uartReg

.text%z240      0x00000000        0x0
 .text          0x00000000        0x0 /home/opt/microchip/xc32/v1.00/bin/../lib/gcc/pic32mx/4.5.1/../../../../pic32mx/lib/libmchp_peripheral_32MX440F128H.a(int_restore_interrupts_lib.o)

.text%z241      0x00000000        0x0
 .text          0x00000000        0x0 /home/opt/microchip/xc32/v1.00/bin/../lib/gcc/pic32mx/4.5.1/../../../../pic32mx/lib/libmchp_peripheral_32MX440F128H.a(uart_lib.o)

.text%z242      0x00000000        0x0
 .text          0x00000000        0x0 /home/opt/microchip/xc32/v1.00/bin/../lib/gcc/pic32mx/4.5.1/../../../../pic32mx/lib/libmchp_peripheral_32MX440F128H.a(_ports_tbl_libp.o)

.text%z243      0x00000000        0x0
 .text          0x00000000        0x0 /home/opt/microchip/xc32/v1.00/bin/../lib/gcc/pic32mx/4.5.1/../../../../pic32mx/lib/libmchp_peripheral_32MX440F128H.a(port_set_bits_lib.o)

.text%z244      0x00000000        0x0
 .text          0x00000000        0x0 /home/opt/microchip/xc32/v1.00/bin/../lib/gcc/pic32mx/4.5.1/../../../../pic32mx/lib/libmchp_peripheral_32MX440F128H.a(port_clear_bits_lib.o)

.text%z245      0x00000000        0x0
 .text          0x00000000        0x0 /home/opt/microchip/xc32/v1.00/bin/../lib/gcc/pic32mx/4.5.1/../../../../pic32mx/lib/libmchp_peripheral_32MX440F128H.a(port_set_pins_digital_out_lib.o)

.text%z246      0x00000000        0x0
 .text          0x00000000        0x0 /home/opt/microchip/xc32/v1.00/bin/../lib/gcc/pic32mx/4.5.1/../../../../pic32mx/lib/libmchp_peripheral_32MX440F128H.a(nvm_write_word_lib.o)

.text%z247      0x00000000        0x0
 .text          0x00000000        0x0 /home/opt/microchip/xc32/v1.00/bin/../lib/gcc/pic32mx/4.5.1/../../../../pic32mx/lib/libmchp_peripheral_32MX440F128H.a(nvm_operation_lib.o)

.text%z248      0x00000000        0x0
 .text          0x00000000        0x0 /home/opt/microchip/xc32/v1.00/bin/../lib/gcc/pic32mx/4.5.1/../../../../pic32mx/lib/libmchp_peripheral_32MX440F128H.a(nvm_erase_page_lib.o)

.text%z249      0x00000000        0x0
 .text          0x00000000        0x0 /home/opt/microchip/xc32/v1.00/bin/../lib/gcc/pic32mx/4.5.1/../../../../pic32mx/lib/libmchp_peripheral_32MX440F128H.a(spi_brg_tbl_lib_legacy.o)

.text%z250      0x00000000        0x0
 .text          0x00000000        0x0 /home/opt/microchip/xc32/v1.00/bin/../lib/gcc/pic32mx/4.5.1/../../../../pic32mx/lib/libmchp_peripheral_32MX440F128H.a(spi_open_spi2_lib_legacy.o)

.text%z251      0x00000000        0x0
 .text          0x00000000        0x0 /home/opt/microchip/xc32/v1.00/bin/../lib/gcc/pic32mx/4.5.1/../../../../pic32mx/lib/libmchp_peripheral_32MX440F128H.a(spi_getc_spi2_lib_legacy.o)

.text%z252      0x00000000        0x0
 .text          0x00000000        0x0 /home/opt/microchip/xc32/v1.00/bin/../lib/gcc/pic32mx/4.5.1/../../../../pic32mx/lib/libmchp_peripheral_32MX440F128H.a(int_tbl_lib.o)

.text%z253      0x00000000        0x0
 .text          0x00000000        0x0 /home/opt/microchip/xc32/v1.00/bin/../lib/gcc/pic32mx/4.5.1/../../../../pic32mx/lib/libmchp_peripheral_32MX440F128H.a(int_enable_mv_int_lib.o)

.text%z254      0x00000000        0x0
 .text          0x00000000        0x0 /home/opt/microchip/xc32/v1.00/bin/../lib/gcc/pic32mx/4.5.1/../../../../pic32mx/lib/libmchp_peripheral_32MX440F128H.a(int_disable_interrupts_lib.o)

.text%z255      0x00000000        0x0
 .text          0x00000000        0x0 /home/opt/microchip/xc32/v1.00/bin/../lib/gcc/pic32mx/4.5.1/../../../../pic32mx/lib/libmchp_peripheral_32MX440F128H.a(int_enable_interrupts_lib.o)

.text%z256      0x00000000        0x0
 .text          0x00000000        0x0 /home/opt/microchip/xc32/v1.00/bin/../lib/gcc/pic32mx/4.5.1/../../../../pic32mx/lib/libmchp_peripheral_32MX440F128H.a(soft_reset_lib.o)

.text%z257      0x00000000        0x0
 .text          0x00000000        0x0 /home/opt/microchip/xc32/v1.00/bin/../lib/gcc/pic32mx/4.5.1/../../../../pic32mx/lib/./proc/32MX440F128H/processor.o

.text%z258      0x00000000        0x0
 .text          0x00000000        0x0 /home/opt/microchip/xc32/v1.00/bin/../lib/gcc/pic32mx/4.5.1/../../../../pic32mx/lib/libc.a(default-on-bootstrap.o)

.text%z259      0x00000000        0x0
 .text          0x00000000        0x0 /home/opt/microchip/xc32/v1.00/bin/../lib/gcc/pic32mx/4.5.1/../../../../pic32mx/lib/libc.a(default-on-reset.o)

.text%z260      0x00000000        0x0
 .text          0x00000000        0x0 /home/opt/microchip/xc32/v1.00/bin/../lib/gcc/pic32mx/4.5.1/../../../../pic32mx/lib/libc.a(default-bootstrap-exception-handler.o)

.text%z261      0x00000000        0x0
 .text          0x00000000        0x0 /home/opt/microchip/xc32/v1.00/bin/../lib/gcc/pic32mx/4.5.1/../../../../pic32mx/lib/libc.a(general-exception.o)

.text%z262      0x00000000        0x0
 .text          0x00000000        0x0 build/default/production/_ext/1281821416/Abstract_bsc_safe.o

.text%z263      0x00000000        0x0
 .text          0x00000000        0x0 build/default/production/_ext/2110062566/UartDMARx.o
